---
triple:          'arm64-apple-darwin'
binary-path:     '/Users/mohammedelgammal/dev/c-/WeightedGraph'
relocations:
  - { offsetInCU: 0x300A, offset: 0x300A, size: 0x8, addend: 0x0, symName: __ZNSt3__124__put_character_sequenceB7v160006IcNS_11char_traitsIcEEEERNS_13basic_ostreamIT_T0_EES7_PKS4_m, symObjAddr: 0x454, symBinAddr: 0x100000A58, symSize: 0x1EC }
  - { offsetInCU: 0x49A5, offset: 0x49A5, size: 0x8, addend: 0x0, symName: __ZNSt3__1lsB7v160006INS_11char_traitsIcEEEERNS_13basic_ostreamIcT_EES6_PKc, symObjAddr: 0x294, symBinAddr: 0x100000898, symSize: 0x48 }
  - { offsetInCU: 0x49EB, offset: 0x49EB, size: 0x8, addend: 0x0, symName: __ZNSt3__14endlB7v160006IcNS_11char_traitsIcEEEERNS_13basic_ostreamIT_T0_EES7_, symObjAddr: 0x308, symBinAddr: 0x10000090C, symSize: 0x58 }
  - { offsetInCU: 0x4A2B, offset: 0x4A2B, size: 0x8, addend: 0x0, symName: __ZNSt3__116__pad_and_outputB7v160006IcNS_11char_traitsIcEEEENS_19ostreambuf_iteratorIT_T0_EES6_PKS4_S8_S8_RNS_8ios_baseES4_, symObjAddr: 0x690, symBinAddr: 0x100000C94, symSize: 0x240 }
  - { offsetInCU: 0x4AFA, offset: 0x4AFA, size: 0x8, addend: 0x0, symName: __ZNSt3__119__debug_db_insert_cB7v160006INS_12basic_stringIcNS_11char_traitsIcEENS_9allocatorIcEEEEEEvPT_, symObjAddr: 0xB50, symBinAddr: 0x100001154, symSize: 0x10 }
  - { offsetInCU: 0x4B2B, offset: 0x4B2B, size: 0x8, addend: 0x0, symName: __ZNSt3__112__to_addressB7v160006IcEEPT_S2_, symObjAddr: 0xC1C, symBinAddr: 0x100001220, symSize: 0x14 }
  - { offsetInCU: 0x4B60, offset: 0x4B60, size: 0x8, addend: 0x0, symName: __ZNSt3__19use_facetB7v160006INS_5ctypeIcEEEERKT_RKNS_6localeE, symObjAddr: 0xED4, symBinAddr: 0x1000014D8, symSize: 0x2C }
  - { offsetInCU: 0x502F, offset: 0x502F, size: 0x8, addend: 0x0, symName: __ZNSt3__118__constexpr_strlenB7v160006EPKc, symObjAddr: 0xF6C, symBinAddr: 0x100001570, symSize: 0x24 }
  - { offsetInCU: 0x7957, offset: 0x7957, size: 0x8, addend: 0x0, symName: __ZN7AVLTreeC2Ei, symObjAddr: 0x0, symBinAddr: 0x100000604, symSize: 0x4C }
  - { offsetInCU: 0x798F, offset: 0x798F, size: 0x8, addend: 0x0, symName: __ZN7AVLTreeC1Ei, symObjAddr: 0x4C, symBinAddr: 0x100000650, symSize: 0x34 }
  - { offsetInCU: 0x79C7, offset: 0x79C7, size: 0x8, addend: 0x0, symName: __ZN7AVLTree6insertEiP4Node, symObjAddr: 0x80, symBinAddr: 0x100000684, symSize: 0x1AC }
  - { offsetInCU: 0x7A09, offset: 0x7A09, size: 0x8, addend: 0x0, symName: __ZN4NodeC1Ei, symObjAddr: 0x22C, symBinAddr: 0x100000830, symSize: 0x34 }
  - { offsetInCU: 0x7A3F, offset: 0x7A3F, size: 0x8, addend: 0x0, symName: __ZNK7AVLTree11isLeftHeavyEv, symObjAddr: 0x260, symBinAddr: 0x100000864, symSize: 0x34 }
  - { offsetInCU: 0x7A65, offset: 0x7A65, size: 0x8, addend: 0x0, symName: __ZNSt3__113basic_ostreamIcNS_11char_traitsIcEEElsB7v160006EPFRS3_S4_E, symObjAddr: 0x2DC, symBinAddr: 0x1000008E0, symSize: 0x2C }
  - { offsetInCU: 0x7A97, offset: 0x7A97, size: 0x8, addend: 0x0, symName: __ZNK7AVLTree12isRightHeavyEv, symObjAddr: 0x360, symBinAddr: 0x100000964, symSize: 0x34 }
  - { offsetInCU: 0x7ABD, offset: 0x7ABD, size: 0x8, addend: 0x0, symName: __ZN7AVLTree6insertEi, symObjAddr: 0x394, symBinAddr: 0x100000998, symSize: 0x3C }
  - { offsetInCU: 0x7AF1, offset: 0x7AF1, size: 0x8, addend: 0x0, symName: __ZNK7AVLTree16getBalanceFactorEPK4Node, symObjAddr: 0x3D0, symBinAddr: 0x1000009D4, symSize: 0x58 }
  - { offsetInCU: 0x7B25, offset: 0x7B25, size: 0x8, addend: 0x0, symName: __ZN4NodeC2Ei, symObjAddr: 0x428, symBinAddr: 0x100000A2C, symSize: 0x2C }
  - { offsetInCU: 0x7B5B, offset: 0x7B5B, size: 0x8, addend: 0x0, symName: __ZNSt3__111char_traitsIcE6lengthEPKc, symObjAddr: 0x640, symBinAddr: 0x100000C44, symSize: 0x34 }
  - { offsetInCU: 0x7B9B, offset: 0x7B9B, size: 0x8, addend: 0x0, symName: __ZNKSt3__113basic_ostreamIcNS_11char_traitsIcEEE6sentrycvbB7v160006Ev, symObjAddr: 0x674, symBinAddr: 0x100000C78, symSize: 0x1C }
  - { offsetInCU: 0x7BBF, offset: 0x7BBF, size: 0x8, addend: 0x0, symName: __ZNSt3__119ostreambuf_iteratorIcNS_11char_traitsIcEEEC1B7v160006ERNS_13basic_ostreamIcS2_EE, symObjAddr: 0x8D0, symBinAddr: 0x100000ED4, symSize: 0x34 }
  - { offsetInCU: 0x7BF5, offset: 0x7BF5, size: 0x8, addend: 0x0, symName: __ZNKSt3__18ios_base5flagsB7v160006Ev, symObjAddr: 0x904, symBinAddr: 0x100000F08, symSize: 0x18 }
  - { offsetInCU: 0x7C1B, offset: 0x7C1B, size: 0x8, addend: 0x0, symName: __ZNKSt3__19basic_iosIcNS_11char_traitsIcEEE4fillB7v160006Ev, symObjAddr: 0x91C, symBinAddr: 0x100000F20, symSize: 0x64 }
  - { offsetInCU: 0x7C41, offset: 0x7C41, size: 0x8, addend: 0x0, symName: __ZNKSt3__119ostreambuf_iteratorIcNS_11char_traitsIcEEE6failedB7v160006Ev, symObjAddr: 0x980, symBinAddr: 0x100000F84, symSize: 0x24 }
  - { offsetInCU: 0x7C65, offset: 0x7C65, size: 0x8, addend: 0x0, symName: __ZNSt3__19basic_iosIcNS_11char_traitsIcEEE8setstateB7v160006Ej, symObjAddr: 0x9A4, symBinAddr: 0x100000FA8, symSize: 0x2C }
  - { offsetInCU: 0x7C98, offset: 0x7C98, size: 0x8, addend: 0x0, symName: __ZNKSt3__18ios_base5widthB7v160006Ev, symObjAddr: 0x9DC, symBinAddr: 0x100000FE0, symSize: 0x18 }
  - { offsetInCU: 0x7CBE, offset: 0x7CBE, size: 0x8, addend: 0x0, symName: __ZNSt3__115basic_streambufIcNS_11char_traitsIcEEE5sputnB7v160006EPKcl, symObjAddr: 0x9F4, symBinAddr: 0x100000FF8, symSize: 0x3C }
  - { offsetInCU: 0x7CFE, offset: 0x7CFE, size: 0x8, addend: 0x0, symName: __ZNSt3__112basic_stringIcNS_11char_traitsIcEENS_9allocatorIcEEEC1B7v160006Emc, symObjAddr: 0xA30, symBinAddr: 0x100001034, symSize: 0x3C }
  - { offsetInCU: 0x7D44, offset: 0x7D44, size: 0x8, addend: 0x0, symName: __ZNSt3__112basic_stringIcNS_11char_traitsIcEENS_9allocatorIcEEE4dataB7v160006Ev, symObjAddr: 0xA6C, symBinAddr: 0x100001070, symSize: 0x28 }
  - { offsetInCU: 0x7D68, offset: 0x7D68, size: 0x8, addend: 0x0, symName: __ZNSt3__18ios_base5widthB7v160006El, symObjAddr: 0xA94, symBinAddr: 0x100001098, symSize: 0x2C }
  - { offsetInCU: 0x7DAC, offset: 0x7DAC, size: 0x8, addend: 0x0, symName: __ZNSt3__112basic_stringIcNS_11char_traitsIcEENS_9allocatorIcEEEC2B7v160006Emc, symObjAddr: 0xAC0, symBinAddr: 0x1000010C4, symSize: 0x54 }
  - { offsetInCU: 0x7DF7, offset: 0x7DF7, size: 0x8, addend: 0x0, symName: __ZNSt3__117__compressed_pairINS_12basic_stringIcNS_11char_traitsIcEENS_9allocatorIcEEE5__repES5_EC1B7v160006INS_18__default_init_tagESA_EEOT_OT0_, symObjAddr: 0xB14, symBinAddr: 0x100001118, symSize: 0x3C }
  - { offsetInCU: 0x7E4D, offset: 0x7E4D, size: 0x8, addend: 0x0, symName: __ZNSt3__117__compressed_pairINS_12basic_stringIcNS_11char_traitsIcEENS_9allocatorIcEEE5__repES5_EC2B7v160006INS_18__default_init_tagESA_EEOT_OT0_, symObjAddr: 0xB60, symBinAddr: 0x100001164, symSize: 0x3C }
  - { offsetInCU: 0x7EA3, offset: 0x7EA3, size: 0x8, addend: 0x0, symName: __ZNSt3__122__compressed_pair_elemINS_12basic_stringIcNS_11char_traitsIcEENS_9allocatorIcEEE5__repELi0ELb0EEC2B7v160006ENS_18__default_init_tagE, symObjAddr: 0xB9C, symBinAddr: 0x1000011A0, symSize: 0x14 }
  - { offsetInCU: 0x7ED5, offset: 0x7ED5, size: 0x8, addend: 0x0, symName: __ZNSt3__122__compressed_pair_elemINS_9allocatorIcEELi1ELb1EEC2B7v160006ENS_18__default_init_tagE, symObjAddr: 0xBB0, symBinAddr: 0x1000011B4, symSize: 0x2C }
  - { offsetInCU: 0x7F07, offset: 0x7F07, size: 0x8, addend: 0x0, symName: __ZNSt3__19allocatorIcEC2B7v160006Ev, symObjAddr: 0xBDC, symBinAddr: 0x1000011E0, symSize: 0x2C }
  - { offsetInCU: 0x7F2F, offset: 0x7F2F, size: 0x8, addend: 0x0, symName: __ZNSt3__116__non_trivial_ifILb1ENS_9allocatorIcEEEC2B7v160006Ev, symObjAddr: 0xC08, symBinAddr: 0x10000120C, symSize: 0x14 }
  - { offsetInCU: 0x7F57, offset: 0x7F57, size: 0x8, addend: 0x0, symName: __ZNSt3__112basic_stringIcNS_11char_traitsIcEENS_9allocatorIcEEE13__get_pointerB7v160006Ev, symObjAddr: 0xC30, symBinAddr: 0x100001234, symSize: 0x54 }
  - { offsetInCU: 0x7F7B, offset: 0x7F7B, size: 0x8, addend: 0x0, symName: __ZNKSt3__112basic_stringIcNS_11char_traitsIcEENS_9allocatorIcEEE9__is_longB7v160006Ev, symObjAddr: 0xC84, symBinAddr: 0x100001288, symSize: 0x38 }
  - { offsetInCU: 0x7F9F, offset: 0x7F9F, size: 0x8, addend: 0x0, symName: __ZNSt3__112basic_stringIcNS_11char_traitsIcEENS_9allocatorIcEEE18__get_long_pointerB7v160006Ev, symObjAddr: 0xCBC, symBinAddr: 0x1000012C0, symSize: 0x28 }
  - { offsetInCU: 0x7FC3, offset: 0x7FC3, size: 0x8, addend: 0x0, symName: __ZNSt3__112basic_stringIcNS_11char_traitsIcEENS_9allocatorIcEEE19__get_short_pointerB7v160006Ev, symObjAddr: 0xCE4, symBinAddr: 0x1000012E8, symSize: 0x28 }
  - { offsetInCU: 0x7FE7, offset: 0x7FE7, size: 0x8, addend: 0x0, symName: __ZNKSt3__117__compressed_pairINS_12basic_stringIcNS_11char_traitsIcEENS_9allocatorIcEEE5__repES5_E5firstB7v160006Ev, symObjAddr: 0xD0C, symBinAddr: 0x100001310, symSize: 0x24 }
  - { offsetInCU: 0x800B, offset: 0x800B, size: 0x8, addend: 0x0, symName: __ZNKSt3__122__compressed_pair_elemINS_12basic_stringIcNS_11char_traitsIcEENS_9allocatorIcEEE5__repELi0ELb0EE5__getB7v160006Ev, symObjAddr: 0xD30, symBinAddr: 0x100001334, symSize: 0x14 }
  - { offsetInCU: 0x802F, offset: 0x802F, size: 0x8, addend: 0x0, symName: __ZNSt3__117__compressed_pairINS_12basic_stringIcNS_11char_traitsIcEENS_9allocatorIcEEE5__repES5_E5firstB7v160006Ev, symObjAddr: 0xD44, symBinAddr: 0x100001348, symSize: 0x24 }
  - { offsetInCU: 0x8053, offset: 0x8053, size: 0x8, addend: 0x0, symName: __ZNSt3__122__compressed_pair_elemINS_12basic_stringIcNS_11char_traitsIcEENS_9allocatorIcEEE5__repELi0ELb0EE5__getB7v160006Ev, symObjAddr: 0xD68, symBinAddr: 0x10000136C, symSize: 0x14 }
  - { offsetInCU: 0x8077, offset: 0x8077, size: 0x8, addend: 0x0, symName: __ZNSt3__114pointer_traitsIPcE10pointer_toB7v160006ERc, symObjAddr: 0xD7C, symBinAddr: 0x100001380, symSize: 0x14 }
  - { offsetInCU: 0x8099, offset: 0x8099, size: 0x8, addend: 0x0, symName: __ZNSt3__119ostreambuf_iteratorIcNS_11char_traitsIcEEEC2B7v160006ERNS_13basic_ostreamIcS2_EE, symObjAddr: 0xD90, symBinAddr: 0x100001394, symSize: 0x54 }
  - { offsetInCU: 0x80CF, offset: 0x80CF, size: 0x8, addend: 0x0, symName: __ZNKSt3__19basic_iosIcNS_11char_traitsIcEEE5rdbufB7v160006Ev, symObjAddr: 0xDE4, symBinAddr: 0x1000013E8, symSize: 0x24 }
  - { offsetInCU: 0x80F5, offset: 0x80F5, size: 0x8, addend: 0x0, symName: __ZNKSt3__18ios_base5rdbufB7v160006Ev, symObjAddr: 0xE08, symBinAddr: 0x10000140C, symSize: 0x18 }
  - { offsetInCU: 0x8119, offset: 0x8119, size: 0x8, addend: 0x0, symName: __ZNSt3__111char_traitsIcE11eq_int_typeEii, symObjAddr: 0xE20, symBinAddr: 0x100001424, symSize: 0x28 }
  - { offsetInCU: 0x814A, offset: 0x814A, size: 0x8, addend: 0x0, symName: __ZNSt3__111char_traitsIcE3eofEv, symObjAddr: 0xE48, symBinAddr: 0x10000144C, symSize: 0x8 }
  - { offsetInCU: 0x815C, offset: 0x815C, size: 0x8, addend: 0x0, symName: __ZNKSt3__19basic_iosIcNS_11char_traitsIcEEE5widenB7v160006Ec, symObjAddr: 0xE50, symBinAddr: 0x100001454, symSize: 0x84 }
  - { offsetInCU: 0x81C8, offset: 0x81C8, size: 0x8, addend: 0x0, symName: __ZNKSt3__15ctypeIcE5widenB7v160006Ec, symObjAddr: 0xF00, symBinAddr: 0x100001504, symSize: 0x38 }
  - { offsetInCU: 0x81FB, offset: 0x81FB, size: 0x8, addend: 0x0, symName: __ZNSt3__18ios_base8setstateB7v160006Ej, symObjAddr: 0xF38, symBinAddr: 0x10000153C, symSize: 0x34 }
  - { offsetInCU: 0x3F48, offset: 0xC1D2, size: 0x8, addend: 0x0, symName: __ZNSt3__1lsB7v160006INS_11char_traitsIcEEEERNS_13basic_ostreamIcT_EES6_c, symObjAddr: 0x474, symBinAddr: 0x1000019D4, symSize: 0x34 }
  - { offsetInCU: 0x5F71, offset: 0xE1FB, size: 0x8, addend: 0x0, symName: __ZN16BinarySearchTreeC2Ei, symObjAddr: 0x0, symBinAddr: 0x100001594, symSize: 0x80 }
  - { offsetInCU: 0x5FA9, offset: 0xE233, size: 0x8, addend: 0x0, symName: __ZN16BinarySearchTreeC1Ei, symObjAddr: 0xB4, symBinAddr: 0x100001614, symSize: 0x34 }
  - { offsetInCU: 0x5FE1, offset: 0xE26B, size: 0x8, addend: 0x0, symName: __ZN16BinarySearchTreeD2Ev, symObjAddr: 0xE8, symBinAddr: 0x100001648, symSize: 0x6C }
  - { offsetInCU: 0x600B, offset: 0xE295, size: 0x8, addend: 0x0, symName: __ZN16BinarySearchTreeD1Ev, symObjAddr: 0x154, symBinAddr: 0x1000016B4, symSize: 0x2C }
  - { offsetInCU: 0x6035, offset: 0xE2BF, size: 0x8, addend: 0x0, symName: __ZN16BinarySearchTree6insertEi, symObjAddr: 0x180, symBinAddr: 0x1000016E0, symSize: 0x1B0 }
  - { offsetInCU: 0x6087, offset: 0xE311, size: 0x8, addend: 0x0, symName: __ZNK16BinarySearchTree4findEi, symObjAddr: 0x330, symBinAddr: 0x100001890, symSize: 0xC4 }
  - { offsetInCU: 0x60CB, offset: 0xE355, size: 0x8, addend: 0x0, symName: __ZNK16BinarySearchTree16traversePreOrderEPK4Node, symObjAddr: 0x3F4, symBinAddr: 0x100001954, symSize: 0x80 }
  - { offsetInCU: 0x60FF, offset: 0xE389, size: 0x8, addend: 0x0, symName: __ZNK16BinarySearchTree16traversePreOrderEv, symObjAddr: 0x4A8, symBinAddr: 0x100001A08, symSize: 0x28 }
  - { offsetInCU: 0x6125, offset: 0xE3AF, size: 0x8, addend: 0x0, symName: __ZNK16BinarySearchTree15traverseInOrderEP4Node, symObjAddr: 0x4D0, symBinAddr: 0x100001A30, symSize: 0x80 }
  - { offsetInCU: 0x6159, offset: 0xE3E3, size: 0x8, addend: 0x0, symName: __ZNK16BinarySearchTree15traverseInOrderEv, symObjAddr: 0x550, symBinAddr: 0x100001AB0, symSize: 0x28 }
  - { offsetInCU: 0x617F, offset: 0xE409, size: 0x8, addend: 0x0, symName: __ZNK16BinarySearchTree22traverseInReverseOrderEP4Node, symObjAddr: 0x578, symBinAddr: 0x100001AD8, symSize: 0x80 }
  - { offsetInCU: 0x61B3, offset: 0xE43D, size: 0x8, addend: 0x0, symName: __ZNK16BinarySearchTree22traverseInReverseOrderEv, symObjAddr: 0x5F8, symBinAddr: 0x100001B58, symSize: 0x28 }
  - { offsetInCU: 0x61D9, offset: 0xE463, size: 0x8, addend: 0x0, symName: __ZNK16BinarySearchTree17traversePostOrderEP4Node, symObjAddr: 0x620, symBinAddr: 0x100001B80, symSize: 0x80 }
  - { offsetInCU: 0x620D, offset: 0xE497, size: 0x8, addend: 0x0, symName: __Z3maxii, symObjAddr: 0x6A0, symBinAddr: 0x100001C00, symSize: 0x48 }
  - { offsetInCU: 0x6247, offset: 0xE4D1, size: 0x8, addend: 0x0, symName: __ZNK16BinarySearchTree17traversePostOrderEv, symObjAddr: 0x6E8, symBinAddr: 0x100001C48, symSize: 0x28 }
  - { offsetInCU: 0x626D, offset: 0xE4F7, size: 0x8, addend: 0x0, symName: __ZNK16BinarySearchTree9getHeightEPK4Node, symObjAddr: 0x710, symBinAddr: 0x100001C70, symSize: 0xC4 }
  - { offsetInCU: 0x62A1, offset: 0xE52B, size: 0x8, addend: 0x0, symName: __ZNK16BinarySearchTree9getHeightEv, symObjAddr: 0x7D4, symBinAddr: 0x100001D34, symSize: 0x28 }
  - { offsetInCU: 0x62C7, offset: 0xE551, size: 0x8, addend: 0x0, symName: __ZNK16BinarySearchTree10getMinimumEPK4Node, symObjAddr: 0x7FC, symBinAddr: 0x100001D5C, symSize: 0x6C }
  - { offsetInCU: 0x62FB, offset: 0xE585, size: 0x8, addend: 0x0, symName: __ZNK16BinarySearchTree10getMinimumEv, symObjAddr: 0x868, symBinAddr: 0x100001DC8, symSize: 0x28 }
  - { offsetInCU: 0x6321, offset: 0xE5AB, size: 0x8, addend: 0x0, symName: __Z3minii, symObjAddr: 0x890, symBinAddr: 0x100001DF0, symSize: 0x48 }
  - { offsetInCU: 0x635B, offset: 0xE5E5, size: 0x8, addend: 0x0, symName: __ZNK16BinarySearchTree19getMinimumUnorderedEPK4Node, symObjAddr: 0x8D8, symBinAddr: 0x100001E38, symSize: 0x94 }
  - { offsetInCU: 0x638F, offset: 0xE619, size: 0x8, addend: 0x0, symName: __ZNK16BinarySearchTree19getMinimumUnorderedEv, symObjAddr: 0x96C, symBinAddr: 0x100001ECC, symSize: 0x28 }
  - { offsetInCU: 0x63B5, offset: 0xE63F, size: 0x8, addend: 0x0, symName: __ZNK16BinarySearchTree11isIdenticalEPK4NodeS2_, symObjAddr: 0x994, symBinAddr: 0x100001EF4, symSize: 0x130 }
  - { offsetInCU: 0x63F7, offset: 0xE681, size: 0x8, addend: 0x0, symName: __ZNK16BinarySearchTree11isIdenticalEPKS_, symObjAddr: 0xAC4, symBinAddr: 0x100002024, symSize: 0x38 }
  - { offsetInCU: 0x642B, offset: 0xE6B5, size: 0x8, addend: 0x0, symName: __ZNK16BinarySearchTree12validateNodeEPK4Nodeii, symObjAddr: 0xAFC, symBinAddr: 0x10000205C, symSize: 0x118 }
  - { offsetInCU: 0x647B, offset: 0xE705, size: 0x8, addend: 0x0, symName: __ZNK16BinarySearchTree18isBinarySearchTreeEv, symObjAddr: 0xC14, symBinAddr: 0x100002174, symSize: 0x34 }
  - { offsetInCU: 0x64A1, offset: 0xE72B, size: 0x8, addend: 0x0, symName: __ZN16BinarySearchTree8swapRootEv, symObjAddr: 0xC48, symBinAddr: 0x1000021A8, symSize: 0x34 }
  - { offsetInCU: 0x64D7, offset: 0xE761, size: 0x8, addend: 0x0, symName: __ZNK16BinarySearchTree10getKthNodeEPK4Nodei, symObjAddr: 0xC7C, symBinAddr: 0x1000021DC, symSize: 0xE4 }
  - { offsetInCU: 0x6519, offset: 0xE7A3, size: 0x8, addend: 0x0, symName: __ZNK16BinarySearchTree10getKthNodeEi, symObjAddr: 0xDA8, symBinAddr: 0x1000022C0, symSize: 0x44 }
  - { offsetInCU: 0x654D, offset: 0xE7D7, size: 0x8, addend: 0x0, symName: __ZNK16BinarySearchTree22levelOrderTreeTraverseEv, symObjAddr: 0xE70, symBinAddr: 0x100002304, symSize: 0x70 }
  - { offsetInCU: 0x5B96, offset: 0x143D4, size: 0x8, addend: 0x0, symName: __ZNSt3__119__debug_db_insert_cB7v160006INS_6vectorIiNS_9allocatorIiEEEEEEvPT_, symObjAddr: 0xC5C, symBinAddr: 0x100002FC4, symSize: 0x10 }
  - { offsetInCU: 0x5BC7, offset: 0x14405, size: 0x8, addend: 0x0, symName: __ZNSt3__112__to_addressB7v160006IiEEPT_S2_, symObjAddr: 0xF90, symBinAddr: 0x1000032F8, symSize: 0x14 }
  - { offsetInCU: 0x5C23, offset: 0x14461, size: 0x8, addend: 0x0, symName: __ZNSt3__112construct_atB7v160006IiJRKiEPiEEPT_S5_DpOT0_, symObjAddr: 0x1014, symBinAddr: 0x10000337C, symSize: 0x2C }
  - { offsetInCU: 0x5C98, offset: 0x144D6, size: 0x8, addend: 0x0, symName: __ZNSt3__13maxB7v160006ImEERKT_S3_S3_, symObjAddr: 0x13B8, symBinAddr: 0x100003720, symSize: 0x2C }
  - { offsetInCU: 0x5CDB, offset: 0x14519, size: 0x8, addend: 0x0, symName: __ZNSt3__13minB7v160006ImEERKT_S3_S3_, symObjAddr: 0x13E4, symBinAddr: 0x10000374C, symSize: 0x2C }
  - { offsetInCU: 0x5F08, offset: 0x14746, size: 0x8, addend: 0x0, symName: __ZNSt3__13minB7v160006ImNS_6__lessImmEEEERKT_S5_S5_T0_, symObjAddr: 0x1474, symBinAddr: 0x1000037DC, symSize: 0x54 }
  - { offsetInCU: 0x618A, offset: 0x149C8, size: 0x8, addend: 0x0, symName: __ZNSt3__120__throw_length_errorB7v160006EPKc, symObjAddr: 0x1558, symBinAddr: 0x1000038C0, symSize: 0x64 }
  - { offsetInCU: 0x61B3, offset: 0x149F1, size: 0x8, addend: 0x0, symName: __ZNSt3__13maxB7v160006ImNS_6__lessImmEEEERKT_S5_S5_T0_, symObjAddr: 0x169C, symBinAddr: 0x100003A04, symSize: 0x54 }
  - { offsetInCU: 0x620D, offset: 0x14A4B, size: 0x8, addend: 0x0, symName: __ZNSt3__119__allocate_at_leastB7v160006INS_9allocatorIiEEEENS_19__allocation_resultINS_16allocator_traitsIT_E7pointerEEERS5_m, symObjAddr: 0x1800, symBinAddr: 0x100003B68, symSize: 0x40 }
  - { offsetInCU: 0x6250, offset: 0x14A8E, size: 0x8, addend: 0x0, symName: __ZNSt3__117__libcpp_allocateB7v160006Emm, symObjAddr: 0x1984, symBinAddr: 0x100003CEC, symSize: 0x60 }
  - { offsetInCU: 0x62AB, offset: 0x14AE9, size: 0x8, addend: 0x0, symName: __ZNSt3__124__is_overaligned_for_newB7v160006Em, symObjAddr: 0x19E4, symBinAddr: 0x100003D4C, symSize: 0x20 }
  - { offsetInCU: 0x62DA, offset: 0x14B18, size: 0x8, addend: 0x0, symName: __ZNSt3__121__libcpp_operator_newB7v160006IJmSt11align_val_tEEEPvDpT_, symObjAddr: 0x1A04, symBinAddr: 0x100003D6C, symSize: 0x2C }
  - { offsetInCU: 0x632A, offset: 0x14B68, size: 0x8, addend: 0x0, symName: __ZNSt3__121__libcpp_operator_newB7v160006IJmEEEPvDpT_, symObjAddr: 0x1A30, symBinAddr: 0x100003D98, symSize: 0x24 }
  - { offsetInCU: 0x6365, offset: 0x14BA3, size: 0x8, addend: 0x0, symName: __ZNSt3__142__uninitialized_allocator_move_if_noexceptB7v160006INS_9allocatorIiEENS_16reverse_iteratorIPiEES5_ivEET1_RT_T0_S9_S6_, symObjAddr: 0x1B70, symBinAddr: 0x100003ED8, symSize: 0x78 }
  - { offsetInCU: 0x63E4, offset: 0x14C22, size: 0x8, addend: 0x0, symName: __ZNSt3__14swapB7v160006IPiEENS_9enable_ifIXaasr21is_move_constructibleIT_EE5valuesr18is_move_assignableIS3_EE5valueEvE4typeERS3_S6_, symObjAddr: 0x1C34, symBinAddr: 0x100003F9C, symSize: 0x3C }
  - { offsetInCU: 0x6436, offset: 0x14C74, size: 0x8, addend: 0x0, symName: __ZNSt3__125__debug_db_invalidate_allB7v160006INS_6vectorIiNS_9allocatorIiEEEEEEvPT_, symObjAddr: 0x1D1C, symBinAddr: 0x100004084, symSize: 0x10 }
  - { offsetInCU: 0x6467, offset: 0x14CA5, size: 0x8, addend: 0x0, symName: __ZNSt3__14moveB7v160006INS_16reverse_iteratorIPiEES3_EET0_T_S5_S4_, symObjAddr: 0x1D74, symBinAddr: 0x1000040DC, symSize: 0x78 }
  - { offsetInCU: 0x64C1, offset: 0x14CFF, size: 0x8, addend: 0x0, symName: __ZNSt3__16__moveB7v160006INS_17_ClassicAlgPolicyENS_16reverse_iteratorIPiEES4_S4_EENS_4pairIT0_T2_EES6_T1_S7_, symObjAddr: 0x1DEC, symBinAddr: 0x100004154, symSize: 0x64 }
  - { offsetInCU: 0x652D, offset: 0x14D6B, size: 0x8, addend: 0x0, symName: __ZNSt3__123__dispatch_copy_or_moveB7v160006INS_17_ClassicAlgPolicyENS_11__move_loopIS1_EENS_14__move_trivialENS_16reverse_iteratorIPiEES7_S7_EENS_4pairIT2_T4_EES9_T3_SA_, symObjAddr: 0x1E50, symBinAddr: 0x1000041B8, symSize: 0x64 }
  - { offsetInCU: 0x65AB, offset: 0x14DE9, size: 0x8, addend: 0x0, symName: __ZNSt3__121__unwrap_and_dispatchB7v160006INS_10__overloadINS_11__move_loopINS_17_ClassicAlgPolicyEEENS_14__move_trivialEEENS_16reverse_iteratorIPiEES9_S9_Li0EEENS_4pairIT0_T2_EESB_T1_SC_, symObjAddr: 0x1EB4, symBinAddr: 0x10000421C, symSize: 0x12C }
  - { offsetInCU: 0x663E, offset: 0x14E7C, size: 0x8, addend: 0x0, symName: __ZNSt3__114__unwrap_rangeB7v160006INS_16reverse_iteratorIPiEES3_EEDaT_T0_, symObjAddr: 0x1FE0, symBinAddr: 0x100004348, symSize: 0x4C }
  - { offsetInCU: 0x67BA, offset: 0x14FF8, size: 0x8, addend: 0x0, symName: __ZNSt3__113__unwrap_iterB7v160006INS_16reverse_iteratorIPiEENS_18__unwrap_iter_implIS3_Lb0EEELi0EEEDTclsrT0_8__unwrapclsr3stdE7declvalIT_EEEES7_, symObjAddr: 0x20CC, symBinAddr: 0x100004434, symSize: 0x44 }
  - { offsetInCU: 0x67FF, offset: 0x1503D, size: 0x8, addend: 0x0, symName: __ZNSt3__19make_pairB7v160006INS_16reverse_iteratorIPiEES3_EENS_4pairINS_18__unwrap_ref_decayIT_E4typeENS5_IT0_E4typeEEEOS6_OS9_, symObjAddr: 0x2110, symBinAddr: 0x100004478, symSize: 0x38 }
  - { offsetInCU: 0x684E, offset: 0x1508C, size: 0x8, addend: 0x0, symName: __ZNSt3__114__rewrap_rangeB7v160006INS_16reverse_iteratorIPiEES3_S3_EET0_S4_T1_, symObjAddr: 0x2148, symBinAddr: 0x1000044B0, symSize: 0x5C }
  - { offsetInCU: 0x68A3, offset: 0x150E1, size: 0x8, addend: 0x0, symName: __ZNSt3__113__rewrap_iterB7v160006INS_16reverse_iteratorIPiEES3_NS_18__unwrap_iter_implIS3_Lb0EEEEET_S6_T0_, symObjAddr: 0x21A4, symBinAddr: 0x10000450C, symSize: 0x74 }
  - { offsetInCU: 0x6948, offset: 0x15186, size: 0x8, addend: 0x0, symName: __ZNSt3__1neB7v160006IPiS1_EEbRKNS_16reverse_iteratorIT_EERKNS2_IT0_EE, symObjAddr: 0x230C, symBinAddr: 0x100004674, symSize: 0x48 }
  - { offsetInCU: 0x6A48, offset: 0x15286, size: 0x8, addend: 0x0, symName: __ZNSt3__110destroy_atB7v160006IiLi0EEEvPT_, symObjAddr: 0x2698, symBinAddr: 0x100004A00, symSize: 0x24 }
  - { offsetInCU: 0x6A81, offset: 0x152BF, size: 0x8, addend: 0x0, symName: __ZNSt3__112__destroy_atB7v160006IiLi0EEEvPT_, symObjAddr: 0x26BC, symBinAddr: 0x100004A24, symSize: 0x10 }
  - { offsetInCU: 0x6AB9, offset: 0x152F7, size: 0x8, addend: 0x0, symName: __ZNSt3__119__libcpp_deallocateB7v160006EPvmm, symObjAddr: 0x270C, symBinAddr: 0x100004A74, symSize: 0x60 }
  - { offsetInCU: 0x6B20, offset: 0x1535E, size: 0x8, addend: 0x0, symName: __ZNSt3__127__do_deallocate_handle_sizeB7v160006IJSt11align_val_tEEEvPvmDpT_, symObjAddr: 0x276C, symBinAddr: 0x100004AD4, symSize: 0x30 }
  - { offsetInCU: 0x6B76, offset: 0x153B4, size: 0x8, addend: 0x0, symName: __ZNSt3__127__do_deallocate_handle_sizeB7v160006IJEEEvPvmDpT_, symObjAddr: 0x279C, symBinAddr: 0x100004B04, symSize: 0x28 }
  - { offsetInCU: 0x6BB6, offset: 0x153F4, size: 0x8, addend: 0x0, symName: __ZNSt3__124__libcpp_operator_deleteB7v160006IJPvSt11align_val_tEEEvDpT_, symObjAddr: 0x27C4, symBinAddr: 0x100004B2C, symSize: 0x2C }
  - { offsetInCU: 0x6C03, offset: 0x15441, size: 0x8, addend: 0x0, symName: __ZNSt3__124__libcpp_operator_deleteB7v160006IJPvEEEvDpT_, symObjAddr: 0x27F0, symBinAddr: 0x100004B58, symSize: 0x24 }
  - { offsetInCU: 0x6C3B, offset: 0x15479, size: 0x8, addend: 0x0, symName: __ZNSt3__118__debug_db_erase_cB7v160006INS_6vectorIiNS_9allocatorIiEEEEEEvPT_, symObjAddr: 0x2994, symBinAddr: 0x100004CFC, symSize: 0x10 }
  - { offsetInCU: 0x6F0E, offset: 0x1574C, size: 0x8, addend: 0x0, symName: __ZSt28__throw_bad_array_new_lengthB7v160006v, symObjAddr: 0x1950, symBinAddr: 0x100003CB8, symSize: 0x34 }
  - { offsetInCU: 0x72AF, offset: 0x15AED, size: 0x8, addend: 0x0, symName: __ZNSt3__16vectorIiNS_9allocatorIiEEE26__swap_out_circular_bufferERNS_14__split_bufferIiRS2_EE, symObjAddr: 0x11B8, symBinAddr: 0x100003520, symSize: 0x118 }
  - { offsetInCU: 0x9183, offset: 0x179C1, size: 0x8, addend: 0x0, symName: __ZN4NodeC2EiPS_S0_, symObjAddr: 0x0, symBinAddr: 0x100002374, symSize: 0x38 }
  - { offsetInCU: 0x91D8, offset: 0x17A16, size: 0x8, addend: 0x0, symName: __ZN4NodeC1EiPS_S0_, symObjAddr: 0x38, symBinAddr: 0x1000023AC, symSize: 0x44 }
  - { offsetInCU: 0x9346, offset: 0x17B84, size: 0x8, addend: 0x0, symName: __ZN16DoublyLinkedListC2Ei, symObjAddr: 0x7C, symBinAddr: 0x1000023F0, symSize: 0x50 }
  - { offsetInCU: 0x937E, offset: 0x17BBC, size: 0x8, addend: 0x0, symName: __ZN16DoublyLinkedListC1Ei, symObjAddr: 0xCC, symBinAddr: 0x100002440, symSize: 0x34 }
  - { offsetInCU: 0x93B6, offset: 0x17BF4, size: 0x8, addend: 0x0, symName: __ZN16DoublyLinkedListC2Ev, symObjAddr: 0x100, symBinAddr: 0x100002474, symSize: 0x18 }
  - { offsetInCU: 0x93E1, offset: 0x17C1F, size: 0x8, addend: 0x0, symName: __ZN16DoublyLinkedListC1Ev, symObjAddr: 0x118, symBinAddr: 0x10000248C, symSize: 0x2C }
  - { offsetInCU: 0x940B, offset: 0x17C49, size: 0x8, addend: 0x0, symName: __ZN16DoublyLinkedListD2Ev, symObjAddr: 0x144, symBinAddr: 0x1000024B8, symSize: 0x5C }
  - { offsetInCU: 0x9435, offset: 0x17C73, size: 0x8, addend: 0x0, symName: __ZN16DoublyLinkedListD1Ev, symObjAddr: 0x1A0, symBinAddr: 0x100002514, symSize: 0x2C }
  - { offsetInCU: 0x945F, offset: 0x17C9D, size: 0x8, addend: 0x0, symName: __ZN16DoublyLinkedList8addFirstEi, symObjAddr: 0x1CC, symBinAddr: 0x100002540, symSize: 0xC4 }
  - { offsetInCU: 0x94B1, offset: 0x17CEF, size: 0x8, addend: 0x0, symName: __ZNK16DoublyLinkedList7toArrayEv, symObjAddr: 0x290, symBinAddr: 0x100002604, symSize: 0x100 }
  - { offsetInCU: 0x94F6, offset: 0x17D34, size: 0x8, addend: 0x0, symName: __ZNSt3__16vectorIiNS_9allocatorIiEEEC1B7v160006Ev, symObjAddr: 0x390, symBinAddr: 0x100002704, symSize: 0x2C }
  - { offsetInCU: 0x951E, offset: 0x17D5C, size: 0x8, addend: 0x0, symName: __ZNSt3__16vectorIiNS_9allocatorIiEEE9push_backB7v160006ERKi, symObjAddr: 0x3BC, symBinAddr: 0x100002730, symSize: 0x6C }
  - { offsetInCU: 0x9553, offset: 0x17D91, size: 0x8, addend: 0x0, symName: __ZNSt3__16vectorIiNS_9allocatorIiEEED1B7v160006Ev, symObjAddr: 0x428, symBinAddr: 0x10000279C, symSize: 0x2C }
  - { offsetInCU: 0x957B, offset: 0x17DB9, size: 0x8, addend: 0x0, symName: __ZN16DoublyLinkedList7addLastEi, symObjAddr: 0x454, symBinAddr: 0x1000027C8, symSize: 0x110 }
  - { offsetInCU: 0x95CD, offset: 0x17E0B, size: 0x8, addend: 0x0, symName: __ZNK16DoublyLinkedList11isListEmptyEv, symObjAddr: 0x564, symBinAddr: 0x1000028D8, symSize: 0x24 }
  - { offsetInCU: 0x95F4, offset: 0x17E32, size: 0x8, addend: 0x0, symName: __ZN16DoublyLinkedList11deleteFirstEv, symObjAddr: 0x588, symBinAddr: 0x1000028FC, symSize: 0x13C }
  - { offsetInCU: 0x9629, offset: 0x17E67, size: 0x8, addend: 0x0, symName: __ZN16DoublyLinkedList10deleteLastEv, symObjAddr: 0x6C4, symBinAddr: 0x100002A38, symSize: 0x194 }
  - { offsetInCU: 0x966D, offset: 0x17EAB, size: 0x8, addend: 0x0, symName: __ZNK16DoublyLinkedList8containsEi, symObjAddr: 0x858, symBinAddr: 0x100002BCC, symSize: 0x13C }
  - { offsetInCU: 0x96BF, offset: 0x17EFD, size: 0x8, addend: 0x0, symName: __ZNK16DoublyLinkedList7indexOfEi, symObjAddr: 0x994, symBinAddr: 0x100002D08, symSize: 0x12C }
  - { offsetInCU: 0x9711, offset: 0x17F4F, size: 0x8, addend: 0x0, symName: __ZN16DoublyLinkedList7reverseEv, symObjAddr: 0xAC0, symBinAddr: 0x100002E34, symSize: 0xFC }
  - { offsetInCU: 0x9764, offset: 0x17FA2, size: 0x8, addend: 0x0, symName: __ZNSt3__16vectorIiNS_9allocatorIiEEEC2B7v160006Ev, symObjAddr: 0xBBC, symBinAddr: 0x100002F30, symSize: 0x58 }
  - { offsetInCU: 0x9796, offset: 0x17FD4, size: 0x8, addend: 0x0, symName: __ZNSt3__117__compressed_pairIPiNS_9allocatorIiEEEC1B7v160006IDnNS_18__default_init_tagEEEOT_OT0_, symObjAddr: 0xC14, symBinAddr: 0x100002F88, symSize: 0x3C }
  - { offsetInCU: 0x97EC, offset: 0x1802A, size: 0x8, addend: 0x0, symName: __ZNSt3__117__compressed_pairIPiNS_9allocatorIiEEEC2B7v160006IDnNS_18__default_init_tagEEEOT_OT0_, symObjAddr: 0xC6C, symBinAddr: 0x100002FD4, symSize: 0x40 }
  - { offsetInCU: 0x9842, offset: 0x18080, size: 0x8, addend: 0x0, symName: __ZNSt3__122__compressed_pair_elemIPiLi0ELb0EEC2B7v160006IDnvEEOT_, symObjAddr: 0xCAC, symBinAddr: 0x100003014, symSize: 0x1C }
  - { offsetInCU: 0x9883, offset: 0x180C1, size: 0x8, addend: 0x0, symName: __ZNSt3__122__compressed_pair_elemINS_9allocatorIiEELi1ELb1EEC2B7v160006ENS_18__default_init_tagE, symObjAddr: 0xCC8, symBinAddr: 0x100003030, symSize: 0x2C }
  - { offsetInCU: 0x98B5, offset: 0x180F3, size: 0x8, addend: 0x0, symName: __ZNSt3__19allocatorIiEC2B7v160006Ev, symObjAddr: 0xCF4, symBinAddr: 0x10000305C, symSize: 0x2C }
  - { offsetInCU: 0x98DD, offset: 0x1811B, size: 0x8, addend: 0x0, symName: __ZNSt3__116__non_trivial_ifILb1ENS_9allocatorIiEEEC2B7v160006Ev, symObjAddr: 0xD20, symBinAddr: 0x100003088, symSize: 0x14 }
  - { offsetInCU: 0x9905, offset: 0x18143, size: 0x8, addend: 0x0, symName: __ZNSt3__16vectorIiNS_9allocatorIiEEE9__end_capB7v160006Ev, symObjAddr: 0xD34, symBinAddr: 0x10000309C, symSize: 0x28 }
  - { offsetInCU: 0x992E, offset: 0x1816C, size: 0x8, addend: 0x0, symName: __ZNSt3__16vectorIiNS_9allocatorIiEEE22__construct_one_at_endB7v160006IJRKiEEEvDpOT_, symObjAddr: 0xD5C, symBinAddr: 0x1000030C4, symSize: 0x90 }
  - { offsetInCU: 0x997D, offset: 0x181BB, size: 0x8, addend: 0x0, symName: __ZNSt3__16vectorIiNS_9allocatorIiEEE21__push_back_slow_pathIRKiEEvOT_, symObjAddr: 0xDEC, symBinAddr: 0x100003154, symSize: 0xD8 }
  - { offsetInCU: 0x99D9, offset: 0x18217, size: 0x8, addend: 0x0, symName: __ZNSt3__117__compressed_pairIPiNS_9allocatorIiEEE5firstB7v160006Ev, symObjAddr: 0xEC4, symBinAddr: 0x10000322C, symSize: 0x24 }
  - { offsetInCU: 0x99FD, offset: 0x1823B, size: 0x8, addend: 0x0, symName: __ZNSt3__122__compressed_pair_elemIPiLi0ELb0EE5__getB7v160006Ev, symObjAddr: 0xEE8, symBinAddr: 0x100003250, symSize: 0x14 }
  - { offsetInCU: 0x9A3A, offset: 0x18278, size: 0x8, addend: 0x0, symName: __ZNSt3__16vectorIiNS_9allocatorIiEEE21_ConstructTransactionC1B7v160006ERS3_m, symObjAddr: 0xEFC, symBinAddr: 0x100003264, symSize: 0x3C }
  - { offsetInCU: 0x9A80, offset: 0x182BE, size: 0x8, addend: 0x0, symName: __ZNSt3__116allocator_traitsINS_9allocatorIiEEE9constructB7v160006IiJRKiEvvEEvRS2_PT_DpOT0_, symObjAddr: 0xF38, symBinAddr: 0x1000032A0, symSize: 0x30 }
  - { offsetInCU: 0x9AD8, offset: 0x18316, size: 0x8, addend: 0x0, symName: __ZNSt3__16vectorIiNS_9allocatorIiEEE7__allocB7v160006Ev, symObjAddr: 0xF68, symBinAddr: 0x1000032D0, symSize: 0x28 }
  - { offsetInCU: 0x9AFC, offset: 0x1833A, size: 0x8, addend: 0x0, symName: __ZNSt3__16vectorIiNS_9allocatorIiEEE21_ConstructTransactionD1B7v160006Ev, symObjAddr: 0xFA4, symBinAddr: 0x10000330C, symSize: 0x2C }
  - { offsetInCU: 0x9B24, offset: 0x18362, size: 0x8, addend: 0x0, symName: __ZNSt3__16vectorIiNS_9allocatorIiEEE21_ConstructTransactionC2B7v160006ERS3_m, symObjAddr: 0xFD0, symBinAddr: 0x100003338, symSize: 0x44 }
  - { offsetInCU: 0x9B6A, offset: 0x183A8, size: 0x8, addend: 0x0, symName: __ZNSt3__117__compressed_pairIPiNS_9allocatorIiEEE6secondB7v160006Ev, symObjAddr: 0x1040, symBinAddr: 0x1000033A8, symSize: 0x24 }
  - { offsetInCU: 0x9B8E, offset: 0x183CC, size: 0x8, addend: 0x0, symName: __ZNSt3__122__compressed_pair_elemINS_9allocatorIiEELi1ELb1EE5__getB7v160006Ev, symObjAddr: 0x1064, symBinAddr: 0x1000033CC, symSize: 0x14 }
  - { offsetInCU: 0x9BB2, offset: 0x183F0, size: 0x8, addend: 0x0, symName: __ZNSt3__16vectorIiNS_9allocatorIiEEE21_ConstructTransactionD2B7v160006Ev, symObjAddr: 0x1078, symBinAddr: 0x1000033E0, symSize: 0x20 }
  - { offsetInCU: 0x9BDA, offset: 0x18418, size: 0x8, addend: 0x0, symName: __ZNKSt3__16vectorIiNS_9allocatorIiEEE11__recommendB7v160006Em, symObjAddr: 0x1098, symBinAddr: 0x100003400, symSize: 0xB4 }
  - { offsetInCU: 0x9C2D, offset: 0x1846B, size: 0x8, addend: 0x0, symName: __ZNKSt3__16vectorIiNS_9allocatorIiEEE4sizeB7v160006Ev, symObjAddr: 0x114C, symBinAddr: 0x1000034B4, symSize: 0x28 }
  - { offsetInCU: 0x9C51, offset: 0x1848F, size: 0x8, addend: 0x0, symName: __ZNSt3__114__split_bufferIiRNS_9allocatorIiEEEC1EmmS3_, symObjAddr: 0x1174, symBinAddr: 0x1000034DC, symSize: 0x44 }
  - { offsetInCU: 0x9CA6, offset: 0x184E4, size: 0x8, addend: 0x0, symName: __ZNSt3__114__split_bufferIiRNS_9allocatorIiEEED1Ev, symObjAddr: 0x12D0, symBinAddr: 0x100003638, symSize: 0x2C }
  - { offsetInCU: 0x9CD1, offset: 0x1850F, size: 0x8, addend: 0x0, symName: __ZNKSt3__16vectorIiNS_9allocatorIiEEE8max_sizeEv, symObjAddr: 0x12FC, symBinAddr: 0x100003664, symSize: 0x60 }
  - { offsetInCU: 0x9CF7, offset: 0x18535, size: 0x8, addend: 0x0, symName: __ZNKSt3__16vectorIiNS_9allocatorIiEEE20__throw_length_errorB7v160006Ev, symObjAddr: 0x135C, symBinAddr: 0x1000036C4, symSize: 0x1C }
  - { offsetInCU: 0x9D1B, offset: 0x18559, size: 0x8, addend: 0x0, symName: __ZNKSt3__16vectorIiNS_9allocatorIiEEE8capacityB7v160006Ev, symObjAddr: 0x1378, symBinAddr: 0x1000036E0, symSize: 0x40 }
  - { offsetInCU: 0x9D49, offset: 0x18587, size: 0x8, addend: 0x0, symName: __ZNSt3__116allocator_traitsINS_9allocatorIiEEE8max_sizeB7v160006IS2_vvEEmRKS2_, symObjAddr: 0x1410, symBinAddr: 0x100003778, symSize: 0x28 }
  - { offsetInCU: 0x9D76, offset: 0x185B4, size: 0x8, addend: 0x0, symName: __ZNKSt3__16vectorIiNS_9allocatorIiEEE7__allocB7v160006Ev, symObjAddr: 0x1438, symBinAddr: 0x1000037A0, symSize: 0x28 }
  - { offsetInCU: 0x9D9A, offset: 0x185D8, size: 0x8, addend: 0x0, symName: __ZNSt3__114numeric_limitsIlE3maxB7v160006Ev, symObjAddr: 0x1460, symBinAddr: 0x1000037C8, symSize: 0x14 }
  - { offsetInCU: 0x9DC2, offset: 0x18600, size: 0x8, addend: 0x0, symName: __ZNKSt3__16__lessImmEclB7v160006ERKmS3_, symObjAddr: 0x14C8, symBinAddr: 0x100003830, symSize: 0x34 }
  - { offsetInCU: 0x9E02, offset: 0x18640, size: 0x8, addend: 0x0, symName: __ZNSt3__114numeric_limitsImE3maxB7v160006Ev, symObjAddr: 0x14FC, symBinAddr: 0x100003864, symSize: 0x14 }
  - { offsetInCU: 0x9E16, offset: 0x18654, size: 0x8, addend: 0x0, symName: __ZNSt3__123__libcpp_numeric_limitsImLb1EE3maxB7v160006Ev, symObjAddr: 0x1510, symBinAddr: 0x100003878, symSize: 0x8 }
  - { offsetInCU: 0x9E29, offset: 0x18667, size: 0x8, addend: 0x0, symName: __ZNKSt3__117__compressed_pairIPiNS_9allocatorIiEEE6secondB7v160006Ev, symObjAddr: 0x1518, symBinAddr: 0x100003880, symSize: 0x24 }
  - { offsetInCU: 0x9E4D, offset: 0x1868B, size: 0x8, addend: 0x0, symName: __ZNKSt3__122__compressed_pair_elemINS_9allocatorIiEELi1ELb1EE5__getB7v160006Ev, symObjAddr: 0x153C, symBinAddr: 0x1000038A4, symSize: 0x14 }
  - { offsetInCU: 0x9E71, offset: 0x186AF, size: 0x8, addend: 0x0, symName: __ZNSt3__123__libcpp_numeric_limitsIlLb1EE3maxB7v160006Ev, symObjAddr: 0x1550, symBinAddr: 0x1000038B8, symSize: 0x8 }
  - { offsetInCU: 0x9E84, offset: 0x186C2, size: 0x8, addend: 0x0, symName: __ZNSt12length_errorC1B7v160006EPKc, symObjAddr: 0x15BC, symBinAddr: 0x100003924, symSize: 0x34 }
  - { offsetInCU: 0x9EBA, offset: 0x186F8, size: 0x8, addend: 0x0, symName: __ZNSt12length_errorC2B7v160006EPKc, symObjAddr: 0x15F0, symBinAddr: 0x100003958, symSize: 0x4C }
  - { offsetInCU: 0x9EF0, offset: 0x1872E, size: 0x8, addend: 0x0, symName: __ZNKSt3__16vectorIiNS_9allocatorIiEEE9__end_capB7v160006Ev, symObjAddr: 0x163C, symBinAddr: 0x1000039A4, symSize: 0x28 }
  - { offsetInCU: 0x9F14, offset: 0x18752, size: 0x8, addend: 0x0, symName: __ZNKSt3__117__compressed_pairIPiNS_9allocatorIiEEE5firstB7v160006Ev, symObjAddr: 0x1664, symBinAddr: 0x1000039CC, symSize: 0x24 }
  - { offsetInCU: 0x9F38, offset: 0x18776, size: 0x8, addend: 0x0, symName: __ZNKSt3__122__compressed_pair_elemIPiLi0ELb0EE5__getB7v160006Ev, symObjAddr: 0x1688, symBinAddr: 0x1000039F0, symSize: 0x14 }
  - { offsetInCU: 0x9F5C, offset: 0x1879A, size: 0x8, addend: 0x0, symName: __ZNSt3__114__split_bufferIiRNS_9allocatorIiEEEC2EmmS3_, symObjAddr: 0x16F0, symBinAddr: 0x100003A58, symSize: 0xD4 }
  - { offsetInCU: 0x9FCF, offset: 0x1880D, size: 0x8, addend: 0x0, symName: __ZNSt3__117__compressed_pairIPiRNS_9allocatorIiEEEC1B7v160006IDnS4_EEOT_OT0_, symObjAddr: 0x17C4, symBinAddr: 0x100003B2C, symSize: 0x3C }
  - { offsetInCU: 0xA025, offset: 0x18863, size: 0x8, addend: 0x0, symName: __ZNSt3__114__split_bufferIiRNS_9allocatorIiEEE7__allocB7v160006Ev, symObjAddr: 0x1840, symBinAddr: 0x100003BA8, symSize: 0x28 }
  - { offsetInCU: 0xA049, offset: 0x18887, size: 0x8, addend: 0x0, symName: __ZNSt3__114__split_bufferIiRNS_9allocatorIiEEE9__end_capB7v160006Ev, symObjAddr: 0x1868, symBinAddr: 0x100003BD0, symSize: 0x28 }
  - { offsetInCU: 0xA06D, offset: 0x188AB, size: 0x8, addend: 0x0, symName: __ZNSt3__117__compressed_pairIPiRNS_9allocatorIiEEEC2B7v160006IDnS4_EEOT_OT0_, symObjAddr: 0x1890, symBinAddr: 0x100003BF8, symSize: 0x48 }
  - { offsetInCU: 0xA0C3, offset: 0x18901, size: 0x8, addend: 0x0, symName: __ZNSt3__122__compressed_pair_elemIRNS_9allocatorIiEELi1ELb0EEC2B7v160006IS3_vEEOT_, symObjAddr: 0x18D8, symBinAddr: 0x100003C40, symSize: 0x20 }
  - { offsetInCU: 0xA104, offset: 0x18942, size: 0x8, addend: 0x0, symName: __ZNSt3__19allocatorIiE8allocateB7v160006Em, symObjAddr: 0x18F8, symBinAddr: 0x100003C60, symSize: 0x58 }
  - { offsetInCU: 0xA136, offset: 0x18974, size: 0x8, addend: 0x0, symName: __ZNSt3__117__compressed_pairIPiRNS_9allocatorIiEEE6secondB7v160006Ev, symObjAddr: 0x1A54, symBinAddr: 0x100003DBC, symSize: 0x28 }
  - { offsetInCU: 0xA15A, offset: 0x18998, size: 0x8, addend: 0x0, symName: __ZNSt3__122__compressed_pair_elemIRNS_9allocatorIiEELi1ELb0EE5__getB7v160006Ev, symObjAddr: 0x1A7C, symBinAddr: 0x100003DE4, symSize: 0x18 }
  - { offsetInCU: 0xA17E, offset: 0x189BC, size: 0x8, addend: 0x0, symName: __ZNSt3__117__compressed_pairIPiRNS_9allocatorIiEEE5firstB7v160006Ev, symObjAddr: 0x1A94, symBinAddr: 0x100003DFC, symSize: 0x24 }
  - { offsetInCU: 0xA1A2, offset: 0x189E0, size: 0x8, addend: 0x0, symName: __ZNKSt3__16vectorIiNS_9allocatorIiEEE17__annotate_deleteB7v160006Ev, symObjAddr: 0x1AB8, symBinAddr: 0x100003E20, symSize: 0xB8 }
  - { offsetInCU: 0xA1C6, offset: 0x18A04, size: 0x8, addend: 0x0, symName: __ZNSt3__116reverse_iteratorIPiEC1B7v160006ES1_, symObjAddr: 0x1BE8, symBinAddr: 0x100003F50, symSize: 0x34 }
  - { offsetInCU: 0xA1FC, offset: 0x18A3A, size: 0x8, addend: 0x0, symName: __ZNKSt3__116reverse_iteratorIPiE4baseB7v160006Ev, symObjAddr: 0x1C1C, symBinAddr: 0x100003F84, symSize: 0x18 }
  - { offsetInCU: 0xA220, offset: 0x18A5E, size: 0x8, addend: 0x0, symName: __ZNKSt3__16vectorIiNS_9allocatorIiEEE14__annotate_newB7v160006Em, symObjAddr: 0x1C70, symBinAddr: 0x100003FD8, symSize: 0xAC }
  - { offsetInCU: 0xA253, offset: 0x18A91, size: 0x8, addend: 0x0, symName: __ZNKSt3__16vectorIiNS_9allocatorIiEEE31__annotate_contiguous_containerB7v160006EPKvS5_S5_S5_, symObjAddr: 0x1D2C, symBinAddr: 0x100004094, symSize: 0x20 }
  - { offsetInCU: 0xA2A7, offset: 0x18AE5, size: 0x8, addend: 0x0, symName: __ZNKSt3__16vectorIiNS_9allocatorIiEEE4dataB7v160006Ev, symObjAddr: 0x1D4C, symBinAddr: 0x1000040B4, symSize: 0x28 }
  - { offsetInCU: 0xA2EE, offset: 0x18B2C, size: 0x8, addend: 0x0, symName: __ZNKSt3__111__move_loopINS_17_ClassicAlgPolicyEEclB7v160006INS_16reverse_iteratorIPiEES6_S6_EENS_4pairIT_T1_EES8_T0_S9_, symObjAddr: 0x202C, symBinAddr: 0x100004394, symSize: 0xA0 }
  - { offsetInCU: 0xA357, offset: 0x18B95, size: 0x8, addend: 0x0, symName: __ZNSt3__119__unwrap_range_implINS_16reverse_iteratorIPiEES3_E8__unwrapB7v160006ES3_S3_, symObjAddr: 0x2218, symBinAddr: 0x100004580, symSize: 0x84 }
  - { offsetInCU: 0xA38C, offset: 0x18BCA, size: 0x8, addend: 0x0, symName: __ZNSt3__14pairINS_16reverse_iteratorIPiEES3_EC1B7v160006IS3_S3_LPv0EEEOT_OT0_, symObjAddr: 0x229C, symBinAddr: 0x100004604, symSize: 0x3C }
  - { offsetInCU: 0xA3E9, offset: 0x18C27, size: 0x8, addend: 0x0, symName: __ZNSt3__14pairINS_16reverse_iteratorIPiEES3_EC2B7v160006IS3_S3_LPv0EEEOT_OT0_, symObjAddr: 0x22D8, symBinAddr: 0x100004640, symSize: 0x34 }
  - { offsetInCU: 0xA44B, offset: 0x18C89, size: 0x8, addend: 0x0, symName: __ZNSt3__18_IterOpsINS_17_ClassicAlgPolicyEE11__iter_moveB7v160006IRNS_16reverse_iteratorIPiEEEENS_9enable_ifIXsr12is_referenceIDTdeclsr3stdE7declvalIRT_EEEEE5valueEDTclsr3stdE4movedeclsr3stdE7declvalISA_EEEEE4typeEOS9_, symObjAddr: 0x2354, symBinAddr: 0x1000046BC, symSize: 0x28 }
  - { offsetInCU: 0xA476, offset: 0x18CB4, size: 0x8, addend: 0x0, symName: __ZNKSt3__116reverse_iteratorIPiEdeB7v160006Ev, symObjAddr: 0x237C, symBinAddr: 0x1000046E4, symSize: 0x28 }
  - { offsetInCU: 0xA4A9, offset: 0x18CE7, size: 0x8, addend: 0x0, symName: __ZNSt3__116reverse_iteratorIPiEppB7v160006Ev, symObjAddr: 0x23A4, symBinAddr: 0x10000470C, symSize: 0x20 }
  - { offsetInCU: 0xA4CD, offset: 0x18D0B, size: 0x8, addend: 0x0, symName: __ZNSt3__18_IterOpsINS_17_ClassicAlgPolicyEE25__validate_iter_referenceB7v160006IRNS_16reverse_iteratorIPiEEEEvv, symObjAddr: 0x23C4, symBinAddr: 0x10000472C, symSize: 0x4 }
  - { offsetInCU: 0xA4EA, offset: 0x18D28, size: 0x8, addend: 0x0, symName: __ZNSt3__118__unwrap_iter_implINS_16reverse_iteratorIPiEELb0EE8__unwrapB7v160006ES3_, symObjAddr: 0x23C8, symBinAddr: 0x100004730, symSize: 0x24 }
  - { offsetInCU: 0xA50C, offset: 0x18D4A, size: 0x8, addend: 0x0, symName: __ZNSt3__119__unwrap_range_implINS_16reverse_iteratorIPiEES3_E8__rewrapB7v160006ES3_S3_, symObjAddr: 0x23EC, symBinAddr: 0x100004754, symSize: 0x5C }
  - { offsetInCU: 0xA53C, offset: 0x18D7A, size: 0x8, addend: 0x0, symName: __ZNSt3__118__unwrap_iter_implINS_16reverse_iteratorIPiEELb0EE8__rewrapB7v160006ES3_S3_, symObjAddr: 0x2448, symBinAddr: 0x1000047B0, symSize: 0x2C }
  - { offsetInCU: 0xA568, offset: 0x18DA6, size: 0x8, addend: 0x0, symName: __ZNSt3__116reverse_iteratorIPiEC2B7v160006ES1_, symObjAddr: 0x2474, symBinAddr: 0x1000047DC, symSize: 0x28 }
  - { offsetInCU: 0xA59E, offset: 0x18DDC, size: 0x8, addend: 0x0, symName: __ZNSt3__114__split_bufferIiRNS_9allocatorIiEEED2Ev, symObjAddr: 0x249C, symBinAddr: 0x100004804, symSize: 0x8C }
  - { offsetInCU: 0xA5C9, offset: 0x18E07, size: 0x8, addend: 0x0, symName: __ZNSt3__114__split_bufferIiRNS_9allocatorIiEEE5clearB7v160006Ev, symObjAddr: 0x2528, symBinAddr: 0x100004890, symSize: 0x28 }
  - { offsetInCU: 0xA5ED, offset: 0x18E2B, size: 0x8, addend: 0x0, symName: __ZNSt3__116allocator_traitsINS_9allocatorIiEEE10deallocateB7v160006ERS2_Pim, symObjAddr: 0x2550, symBinAddr: 0x1000048B8, symSize: 0x34 }
  - { offsetInCU: 0xA62E, offset: 0x18E6C, size: 0x8, addend: 0x0, symName: __ZNKSt3__114__split_bufferIiRNS_9allocatorIiEEE8capacityB7v160006Ev, symObjAddr: 0x2584, symBinAddr: 0x1000048EC, symSize: 0x40 }
  - { offsetInCU: 0xA652, offset: 0x18E90, size: 0x8, addend: 0x0, symName: __ZNSt3__114__split_bufferIiRNS_9allocatorIiEEE17__destruct_at_endB7v160006EPi, symObjAddr: 0x25C4, symBinAddr: 0x10000492C, symSize: 0x2C }
  - { offsetInCU: 0xA684, offset: 0x18EC2, size: 0x8, addend: 0x0, symName: __ZNSt3__114__split_bufferIiRNS_9allocatorIiEEE17__destruct_at_endB7v160006EPiNS_17integral_constantIbLb0EEE, symObjAddr: 0x25F0, symBinAddr: 0x100004958, symSize: 0x80 }
  - { offsetInCU: 0xA6C2, offset: 0x18F00, size: 0x8, addend: 0x0, symName: __ZNSt3__116allocator_traitsINS_9allocatorIiEEE7destroyB7v160006IivvEEvRS2_PT_, symObjAddr: 0x2670, symBinAddr: 0x1000049D8, symSize: 0x28 }
  - { offsetInCU: 0xA6FE, offset: 0x18F3C, size: 0x8, addend: 0x0, symName: __ZNSt3__19allocatorIiE10deallocateB7v160006EPim, symObjAddr: 0x26CC, symBinAddr: 0x100004A34, symSize: 0x40 }
  - { offsetInCU: 0xA73E, offset: 0x18F7C, size: 0x8, addend: 0x0, symName: __ZNKSt3__114__split_bufferIiRNS_9allocatorIiEEE9__end_capB7v160006Ev, symObjAddr: 0x2814, symBinAddr: 0x100004B7C, symSize: 0x28 }
  - { offsetInCU: 0xA762, offset: 0x18FA0, size: 0x8, addend: 0x0, symName: __ZNKSt3__117__compressed_pairIPiRNS_9allocatorIiEEE5firstB7v160006Ev, symObjAddr: 0x283C, symBinAddr: 0x100004BA4, symSize: 0x24 }
  - { offsetInCU: 0xA786, offset: 0x18FC4, size: 0x8, addend: 0x0, symName: __ZNSt3__16vectorIiNS_9allocatorIiEEED2B7v160006Ev, symObjAddr: 0x2860, symBinAddr: 0x100004BC8, symSize: 0x44 }
  - { offsetInCU: 0xA7AE, offset: 0x18FEC, size: 0x8, addend: 0x0, symName: __ZNSt3__16vectorIiNS_9allocatorIiEEE16__destroy_vectorC1ERS3_, symObjAddr: 0x28A4, symBinAddr: 0x100004C0C, symSize: 0x34 }
  - { offsetInCU: 0xA7E5, offset: 0x19023, size: 0x8, addend: 0x0, symName: __ZNSt3__16vectorIiNS_9allocatorIiEEE16__destroy_vectorclB7v160006Ev, symObjAddr: 0x28D8, symBinAddr: 0x100004C40, symSize: 0x9C }
  - { offsetInCU: 0xA809, offset: 0x19047, size: 0x8, addend: 0x0, symName: __ZNSt3__16vectorIiNS_9allocatorIiEEE16__destroy_vectorC2ERS3_, symObjAddr: 0x2974, symBinAddr: 0x100004CDC, symSize: 0x20 }
  - { offsetInCU: 0xA840, offset: 0x1907E, size: 0x8, addend: 0x0, symName: __ZNSt3__16vectorIiNS_9allocatorIiEEE7__clearB7v160006Ev, symObjAddr: 0x29A4, symBinAddr: 0x100004D0C, symSize: 0x28 }
  - { offsetInCU: 0xA864, offset: 0x190A2, size: 0x8, addend: 0x0, symName: __ZNSt3__16vectorIiNS_9allocatorIiEEE22__base_destruct_at_endB7v160006EPi, symObjAddr: 0x29CC, symBinAddr: 0x100004D34, symSize: 0x8C }
  - { offsetInCU: 0x66, offset: 0x191BC, size: 0x8, addend: 0x0, symName: __ZNSt3__16ranges5__cpo9iter_moveE, symObjAddr: 0x10739, symBinAddr: 0x100032294, symSize: 0x0 }
  - { offsetInCU: 0x74C1, offset: 0x20617, size: 0x8, addend: 0x0, symName: __ZNSt3__17advanceB7v160006INS_21__list_const_iteratorIP4NodePvEEllvEEvRT_T0_, symObjAddr: 0x8FDC, symBinAddr: 0x10000D978, symSize: 0x50 }
  - { offsetInCU: 0xE004, offset: 0x2715A, size: 0x8, addend: 0x0, symName: __ZNSt3__1neB7v160006ERKNS_15__list_iteratorIP4NodePvEES6_, symObjAddr: 0x58C, symBinAddr: 0x10000534C, symSize: 0x34 }
  - { offsetInCU: 0xE041, offset: 0x27197, size: 0x8, addend: 0x0, symName: __ZNSt3__1eqB7v160006INS_9allocatorIcEEEEbRKNS_12basic_stringIcNS_11char_traitsIcEET_EES9_, symObjAddr: 0x5EC, symBinAddr: 0x1000053AC, symSize: 0x148 }
  - { offsetInCU: 0xE0B4, offset: 0x2720A, size: 0x8, addend: 0x0, symName: __ZNSt3__1neB7v160006ERKNS_19__hash_map_iteratorINS_15__hash_iteratorIPNS_11__hash_nodeINS_17__hash_value_typeINS_12basic_stringIcNS_11char_traitsIcEENS_9allocatorIcEEEENS_4listIP4NodeNS7_ISC_EEEEEEPvEEEEEESM_, symObjAddr: 0xB3C, symBinAddr: 0x1000058FC, symSize: 0x30 }
  - { offsetInCU: 0xE0F1, offset: 0x27247, size: 0x8, addend: 0x0, symName: __ZNSt3__1lsB7v160006IcNS_11char_traitsIcEENS_9allocatorIcEEEERNS_13basic_ostreamIT_T0_EES9_RKNS_12basic_stringIS6_S7_T1_EE, symObjAddr: 0x16A4, symBinAddr: 0x10000641C, symSize: 0x4C }
  - { offsetInCU: 0xE355, offset: 0x274AB, size: 0x8, addend: 0x0, symName: __ZNSt3__1neB7v160006ERKNS_21__tree_const_iteratorINS_12basic_stringIcNS_11char_traitsIcEENS_9allocatorIcEEEEPNS_11__tree_nodeIS6_PvEElEESD_, symObjAddr: 0x2CE8, symBinAddr: 0x1000079DC, symSize: 0x34 }
  - { offsetInCU: 0xE392, offset: 0x274E8, size: 0x8, addend: 0x0, symName: __ZNSt3__118__debug_db_erase_cB7v160006INS_10__list_impIP4NodeNS_9allocatorIS3_EEEEEEvPT_, symObjAddr: 0x3098, symBinAddr: 0x100007D1C, symSize: 0x10 }
  - { offsetInCU: 0xE3C3, offset: 0x27519, size: 0x8, addend: 0x0, symName: __ZNSt3__125__debug_db_invalidate_allB7v160006INS_10__list_impIP4NodeNS_9allocatorIS3_EEEEEEvPT_, symObjAddr: 0x3238, symBinAddr: 0x100007EB0, symSize: 0x10 }
  - { offsetInCU: 0xE427, offset: 0x2757D, size: 0x8, addend: 0x0, symName: __ZNSt3__110destroy_atB7v160006IP4NodeLi0EEEvPT_, symObjAddr: 0x3364, symBinAddr: 0x100007FDC, symSize: 0x24 }
  - { offsetInCU: 0xE460, offset: 0x275B6, size: 0x8, addend: 0x0, symName: __ZNSt3__112__destroy_atB7v160006IP4NodeLi0EEEvPT_, symObjAddr: 0x3388, symBinAddr: 0x100008000, symSize: 0x10 }
  - { offsetInCU: 0xE498, offset: 0x275EE, size: 0x8, addend: 0x0, symName: __ZNSt3__112__to_addressB7v160006IKcEEPT_S3_, symObjAddr: 0x3598, symBinAddr: 0x1000080E8, symSize: 0x14 }
  - { offsetInCU: 0xE500, offset: 0x27656, size: 0x8, addend: 0x0, symName: __ZNSt3__118__constexpr_memcmpB7v160006IcEEiPKT_S3_m, symObjAddr: 0x3664, symBinAddr: 0x1000081B4, symSize: 0x34 }
  - { offsetInCU: 0xE551, offset: 0x276A7, size: 0x8, addend: 0x0, symName: __ZNSt3__1neB7v160006ERKNS_16__deque_iteratorINS_12basic_stringIcNS_11char_traitsIcEENS_9allocatorIcEEEEPS6_RS6_PS7_lLl170EEESC_, symObjAddr: 0x3B7C, symBinAddr: 0x1000086CC, symSize: 0x34 }
  - { offsetInCU: 0xE58E, offset: 0x276E4, size: 0x8, addend: 0x0, symName: __ZNSt3__1eqB7v160006ERKNS_16__deque_iteratorINS_12basic_stringIcNS_11char_traitsIcEENS_9allocatorIcEEEEPS6_RS6_PS7_lLl170EEESC_, symObjAddr: 0x3DF8, symBinAddr: 0x100008948, symSize: 0x30 }
  - { offsetInCU: 0xE5CC, offset: 0x27722, size: 0x8, addend: 0x0, symName: __ZNSt3__110destroy_atB7v160006INS_12basic_stringIcNS_11char_traitsIcEENS_9allocatorIcEEEELi0EEEvPT_, symObjAddr: 0x3E28, symBinAddr: 0x100008978, symSize: 0x24 }
  - { offsetInCU: 0xE605, offset: 0x2775B, size: 0x8, addend: 0x0, symName: __ZNSt3__112__destroy_atB7v160006INS_12basic_stringIcNS_11char_traitsIcEENS_9allocatorIcEEEELi0EEEvPT_, symObjAddr: 0x3E4C, symBinAddr: 0x10000899C, symSize: 0x24 }
  - { offsetInCU: 0xE63E, offset: 0x27794, size: 0x8, addend: 0x0, symName: __ZNSt3__112__to_addressB7v160006IPNS_12basic_stringIcNS_11char_traitsIcEENS_9allocatorIcEEEEEEPT_S9_, symObjAddr: 0x4180, symBinAddr: 0x100008CD0, symSize: 0x14 }
  - { offsetInCU: 0xE673, offset: 0x277C9, size: 0x8, addend: 0x0, symName: __ZNSt3__110destroy_atB7v160006IPNS_12basic_stringIcNS_11char_traitsIcEENS_9allocatorIcEEEELi0EEEvPT_, symObjAddr: 0x4194, symBinAddr: 0x100008CE4, symSize: 0x24 }
  - { offsetInCU: 0xE6AC, offset: 0x27802, size: 0x8, addend: 0x0, symName: __ZNSt3__112__destroy_atB7v160006IPNS_12basic_stringIcNS_11char_traitsIcEENS_9allocatorIcEEEELi0EEEvPT_, symObjAddr: 0x41B8, symBinAddr: 0x100008D08, symSize: 0x10 }
  - { offsetInCU: 0xE6E4, offset: 0x2783A, size: 0x8, addend: 0x0, symName: __ZNSt3__119__debug_db_insert_cB7v160006INS_13unordered_mapINS_12basic_stringIcNS_11char_traitsIcEENS_9allocatorIcEEEENS_4listIP4NodeNS5_ISA_EEEENS_4hashIS7_EENS_8equal_toIS7_EENS5_INS_4pairIKS7_SC_EEEEEEEEvPT_, symObjAddr: 0x4334, symBinAddr: 0x100008E84, symSize: 0x10 }
  - { offsetInCU: 0xE715, offset: 0x2786B, size: 0x8, addend: 0x0, symName: __ZNSt3__118__debug_db_erase_cB7v160006INS_12__hash_tableINS_17__hash_value_typeINS_12basic_stringIcNS_11char_traitsIcEENS_9allocatorIcEEEENS_4listIP4NodeNS6_ISB_EEEEEENS_22__unordered_map_hasherIS8_SE_NS_4hashIS8_EENS_8equal_toIS8_EELb1EEENS_21__unordered_map_equalIS8_SE_SJ_SH_Lb1EEENS6_ISE_EEEEEEvPT_, symObjAddr: 0x4AB4, symBinAddr: 0x100009604, symSize: 0x10 }
  - { offsetInCU: 0xE779, offset: 0x278CF, size: 0x8, addend: 0x0, symName: __ZNSt3__110destroy_atB7v160006INS_4pairIKNS_12basic_stringIcNS_11char_traitsIcEENS_9allocatorIcEEEENS_4listIP4NodeNS5_ISB_EEEEEELi0EEEvPT_, symObjAddr: 0x4C08, symBinAddr: 0x100009758, symSize: 0x24 }
  - { offsetInCU: 0xE7B2, offset: 0x27908, size: 0x8, addend: 0x0, symName: __ZNSt3__112__destroy_atB7v160006INS_4pairIKNS_12basic_stringIcNS_11char_traitsIcEENS_9allocatorIcEEEENS_4listIP4NodeNS5_ISB_EEEEEELi0EEEvPT_, symObjAddr: 0x4C2C, symBinAddr: 0x10000977C, symSize: 0x24 }
  - { offsetInCU: 0xE7EB, offset: 0x27941, size: 0x8, addend: 0x0, symName: __ZNSt3__17launderB7v160006INS_4pairIKNS_12basic_stringIcNS_11char_traitsIcEENS_9allocatorIcEEEENS_4listIP4NodeNS5_ISB_EEEEEEEEPT_SG_, symObjAddr: 0x4C74, symBinAddr: 0x1000097C4, symSize: 0x24 }
  - { offsetInCU: 0xE822, offset: 0x27978, size: 0x8, addend: 0x0, symName: __ZNSt3__19__launderB7v160006INS_4pairIKNS_12basic_stringIcNS_11char_traitsIcEENS_9allocatorIcEEEENS_4listIP4NodeNS5_ISB_EEEEEEEEPT_SG_, symObjAddr: 0x4C98, symBinAddr: 0x1000097E8, symSize: 0x14 }
  - { offsetInCU: 0xE85A, offset: 0x279B0, size: 0x8, addend: 0x0, symName: __ZNSt3__1neB7v160006ERKNS_21__hash_const_iteratorIPNS_11__hash_nodeINS_17__hash_value_typeINS_12basic_stringIcNS_11char_traitsIcEENS_9allocatorIcEEEENS_4listIP4NodeNS6_ISB_EEEEEEPvEEEESK_, symObjAddr: 0x4FE4, symBinAddr: 0x100009B34, symSize: 0x34 }
  - { offsetInCU: 0xE897, offset: 0x279ED, size: 0x8, addend: 0x0, symName: __ZNSt3__1eqB7v160006ERKNS_21__hash_const_iteratorIPNS_11__hash_nodeINS_17__hash_value_typeINS_12basic_stringIcNS_11char_traitsIcEENS_9allocatorIcEEEENS_4listIP4NodeNS6_ISB_EEEEEEPvEEEESK_, symObjAddr: 0x5204, symBinAddr: 0x100009D54, symSize: 0x30 }
  - { offsetInCU: 0xE8D5, offset: 0x27A2B, size: 0x8, addend: 0x0, symName: __ZNSt3__116__constrain_hashB7v160006Emm, symObjAddr: 0x52B0, symBinAddr: 0x100009E00, symSize: 0x98 }
  - { offsetInCU: 0xE90F, offset: 0x27A65, size: 0x8, addend: 0x0, symName: __ZNSt3__116__do_string_hashB7v160006IPKcEEmT_S3_, symObjAddr: 0x54DC, symBinAddr: 0x10000A02C, symSize: 0x3C }
  - { offsetInCU: 0xE955, offset: 0x27AAB, size: 0x8, addend: 0x0, symName: __ZNSt3__110__loadwordB7v160006ImEET_PKv, symObjAddr: 0x5ED0, symBinAddr: 0x10000AA20, symSize: 0x20 }
  - { offsetInCU: 0xE999, offset: 0x27AEF, size: 0x8, addend: 0x0, symName: __ZNSt3__14swapB7v160006ImEENS_9enable_ifIXaasr21is_move_constructibleIT_EE5valuesr18is_move_assignableIS2_EE5valueEvE4typeERS2_S5_, symObjAddr: 0x608C, symBinAddr: 0x10000ABDC, symSize: 0x3C }
  - { offsetInCU: 0xE9EB, offset: 0x27B41, size: 0x8, addend: 0x0, symName: __ZNSt3__110__loadwordB7v160006IjEET_PKv, symObjAddr: 0x611C, symBinAddr: 0x10000AC6C, symSize: 0x20 }
  - { offsetInCU: 0xEA2F, offset: 0x27B85, size: 0x8, addend: 0x0, symName: __ZNSt3__17launderB7v160006IKNS_4pairIKNS_12basic_stringIcNS_11char_traitsIcEENS_9allocatorIcEEEENS_4listIP4NodeNS5_ISB_EEEEEEEEPT_SH_, symObjAddr: 0x63F8, symBinAddr: 0x10000AF48, symSize: 0x24 }
  - { offsetInCU: 0xEA66, offset: 0x27BBC, size: 0x8, addend: 0x0, symName: __ZNSt3__19__launderB7v160006IKNS_4pairIKNS_12basic_stringIcNS_11char_traitsIcEENS_9allocatorIcEEEENS_4listIP4NodeNS5_ISB_EEEEEEEEPT_SH_, symObjAddr: 0x641C, symBinAddr: 0x10000AF6C, symSize: 0x14 }
  - { offsetInCU: 0xEA9E, offset: 0x27BF4, size: 0x8, addend: 0x0, symName: __ZNSt3__119__debug_db_insert_cB7v160006INS_4listIP4NodeNS_9allocatorIS3_EEEEEEvPT_, symObjAddr: 0x64E0, symBinAddr: 0x10000B030, symSize: 0x10 }
  - { offsetInCU: 0xEACF, offset: 0x27C25, size: 0x8, addend: 0x0, symName: __ZNSt3__116__is_hash_power2B7v160006Em, symObjAddr: 0x6DB0, symBinAddr: 0x10000B8D4, symSize: 0x50 }
  - { offsetInCU: 0xEB40, offset: 0x27C96, size: 0x8, addend: 0x0, symName: __ZNSt3__112construct_atB7v160006INS_4pairIKNS_12basic_stringIcNS_11char_traitsIcEENS_9allocatorIcEEEENS_4listIP4NodeNS5_ISB_EEEEEEJSE_EPSE_EEPT_SH_DpOT0_, symObjAddr: 0x73B4, symBinAddr: 0x10000BDD8, symSize: 0x3C }
  - { offsetInCU: 0xEBB5, offset: 0x27D0B, size: 0x8, addend: 0x0, symName: __ZNSt3__116__next_hash_pow2B7v160006Em, symObjAddr: 0x7C50, symBinAddr: 0x10000C674, symSize: 0x6C }
  - { offsetInCU: 0xEBE1, offset: 0x27D37, size: 0x8, addend: 0x0, symName: __ZNSt3__125__debug_db_invalidate_allB7v160006INS_12__hash_tableINS_17__hash_value_typeINS_12basic_stringIcNS_11char_traitsIcEENS_9allocatorIcEEEENS_4listIP4NodeNS6_ISB_EEEEEENS_22__unordered_map_hasherIS8_SE_NS_4hashIS8_EENS_8equal_toIS8_EELb1EEENS_21__unordered_map_equalIS8_SE_SJ_SH_Lb1EEENS6_ISE_EEEEEEvPT_, symObjAddr: 0x7CBC, symBinAddr: 0x10000C6E0, symSize: 0x10 }
  - { offsetInCU: 0xEC12, offset: 0x27D68, size: 0x8, addend: 0x0, symName: __ZNSt3__112__libcpp_clzB7v160006Em, symObjAddr: 0x7E14, symBinAddr: 0x10000C838, symSize: 0x1C }
  - { offsetInCU: 0xEC3E, offset: 0x27D94, size: 0x8, addend: 0x0, symName: __ZNSt3__1neB7v160006ERKNS_21__list_const_iteratorIP4NodePvEES6_, symObjAddr: 0x82DC, symBinAddr: 0x10000CC78, symSize: 0x34 }
  - { offsetInCU: 0xEC7B, offset: 0x27DD1, size: 0x8, addend: 0x0, symName: __ZNSt3__1eqB7v160006ERKNS_21__list_const_iteratorIP4NodePvEES6_, symObjAddr: 0x8554, symBinAddr: 0x10000CEF0, symSize: 0x30 }
  - { offsetInCU: 0xECFE, offset: 0x27E54, size: 0x8, addend: 0x0, symName: __ZNSt3__112construct_atB7v160006IP4NodeJRKS2_EPS2_EEPT_S7_DpOT0_, symObjAddr: 0x89D0, symBinAddr: 0x10000D36C, symSize: 0x2C }
  - { offsetInCU: 0xED73, offset: 0x27EC9, size: 0x8, addend: 0x0, symName: __ZNSt3__1eqB7v160006ERKNS_15__list_iteratorIP4NodePvEES6_, symObjAddr: 0x8C50, symBinAddr: 0x10000D5EC, symSize: 0x30 }
  - { offsetInCU: 0xEDB1, offset: 0x27F07, size: 0x8, addend: 0x0, symName: __ZNSt3__14nextB7v160006INS_21__list_const_iteratorIP4NodePvEEEENS_9enable_ifIXsr25__is_cpp17_input_iteratorIT_EE5valueES7_E4typeES7_NS_15iterator_traitsIS7_E15difference_typeE, symObjAddr: 0x8CE4, symBinAddr: 0x10000D680, symSize: 0x50 }
  - { offsetInCU: 0xEDF4, offset: 0x27F4A, size: 0x8, addend: 0x0, symName: __ZNSt3__121__convert_to_integralB7v160006El, symObjAddr: 0x902C, symBinAddr: 0x10000D9C8, symSize: 0x14 }
  - { offsetInCU: 0xEE20, offset: 0x27F76, size: 0x8, addend: 0x0, symName: __ZNSt3__19__advanceB7v160006INS_21__list_const_iteratorIP4NodePvEEEEvRT_NS_15iterator_traitsIS6_E15difference_typeENS_26bidirectional_iterator_tagE, symObjAddr: 0x9040, symBinAddr: 0x10000D9DC, symSize: 0xA4 }
  - { offsetInCU: 0xEE6A, offset: 0x27FC0, size: 0x8, addend: 0x0, symName: __ZNSt3__18distanceB7v160006INS_21__list_const_iteratorIP4NodePvEEEENS_15iterator_traitsIT_E15difference_typeES7_S7_, symObjAddr: 0x9104, symBinAddr: 0x10000DAA0, symSize: 0x3C }
  - { offsetInCU: 0xEEAD, offset: 0x28003, size: 0x8, addend: 0x0, symName: __ZNSt3__110__distanceB7v160006INS_21__list_const_iteratorIP4NodePvEEEENS_15iterator_traitsIT_E15difference_typeES7_S7_NS_18input_iterator_tagE, symObjAddr: 0x9140, symBinAddr: 0x10000DADC, symSize: 0x5C }
  - { offsetInCU: 0xEF09, offset: 0x2805F, size: 0x8, addend: 0x0, symName: __ZNSt3__1eqB7v160006ERKNS_15__hash_iteratorIPNS_11__hash_nodeINS_17__hash_value_typeINS_12basic_stringIcNS_11char_traitsIcEENS_9allocatorIcEEEENS_4listIP4NodeNS6_ISB_EEEEEEPvEEEESK_, symObjAddr: 0x93E8, symBinAddr: 0x10000DD84, symSize: 0x30 }
  - { offsetInCU: 0xEF47, offset: 0x2809D, size: 0x8, addend: 0x0, symName: __ZNSt3__1neB7v160006ERKNS_15__hash_iteratorIPNS_11__hash_nodeINS_17__hash_value_typeINS_12basic_stringIcNS_11char_traitsIcEENS_9allocatorIcEEEENS_4listIP4NodeNS6_ISB_EEEEEEPvEEEESK_, symObjAddr: 0x9790, symBinAddr: 0x10000E12C, symSize: 0x34 }
  - { offsetInCU: 0xEFEA, offset: 0x28140, size: 0x8, addend: 0x0, symName: __ZNSt3__112construct_atB7v160006IP4NodeJS2_EPS2_EEPT_S5_DpOT0_, symObjAddr: 0x984C, symBinAddr: 0x10000E1E8, symSize: 0x2C }
  - { offsetInCU: 0xF092, offset: 0x281E8, size: 0x8, addend: 0x0, symName: __ZNSt3__1ltB7v160006ENS_15strong_orderingENS_20_CmpUnspecifiedParamE, symObjAddr: 0xAAF4, symBinAddr: 0x10000E9D0, symSize: 0x24 }
  - { offsetInCU: 0xF0CD, offset: 0x28223, size: 0x8, addend: 0x0, symName: __ZNSt3__1ssB7v160006IcNS_11char_traitsIcEENS_9allocatorIcEEEEDaRKNS_12basic_stringIT_T0_T1_EESC_, symObjAddr: 0xAB18, symBinAddr: 0x10000E9F4, symSize: 0x5C }
  - { offsetInCU: 0xF141, offset: 0x28297, size: 0x8, addend: 0x0, symName: __ZNSt3__1ssB7v160006IcNS_11char_traitsIcEEEEDaNS_17basic_string_viewIT_T0_EES7_, symObjAddr: 0xABA8, symBinAddr: 0x10000EA84, symSize: 0x7C }
  - { offsetInCU: 0xF1D5, offset: 0x2832B, size: 0x8, addend: 0x0, symName: __ZNSt3__112construct_atB7v160006INS_12basic_stringIcNS_11char_traitsIcEENS_9allocatorIcEEEEJRKS6_EPS6_EEPT_SB_DpOT0_, symObjAddr: 0xB2AC, symBinAddr: 0x10000F108, symSize: 0x3C }
  - { offsetInCU: 0xF24A, offset: 0x283A0, size: 0x8, addend: 0x0, symName: __ZNSt3__127__tree_balance_after_insertB7v160006IPNS_16__tree_node_baseIPvEEEEvT_S5_, symObjAddr: 0xB370, symBinAddr: 0x10000F1CC, symSize: 0x32C }
  - { offsetInCU: 0xF2C9, offset: 0x2841F, size: 0x8, addend: 0x0, symName: __ZNSt3__120__tree_is_left_childB7v160006IPNS_16__tree_node_baseIPvEEEEbT_, symObjAddr: 0xB6DC, symBinAddr: 0x10000F538, symSize: 0x2C }
  - { offsetInCU: 0xF2FE, offset: 0x28454, size: 0x8, addend: 0x0, symName: __ZNSt3__118__tree_left_rotateB7v160006IPNS_16__tree_node_baseIPvEEEEvT_, symObjAddr: 0xB708, symBinAddr: 0x10000F564, symSize: 0xD8 }
  - { offsetInCU: 0xF341, offset: 0x28497, size: 0x8, addend: 0x0, symName: __ZNSt3__119__tree_right_rotateB7v160006IPNS_16__tree_node_baseIPvEEEEvT_, symObjAddr: 0xB7E0, symBinAddr: 0x10000F63C, symSize: 0xCC }
  - { offsetInCU: 0xF7E0, offset: 0x28936, size: 0x8, addend: 0x0, symName: __ZNSt3__14swapB7v160006IPPNS_12basic_stringIcNS_11char_traitsIcEENS_9allocatorIcEEEEEENS_9enable_ifIXaasr21is_move_constructibleIT_EE5valuesr18is_move_assignableISA_EE5valueEvE4typeERSA_SD_, symObjAddr: 0xD63C, symBinAddr: 0x100011498, symSize: 0x3C }
  - { offsetInCU: 0xF832, offset: 0x28988, size: 0x8, addend: 0x0, symName: __ZNSt3__14moveB7v160006IPPNS_12basic_stringIcNS_11char_traitsIcEENS_9allocatorIcEEEES8_EET0_T_SA_S9_, symObjAddr: 0xD720, symBinAddr: 0x10001157C, symSize: 0x40 }
  - { offsetInCU: 0xF88C, offset: 0x289E2, size: 0x8, addend: 0x0, symName: __ZNSt3__16__moveB7v160006INS_17_ClassicAlgPolicyEPPNS_12basic_stringIcNS_11char_traitsIcEENS_9allocatorIcEEEES9_S9_EENS_4pairIT0_T2_EESB_T1_SC_, symObjAddr: 0xD8C0, symBinAddr: 0x10001171C, symSize: 0x44 }
  - { offsetInCU: 0xF8F8, offset: 0x28A4E, size: 0x8, addend: 0x0, symName: __ZNSt3__123__dispatch_copy_or_moveB7v160006INS_17_ClassicAlgPolicyENS_11__move_loopIS1_EENS_14__move_trivialEPPNS_12basic_stringIcNS_11char_traitsIcEENS_9allocatorIcEEEESC_SC_EENS_4pairIT2_T4_EESE_T3_SF_, symObjAddr: 0xD904, symBinAddr: 0x100011760, symSize: 0x44 }
  - { offsetInCU: 0xF976, offset: 0x28ACC, size: 0x8, addend: 0x0, symName: __ZNSt3__121__unwrap_and_dispatchB7v160006INS_10__overloadINS_11__move_loopINS_17_ClassicAlgPolicyEEENS_14__move_trivialEEEPPNS_12basic_stringIcNS_11char_traitsIcEENS_9allocatorIcEEEESE_SE_Li0EEENS_4pairIT0_T2_EESG_T1_SH_, symObjAddr: 0xD948, symBinAddr: 0x1000117A4, symSize: 0xB4 }
  - { offsetInCU: 0xFA07, offset: 0x28B5D, size: 0x8, addend: 0x0, symName: __ZNSt3__114__unwrap_rangeB7v160006IPPNS_12basic_stringIcNS_11char_traitsIcEENS_9allocatorIcEEEES8_EEDaT_T0_, symObjAddr: 0xD9FC, symBinAddr: 0x100011858, symSize: 0x3C }
  - { offsetInCU: 0xFBCF, offset: 0x28D25, size: 0x8, addend: 0x0, symName: __ZNSt3__113__unwrap_iterB7v160006IPPNS_12basic_stringIcNS_11char_traitsIcEENS_9allocatorIcEEEENS_18__unwrap_iter_implIS8_Lb1EEELi0EEEDTclsrT0_8__unwrapclsr3stdE7declvalIT_EEEESC_, symObjAddr: 0xDA80, symBinAddr: 0x1000118DC, symSize: 0x24 }
  - { offsetInCU: 0xFC14, offset: 0x28D6A, size: 0x8, addend: 0x0, symName: __ZNSt3__19make_pairB7v160006IPPNS_12basic_stringIcNS_11char_traitsIcEENS_9allocatorIcEEEES8_EENS_4pairINS_18__unwrap_ref_decayIT_E4typeENSA_IT0_E4typeEEEOSB_OSE_, symObjAddr: 0xDAA4, symBinAddr: 0x100011900, symSize: 0x38 }
  - { offsetInCU: 0xFC63, offset: 0x28DB9, size: 0x8, addend: 0x0, symName: __ZNSt3__114__rewrap_rangeB7v160006IPPNS_12basic_stringIcNS_11char_traitsIcEENS_9allocatorIcEEEES8_S8_EET0_S9_T1_, symObjAddr: 0xDADC, symBinAddr: 0x100011938, symSize: 0x2C }
  - { offsetInCU: 0xFCB8, offset: 0x28E0E, size: 0x8, addend: 0x0, symName: __ZNSt3__113__rewrap_iterB7v160006IPPNS_12basic_stringIcNS_11char_traitsIcEENS_9allocatorIcEEEES8_NS_18__unwrap_iter_implIS8_Lb1EEEEET_SB_T0_, symObjAddr: 0xDB08, symBinAddr: 0x100011964, symSize: 0x3C }
  - { offsetInCU: 0xFD5D, offset: 0x28EB3, size: 0x8, addend: 0x0, symName: __ZNSt3__119__copy_trivial_implB7v160006IPNS_12basic_stringIcNS_11char_traitsIcEENS_9allocatorIcEEEES7_EENS_4pairIPT_PT0_EESA_SA_SC_, symObjAddr: 0xDC0C, symBinAddr: 0x100011A68, symSize: 0x84 }
  - { offsetInCU: 0xFDC6, offset: 0x28F1C, size: 0x8, addend: 0x0, symName: __ZNSt3__19make_pairB7v160006IRPPNS_12basic_stringIcNS_11char_traitsIcEENS_9allocatorIcEEEES8_EENS_4pairINS_18__unwrap_ref_decayIT_E4typeENSB_IT0_E4typeEEEOSC_OSF_, symObjAddr: 0xDC90, symBinAddr: 0x100011AEC, symSize: 0x38 }
  - { offsetInCU: 0xFE69, offset: 0x28FBF, size: 0x8, addend: 0x0, symName: __ZNSt3__18distanceB7v160006INS_13move_iteratorIPPNS_12basic_stringIcNS_11char_traitsIcEENS_9allocatorIcEEEEEEEENS_15iterator_traitsIT_E15difference_typeESC_SC_, symObjAddr: 0xDDD8, symBinAddr: 0x100011C34, symSize: 0x3C }
  - { offsetInCU: 0xFEAC, offset: 0x29002, size: 0x8, addend: 0x0, symName: __ZNSt3__110__distanceB7v160006INS_13move_iteratorIPPNS_12basic_stringIcNS_11char_traitsIcEENS_9allocatorIcEEEEEEEENS_15iterator_traitsIT_E15difference_typeESC_SC_NS_26random_access_iterator_tagE, symObjAddr: 0xDF20, symBinAddr: 0x100011D7C, symSize: 0x30 }
  - { offsetInCU: 0xFEF9, offset: 0x2904F, size: 0x8, addend: 0x0, symName: __ZNSt3__1miB7v160006IPPNS_12basic_stringIcNS_11char_traitsIcEENS_9allocatorIcEEEES8_EEDTmicldtfp_4baseEcldtfp0_4baseEERKNS_13move_iteratorIT_EERKNSA_IT0_EE, symObjAddr: 0xDF50, symBinAddr: 0x100011DAC, symSize: 0x4C }
  - { offsetInCU: 0xFF6F, offset: 0x290C5, size: 0x8, addend: 0x0, symName: __ZNSt3__112construct_atB7v160006IPNS_12basic_stringIcNS_11char_traitsIcEENS_9allocatorIcEEEEJS7_EPS7_EEPT_SA_DpOT0_, symObjAddr: 0xDFF4, symBinAddr: 0x100011E50, symSize: 0x2C }
  - { offsetInCU: 0xFFE4, offset: 0x2913A, size: 0x8, addend: 0x0, symName: __ZNSt3__112construct_atB7v160006IPNS_12basic_stringIcNS_11char_traitsIcEENS_9allocatorIcEEEEJRKS7_EPS7_EEPT_SC_DpOT0_, symObjAddr: 0xE0BC, symBinAddr: 0x100011F18, symSize: 0x2C }
  - { offsetInCU: 0x10059, offset: 0x291AF, size: 0x8, addend: 0x0, symName: __ZNSt3__113move_backwardB7v160006IPPNS_12basic_stringIcNS_11char_traitsIcEENS_9allocatorIcEEEES8_EET0_T_SA_S9_, symObjAddr: 0xE16C, symBinAddr: 0x100011FC8, symSize: 0x40 }
  - { offsetInCU: 0x100B3, offset: 0x29209, size: 0x8, addend: 0x0, symName: __ZNSt3__115__move_backwardB7v160006INS_17_ClassicAlgPolicyEPPNS_12basic_stringIcNS_11char_traitsIcEENS_9allocatorIcEEEES9_S9_EENS_4pairIT0_T2_EESB_T1_SC_, symObjAddr: 0xE1AC, symBinAddr: 0x100012008, symSize: 0x44 }
  - { offsetInCU: 0x1011F, offset: 0x29275, size: 0x8, addend: 0x0, symName: __ZNSt3__123__dispatch_copy_or_moveB7v160006INS_17_ClassicAlgPolicyENS_20__move_backward_loopIS1_EENS_23__move_backward_trivialEPPNS_12basic_stringIcNS_11char_traitsIcEENS_9allocatorIcEEEESC_SC_EENS_4pairIT2_T4_EESE_T3_SF_, symObjAddr: 0xE1F0, symBinAddr: 0x10001204C, symSize: 0x44 }
  - { offsetInCU: 0x1019D, offset: 0x292F3, size: 0x8, addend: 0x0, symName: __ZNSt3__121__unwrap_and_dispatchB7v160006INS_10__overloadINS_20__move_backward_loopINS_17_ClassicAlgPolicyEEENS_23__move_backward_trivialEEEPPNS_12basic_stringIcNS_11char_traitsIcEENS_9allocatorIcEEEESE_SE_Li0EEENS_4pairIT0_T2_EESG_T1_SH_, symObjAddr: 0xE234, symBinAddr: 0x100012090, symSize: 0xB4 }
  - { offsetInCU: 0x10275, offset: 0x293CB, size: 0x8, addend: 0x0, symName: __ZNSt3__128__copy_backward_trivial_implB7v160006IPNS_12basic_stringIcNS_11char_traitsIcEENS_9allocatorIcEEEES7_EENS_4pairIPT_PT0_EESA_SA_SC_, symObjAddr: 0xE330, symBinAddr: 0x10001218C, symSize: 0x94 }
  - { offsetInCU: 0x102DE, offset: 0x29434, size: 0x8, addend: 0x0, symName: __ZNSt3__19make_pairB7v160006IRPPNS_12basic_stringIcNS_11char_traitsIcEENS_9allocatorIcEEEES9_EENS_4pairINS_18__unwrap_ref_decayIT_E4typeENSB_IT0_E4typeEEEOSC_OSF_, symObjAddr: 0xE3C4, symBinAddr: 0x100012220, symSize: 0x38 }
  - { offsetInCU: 0x1032D, offset: 0x29483, size: 0x8, addend: 0x0, symName: __ZNSt3__119__allocate_at_leastB7v160006INS_9allocatorIPNS_12basic_stringIcNS_11char_traitsIcEENS1_IcEEEEEEEENS_19__allocation_resultINS_16allocator_traitsIT_E7pointerEEERSB_m, symObjAddr: 0xE57C, symBinAddr: 0x1000123D8, symSize: 0x40 }
  - { offsetInCU: 0x10370, offset: 0x294C6, size: 0x8, addend: 0x0, symName: __ZNSt3__112__to_addressB7v160006INS_12basic_stringIcNS_11char_traitsIcEENS_9allocatorIcEEEEEEPT_S8_, symObjAddr: 0xED14, symBinAddr: 0x100012B70, symSize: 0x14 }
  - { offsetInCU: 0x103A5, offset: 0x294FB, size: 0x8, addend: 0x0, symName: __ZNSt3__1eqB7v160006ERKNS_15__tree_iteratorINS_12basic_stringIcNS_11char_traitsIcEENS_9allocatorIcEEEEPNS_11__tree_nodeIS6_PvEElEESD_, symObjAddr: 0xF4C4, symBinAddr: 0x100013320, symSize: 0x30 }
  - { offsetInCU: 0x103E3, offset: 0x29539, size: 0x8, addend: 0x0, symName: __ZNSt3__1neB7v160006ERKNS_15__tree_iteratorINS_12basic_stringIcNS_11char_traitsIcEENS_9allocatorIcEEEEPNS_11__tree_nodeIS6_PvEElEESD_, symObjAddr: 0xF664, symBinAddr: 0x1000134C0, symSize: 0x34 }
  - { offsetInCU: 0x10420, offset: 0x29576, size: 0x8, addend: 0x0, symName: __ZNSt3__113__tree_removeB7v160006IPNS_16__tree_node_baseIPvEEEEvT_S5_, symObjAddr: 0xF830, symBinAddr: 0x10001368C, symSize: 0x6E0 }
  - { offsetInCU: 0x1049F, offset: 0x295F5, size: 0x8, addend: 0x0, symName: __ZNSt3__116__tree_next_iterB7v160006IPNS_15__tree_end_nodeIPNS_16__tree_node_baseIPvEEEES5_EET_T0_, symObjAddr: 0xFF10, symBinAddr: 0x100013D6C, symSize: 0x80 }
  - { offsetInCU: 0x104DD, offset: 0x29633, size: 0x8, addend: 0x0, symName: __ZNSt3__110__tree_minB7v160006IPNS_16__tree_node_baseIPvEEEET_S5_, symObjAddr: 0xFF90, symBinAddr: 0x100013DEC, symSize: 0x40 }
  - { offsetInCU: 0x10512, offset: 0x29668, size: 0x8, addend: 0x0, symName: __ZNSt3__111__tree_nextB7v160006IPNS_16__tree_node_baseIPvEEEET_S5_, symObjAddr: 0xFFD0, symBinAddr: 0x100013E2C, symSize: 0x80 }
  - { offsetInCU: 0x10547, offset: 0x2969D, size: 0x8, addend: 0x0, symName: __ZNSt3__1eqB7v160006ERKNS_21__tree_const_iteratorINS_12basic_stringIcNS_11char_traitsIcEENS_9allocatorIcEEEEPNS_11__tree_nodeIS6_PvEElEESD_, symObjAddr: 0x10084, symBinAddr: 0x100013EE0, symSize: 0x30 }
  - { offsetInCU: 0x138A1, offset: 0x2C9F7, size: 0x8, addend: 0x0, symName: __ZN5GraphC2Ev, symObjAddr: 0x0, symBinAddr: 0x100004DC0, symSize: 0x40 }
  - { offsetInCU: 0x138CB, offset: 0x2CA21, size: 0x8, addend: 0x0, symName: __ZNSt3__113unordered_mapINS_12basic_stringIcNS_11char_traitsIcEENS_9allocatorIcEEEENS_4listIP4NodeNS4_IS9_EEEENS_4hashIS6_EENS_8equal_toIS6_EENS4_INS_4pairIKS6_SB_EEEEEC1B7v160006Ev, symObjAddr: 0x40, symBinAddr: 0x100004E00, symSize: 0x2C }
  - { offsetInCU: 0x138F3, offset: 0x2CA49, size: 0x8, addend: 0x0, symName: __ZN5GraphC1Ev, symObjAddr: 0x6C, symBinAddr: 0x100004E2C, symSize: 0x2C }
  - { offsetInCU: 0x1391D, offset: 0x2CA73, size: 0x8, addend: 0x0, symName: __ZN5GraphD2Ev, symObjAddr: 0x98, symBinAddr: 0x100004E58, symSize: 0x64 }
  - { offsetInCU: 0x13947, offset: 0x2CA9D, size: 0x8, addend: 0x0, symName: __ZNSt3__113unordered_mapINS_12basic_stringIcNS_11char_traitsIcEENS_9allocatorIcEEEENS_4listIP4NodeNS4_IS9_EEEENS_4hashIS6_EENS_8equal_toIS6_EENS4_INS_4pairIKS6_SB_EEEEED1B7v160006Ev, symObjAddr: 0xFC, symBinAddr: 0x100004EBC, symSize: 0x2C }
  - { offsetInCU: 0x1396F, offset: 0x2CAC5, size: 0x8, addend: 0x0, symName: __ZN5GraphD1Ev, symObjAddr: 0x128, symBinAddr: 0x100004EE8, symSize: 0x2C }
  - { offsetInCU: 0x13999, offset: 0x2CAEF, size: 0x8, addend: 0x0, symName: __ZNK5Graph7hasNodeENSt3__112basic_stringIcNS0_11char_traitsIcEENS0_9allocatorIcEEEE, symObjAddr: 0x154, symBinAddr: 0x100004F14, symSize: 0x3C }
  - { offsetInCU: 0x139CE, offset: 0x2CB24, size: 0x8, addend: 0x0, symName: __ZNKSt3__113unordered_mapINS_12basic_stringIcNS_11char_traitsIcEENS_9allocatorIcEEEENS_4listIP4NodeNS4_IS9_EEEENS_4hashIS6_EENS_8equal_toIS6_EENS4_INS_4pairIKS6_SB_EEEEE5countB7v160006ERSH_, symObjAddr: 0x190, symBinAddr: 0x100004F50, symSize: 0x2C }
  - { offsetInCU: 0x13A01, offset: 0x2CB57, size: 0x8, addend: 0x0, symName: __ZN5Graph7addNodeENSt3__112basic_stringIcNS0_11char_traitsIcEENS0_9allocatorIcEEEE, symObjAddr: 0x1BC, symBinAddr: 0x100004F7C, symSize: 0x1A8 }
  - { offsetInCU: 0x13A46, offset: 0x2CB9C, size: 0x8, addend: 0x0, symName: __ZNKSt3__112basic_stringIcNS_11char_traitsIcEENS_9allocatorIcEEE6lengthB7v160006Ev, symObjAddr: 0x364, symBinAddr: 0x100005124, symSize: 0x24 }
  - { offsetInCU: 0x13A6A, offset: 0x2CBC0, size: 0x8, addend: 0x0, symName: __ZNSt3__14listIP4NodeNS_9allocatorIS2_EEEC1B7v160006Ev, symObjAddr: 0x388, symBinAddr: 0x100005148, symSize: 0x2C }
  - { offsetInCU: 0x13A92, offset: 0x2CBE8, size: 0x8, addend: 0x0, symName: __ZNSt3__113unordered_mapINS_12basic_stringIcNS_11char_traitsIcEENS_9allocatorIcEEEENS_4listIP4NodeNS4_IS9_EEEENS_4hashIS6_EENS_8equal_toIS6_EENS4_INS_4pairIKS6_SB_EEEEE6insertB7v160006EOSI_, symObjAddr: 0x3B4, symBinAddr: 0x100005174, symSize: 0x4C }
  - { offsetInCU: 0x13AC5, offset: 0x2CC1B, size: 0x8, addend: 0x0, symName: __ZNSt3__14pairIKNS_12basic_stringIcNS_11char_traitsIcEENS_9allocatorIcEEEENS_4listIP4NodeNS4_ISA_EEEEEC1B7v160006IRS7_RSC_LPv0EEEOT_OT0_, symObjAddr: 0x400, symBinAddr: 0x1000051C0, symSize: 0x3C }
  - { offsetInCU: 0x13B22, offset: 0x2CC78, size: 0x8, addend: 0x0, symName: __ZNSt3__14pairIKNS_12basic_stringIcNS_11char_traitsIcEENS_9allocatorIcEEEENS_4listIP4NodeNS4_ISA_EEEEED1Ev, symObjAddr: 0x43C, symBinAddr: 0x1000051FC, symSize: 0x2C }
  - { offsetInCU: 0x13B4C, offset: 0x2CCA2, size: 0x8, addend: 0x0, symName: __ZNSt3__14listIP4NodeNS_9allocatorIS2_EEED1Ev, symObjAddr: 0x468, symBinAddr: 0x100005228, symSize: 0x2C }
  - { offsetInCU: 0x13B77, offset: 0x2CCCD, size: 0x8, addend: 0x0, symName: __Z18removeNodeFromListRNSt3__14listIP4NodeNS_9allocatorIS2_EEEENS_12basic_stringIcNS_11char_traitsIcEENS3_IcEEEE, symObjAddr: 0x494, symBinAddr: 0x100005254, symSize: 0xA0 }
  - { offsetInCU: 0x13C04, offset: 0x2CD5A, size: 0x8, addend: 0x0, symName: __ZNSt3__14listIP4NodeNS_9allocatorIS2_EEE5beginB7v160006Ev, symObjAddr: 0x534, symBinAddr: 0x1000052F4, symSize: 0x2C }
  - { offsetInCU: 0x13C28, offset: 0x2CD7E, size: 0x8, addend: 0x0, symName: __ZNSt3__14listIP4NodeNS_9allocatorIS2_EEE3endB7v160006Ev, symObjAddr: 0x560, symBinAddr: 0x100005320, symSize: 0x2C }
  - { offsetInCU: 0x13C4C, offset: 0x2CDA2, size: 0x8, addend: 0x0, symName: __ZNKSt3__115__list_iteratorIP4NodePvEdeB7v160006Ev, symObjAddr: 0x5C0, symBinAddr: 0x100005380, symSize: 0x2C }
  - { offsetInCU: 0x13C70, offset: 0x2CDC6, size: 0x8, addend: 0x0, symName: __ZNSt3__14listIP4NodeNS_9allocatorIS2_EEE6removeERKS2_, symObjAddr: 0x734, symBinAddr: 0x1000054F4, symSize: 0x210 }
  - { offsetInCU: 0x13CEF, offset: 0x2CE45, size: 0x8, addend: 0x0, symName: __ZNSt3__115__list_iteratorIP4NodePvEppB7v160006Ev, symObjAddr: 0x944, symBinAddr: 0x100005704, symSize: 0x20 }
  - { offsetInCU: 0x13D13, offset: 0x2CE69, size: 0x8, addend: 0x0, symName: __ZN5Graph10removeNodeENSt3__112basic_stringIcNS0_11char_traitsIcEENS0_9allocatorIcEEEE, symObjAddr: 0x964, symBinAddr: 0x100005724, symSize: 0x13C }
  - { offsetInCU: 0x13D96, offset: 0x2CEEC, size: 0x8, addend: 0x0, symName: __ZNSt3__113unordered_mapINS_12basic_stringIcNS_11char_traitsIcEENS_9allocatorIcEEEENS_4listIP4NodeNS4_IS9_EEEENS_4hashIS6_EENS_8equal_toIS6_EENS4_INS_4pairIKS6_SB_EEEEE5eraseB7v160006ERSH_, symObjAddr: 0xAA0, symBinAddr: 0x100005860, symSize: 0x2C }
  - { offsetInCU: 0x13DC9, offset: 0x2CF1F, size: 0x8, addend: 0x0, symName: __ZNSt3__113unordered_mapINS_12basic_stringIcNS_11char_traitsIcEENS_9allocatorIcEEEENS_4listIP4NodeNS4_IS9_EEEENS_4hashIS6_EENS_8equal_toIS6_EENS4_INS_4pairIKS6_SB_EEEEE5beginB7v160006Ev, symObjAddr: 0xACC, symBinAddr: 0x10000588C, symSize: 0x38 }
  - { offsetInCU: 0x13DED, offset: 0x2CF43, size: 0x8, addend: 0x0, symName: __ZNSt3__113unordered_mapINS_12basic_stringIcNS_11char_traitsIcEENS_9allocatorIcEEEENS_4listIP4NodeNS4_IS9_EEEENS_4hashIS6_EENS_8equal_toIS6_EENS4_INS_4pairIKS6_SB_EEEEE3endB7v160006Ev, symObjAddr: 0xB04, symBinAddr: 0x1000058C4, symSize: 0x38 }
  - { offsetInCU: 0x13E11, offset: 0x2CF67, size: 0x8, addend: 0x0, symName: __ZNKSt3__119__hash_map_iteratorINS_15__hash_iteratorIPNS_11__hash_nodeINS_17__hash_value_typeINS_12basic_stringIcNS_11char_traitsIcEENS_9allocatorIcEEEENS_4listIP4NodeNS7_ISC_EEEEEEPvEEEEEdeB7v160006Ev, symObjAddr: 0xB6C, symBinAddr: 0x10000592C, symSize: 0x28 }
  - { offsetInCU: 0x13E35, offset: 0x2CF8B, size: 0x8, addend: 0x0, symName: __ZNSt3__119__hash_map_iteratorINS_15__hash_iteratorIPNS_11__hash_nodeINS_17__hash_value_typeINS_12basic_stringIcNS_11char_traitsIcEENS_9allocatorIcEEEENS_4listIP4NodeNS7_ISC_EEEEEEPvEEEEEppB7v160006Ev, symObjAddr: 0xB94, symBinAddr: 0x100005954, symSize: 0x2C }
  - { offsetInCU: 0x13E59, offset: 0x2CFAF, size: 0x8, addend: 0x0, symName: __ZNK5Graph9hasTargetENSt3__112basic_stringIcNS0_11char_traitsIcEENS0_9allocatorIcEEEES6_, symObjAddr: 0xBC0, symBinAddr: 0x100005980, symSize: 0x12C }
  - { offsetInCU: 0x13F09, offset: 0x2D05F, size: 0x8, addend: 0x0, symName: __ZNSt3__113unordered_mapINS_12basic_stringIcNS_11char_traitsIcEENS_9allocatorIcEEEENS_4listIP4NodeNS4_IS9_EEEENS_4hashIS6_EENS_8equal_toIS6_EENS4_INS_4pairIKS6_SB_EEEEE4findB7v160006ERSH_, symObjAddr: 0xCEC, symBinAddr: 0x100005AAC, symSize: 0x40 }
  - { offsetInCU: 0x13F3C, offset: 0x2D092, size: 0x8, addend: 0x0, symName: __ZNKSt3__119__hash_map_iteratorINS_15__hash_iteratorIPNS_11__hash_nodeINS_17__hash_value_typeINS_12basic_stringIcNS_11char_traitsIcEENS_9allocatorIcEEEENS_4listIP4NodeNS7_ISC_EEEEEEPvEEEEEptB7v160006Ev, symObjAddr: 0xD2C, symBinAddr: 0x100005AEC, symSize: 0x2C }
  - { offsetInCU: 0x13F60, offset: 0x2D0B6, size: 0x8, addend: 0x0, symName: __ZNSt3__14listIP4NodeNS_9allocatorIS2_EEEC1ERKS5_, symObjAddr: 0xD58, symBinAddr: 0x100005B18, symSize: 0x34 }
  - { offsetInCU: 0x13F9A, offset: 0x2D0F0, size: 0x8, addend: 0x0, symName: __ZNK5Graph11isValidEdgeENSt3__112basic_stringIcNS0_11char_traitsIcEENS0_9allocatorIcEEEES6_, symObjAddr: 0xD8C, symBinAddr: 0x100005B4C, symSize: 0x1A8 }
  - { offsetInCU: 0x13FDE, offset: 0x2D134, size: 0x8, addend: 0x0, symName: __ZN5Graph7addEdgeENSt3__112basic_stringIcNS0_11char_traitsIcEENS0_9allocatorIcEEEES6_, symObjAddr: 0xF34, symBinAddr: 0x100005CF4, symSize: 0x238 }
  - { offsetInCU: 0x14038, offset: 0x2D18E, size: 0x8, addend: 0x0, symName: __ZNSt3__14listIP4NodeNS_9allocatorIS2_EEE9push_backEOS2_, symObjAddr: 0x116C, symBinAddr: 0x100005F2C, symSize: 0xEC }
  - { offsetInCU: 0x1408B, offset: 0x2D1E1, size: 0x8, addend: 0x0, symName: __ZN4NodeC1ENSt3__112basic_stringIcNS0_11char_traitsIcEENS0_9allocatorIcEEEE, symObjAddr: 0x1258, symBinAddr: 0x100006018, symSize: 0x34 }
  - { offsetInCU: 0x140C2, offset: 0x2D218, size: 0x8, addend: 0x0, symName: __ZN5Graph10removeEdgeENSt3__112basic_stringIcNS0_11char_traitsIcEENS0_9allocatorIcEEEES6_, symObjAddr: 0x128C, symBinAddr: 0x10000604C, symSize: 0x26C }
  - { offsetInCU: 0x14116, offset: 0x2D26C, size: 0x8, addend: 0x0, symName: __ZNK5Graph8traverseEv, symObjAddr: 0x14F8, symBinAddr: 0x1000062B8, symSize: 0x164 }
  - { offsetInCU: 0x141E3, offset: 0x2D339, size: 0x8, addend: 0x0, symName: __Z6isLastIKP4NodeEbRKNSt3__14listIS1_NS3_9allocatorIS1_EEEERT_, symObjAddr: 0x16F0, symBinAddr: 0x100006468, symSize: 0x48 }
  - { offsetInCU: 0x14227, offset: 0x2D37D, size: 0x8, addend: 0x0, symName: __ZNK5Graph13depthTraverseENSt3__112basic_stringIcNS0_11char_traitsIcEENS0_9allocatorIcEEEENS0_4listIP4NodeNS4_IS9_EEEERNS0_3setIS6_NS0_4lessIS6_EENS4_IS6_EEEE, symObjAddr: 0x17BC, symBinAddr: 0x1000064B0, symSize: 0x198 }
  - { offsetInCU: 0x142BD, offset: 0x2D413, size: 0x8, addend: 0x0, symName: __ZNSt3__13setINS_12basic_stringIcNS_11char_traitsIcEENS_9allocatorIcEEEENS_4lessIS6_EENS4_IS6_EEE6insertB7v160006ERKS6_, symObjAddr: 0x1954, symBinAddr: 0x100006648, symSize: 0x4C }
  - { offsetInCU: 0x142F0, offset: 0x2D446, size: 0x8, addend: 0x0, symName: __ZNKSt3__13setINS_12basic_stringIcNS_11char_traitsIcEENS_9allocatorIcEEEENS_4lessIS6_EENS4_IS6_EEE5countB7v160006ERKS6_, symObjAddr: 0x19A0, symBinAddr: 0x100006694, symSize: 0x2C }
  - { offsetInCU: 0x14323, offset: 0x2D479, size: 0x8, addend: 0x0, symName: __ZNK5Graph13depthTraverseENSt3__112basic_stringIcNS0_11char_traitsIcEENS0_9allocatorIcEEEE, symObjAddr: 0x19CC, symBinAddr: 0x1000066C0, symSize: 0x178 }
  - { offsetInCU: 0x14378, offset: 0x2D4CE, size: 0x8, addend: 0x0, symName: __ZNSt3__13setINS_12basic_stringIcNS_11char_traitsIcEENS_9allocatorIcEEEENS_4lessIS6_EENS4_IS6_EEEC1B7v160006Ev, symObjAddr: 0x1B44, symBinAddr: 0x100006838, symSize: 0x2C }
  - { offsetInCU: 0x143A0, offset: 0x2D4F6, size: 0x8, addend: 0x0, symName: __ZNSt3__13setINS_12basic_stringIcNS_11char_traitsIcEENS_9allocatorIcEEEENS_4lessIS6_EENS4_IS6_EEED1B7v160006Ev, symObjAddr: 0x1B70, symBinAddr: 0x100006864, symSize: 0x2C }
  - { offsetInCU: 0x143C8, offset: 0x2D51E, size: 0x8, addend: 0x0, symName: __ZNK5Graph17depthTraverseIterENSt3__112basic_stringIcNS0_11char_traitsIcEENS0_9allocatorIcEEEE, symObjAddr: 0x1B9C, symBinAddr: 0x100006890, symSize: 0x298 }
  - { offsetInCU: 0x14485, offset: 0x2D5DB, size: 0x8, addend: 0x0, symName: __ZNSt3__15stackINS_12basic_stringIcNS_11char_traitsIcEENS_9allocatorIcEEEENS_5dequeIS6_NS4_IS6_EEEEEC1B7v160006Ev, symObjAddr: 0x1E34, symBinAddr: 0x100006B28, symSize: 0x2C }
  - { offsetInCU: 0x144AD, offset: 0x2D603, size: 0x8, addend: 0x0, symName: __ZNSt3__15stackINS_12basic_stringIcNS_11char_traitsIcEENS_9allocatorIcEEEENS_5dequeIS6_NS4_IS6_EEEEE4pushB7v160006ERKS6_, symObjAddr: 0x1E60, symBinAddr: 0x100006B54, symSize: 0x2C }
  - { offsetInCU: 0x144DF, offset: 0x2D635, size: 0x8, addend: 0x0, symName: __ZNKSt3__15stackINS_12basic_stringIcNS_11char_traitsIcEENS_9allocatorIcEEEENS_5dequeIS6_NS4_IS6_EEEEE5emptyB7v160006Ev, symObjAddr: 0x1E8C, symBinAddr: 0x100006B80, symSize: 0x28 }
  - { offsetInCU: 0x14503, offset: 0x2D659, size: 0x8, addend: 0x0, symName: __ZNSt3__15stackINS_12basic_stringIcNS_11char_traitsIcEENS_9allocatorIcEEEENS_5dequeIS6_NS4_IS6_EEEEE3topB7v160006Ev, symObjAddr: 0x1EB4, symBinAddr: 0x100006BA8, symSize: 0x24 }
  - { offsetInCU: 0x14527, offset: 0x2D67D, size: 0x8, addend: 0x0, symName: __ZNSt3__15stackINS_12basic_stringIcNS_11char_traitsIcEENS_9allocatorIcEEEENS_5dequeIS6_NS4_IS6_EEEEE3popB7v160006Ev, symObjAddr: 0x1ED8, symBinAddr: 0x100006BCC, symSize: 0x24 }
  - { offsetInCU: 0x1454B, offset: 0x2D6A1, size: 0x8, addend: 0x0, symName: __ZNKSt3__13setINS_12basic_stringIcNS_11char_traitsIcEENS_9allocatorIcEEEENS_4lessIS6_EENS4_IS6_EEE8containsB7v160006ERKS6_, symObjAddr: 0x1EFC, symBinAddr: 0x100006BF0, symSize: 0x60 }
  - { offsetInCU: 0x1457E, offset: 0x2D6D4, size: 0x8, addend: 0x0, symName: __ZNSt3__15stackINS_12basic_stringIcNS_11char_traitsIcEENS_9allocatorIcEEEENS_5dequeIS6_NS4_IS6_EEEEED1Ev, symObjAddr: 0x1F5C, symBinAddr: 0x100006C50, symSize: 0x2C }
  - { offsetInCU: 0x145A8, offset: 0x2D6FE, size: 0x8, addend: 0x0, symName: __ZNK5Graph20breadthTraverseQueueENSt3__112basic_stringIcNS0_11char_traitsIcEENS0_9allocatorIcEEEE, symObjAddr: 0x1F88, symBinAddr: 0x100006C7C, symSize: 0x298 }
  - { offsetInCU: 0x146A1, offset: 0x2D7F7, size: 0x8, addend: 0x0, symName: __ZNSt3__15queueINS_12basic_stringIcNS_11char_traitsIcEENS_9allocatorIcEEEENS_5dequeIS6_NS4_IS6_EEEEEC1B7v160006Ev, symObjAddr: 0x2220, symBinAddr: 0x100006F14, symSize: 0x2C }
  - { offsetInCU: 0x146C9, offset: 0x2D81F, size: 0x8, addend: 0x0, symName: __ZNSt3__15queueINS_12basic_stringIcNS_11char_traitsIcEENS_9allocatorIcEEEENS_5dequeIS6_NS4_IS6_EEEEE4pushB7v160006ERKS6_, symObjAddr: 0x224C, symBinAddr: 0x100006F40, symSize: 0x2C }
  - { offsetInCU: 0x146FC, offset: 0x2D852, size: 0x8, addend: 0x0, symName: __ZNKSt3__15queueINS_12basic_stringIcNS_11char_traitsIcEENS_9allocatorIcEEEENS_5dequeIS6_NS4_IS6_EEEEE5emptyB7v160006Ev, symObjAddr: 0x2278, symBinAddr: 0x100006F6C, symSize: 0x28 }
  - { offsetInCU: 0x14720, offset: 0x2D876, size: 0x8, addend: 0x0, symName: __ZNSt3__15queueINS_12basic_stringIcNS_11char_traitsIcEENS_9allocatorIcEEEENS_5dequeIS6_NS4_IS6_EEEEE5frontB7v160006Ev, symObjAddr: 0x22A0, symBinAddr: 0x100006F94, symSize: 0x24 }
  - { offsetInCU: 0x14744, offset: 0x2D89A, size: 0x8, addend: 0x0, symName: __ZNSt3__15queueINS_12basic_stringIcNS_11char_traitsIcEENS_9allocatorIcEEEENS_5dequeIS6_NS4_IS6_EEEEE3popB7v160006Ev, symObjAddr: 0x22C4, symBinAddr: 0x100006FB8, symSize: 0x24 }
  - { offsetInCU: 0x14768, offset: 0x2D8BE, size: 0x8, addend: 0x0, symName: __ZNSt3__15queueINS_12basic_stringIcNS_11char_traitsIcEENS_9allocatorIcEEEENS_5dequeIS6_NS4_IS6_EEEEED1Ev, symObjAddr: 0x22E8, symBinAddr: 0x100006FDC, symSize: 0x2C }
  - { offsetInCU: 0x14794, offset: 0x2D8EA, size: 0x8, addend: 0x0, symName: __ZNK5Graph12hasAdjacentsENSt3__112basic_stringIcNS0_11char_traitsIcEENS0_9allocatorIcEEEE, symObjAddr: 0x2314, symBinAddr: 0x100007008, symSize: 0x98 }
  - { offsetInCU: 0x147C9, offset: 0x2D91F, size: 0x8, addend: 0x0, symName: __ZNK5Graph12getAdjacentsENSt3__112basic_stringIcNS0_11char_traitsIcEENS0_9allocatorIcEEEE, symObjAddr: 0x23AC, symBinAddr: 0x1000070A0, symSize: 0x58 }
  - { offsetInCU: 0x147FE, offset: 0x2D954, size: 0x8, addend: 0x0, symName: __ZNK5Graph16topologicalOrderENSt3__112basic_stringIcNS0_11char_traitsIcEENS0_9allocatorIcEEEERNS0_5stackIS6_NS0_5dequeIS6_NS4_IS6_EEEEEERNS0_3setIS6_NS0_4lessIS6_EES9_EE, symObjAddr: 0x2404, symBinAddr: 0x1000070F8, symSize: 0x25C }
  - { offsetInCU: 0x1489E, offset: 0x2D9F4, size: 0x8, addend: 0x0, symName: __ZNK5Graph16topologicalOrderENSt3__112basic_stringIcNS0_11char_traitsIcEENS0_9allocatorIcEEEE, symObjAddr: 0x2660, symBinAddr: 0x100007354, symSize: 0x1CC }
  - { offsetInCU: 0x14931, offset: 0x2DA87, size: 0x8, addend: 0x0, symName: __ZNKSt3__15stackINS_12basic_stringIcNS_11char_traitsIcEENS_9allocatorIcEEEENS_5dequeIS6_NS4_IS6_EEEEE4sizeB7v160006Ev, symObjAddr: 0x282C, symBinAddr: 0x100007520, symSize: 0x24 }
  - { offsetInCU: 0x14955, offset: 0x2DAAB, size: 0x8, addend: 0x0, symName: __ZNK5Graph13cycleTraverseENSt3__112basic_stringIcNS0_11char_traitsIcEENS0_9allocatorIcEEEERNS0_3setIS6_NS0_4lessIS6_EENS4_IS6_EEEERb, symObjAddr: 0x2850, symBinAddr: 0x100007544, symSize: 0x1B0 }
  - { offsetInCU: 0x149EB, offset: 0x2DB41, size: 0x8, addend: 0x0, symName: __ZNSt3__13setINS_12basic_stringIcNS_11char_traitsIcEENS_9allocatorIcEEEENS_4lessIS6_EENS4_IS6_EEE5eraseB7v160006ERKS6_, symObjAddr: 0x2A00, symBinAddr: 0x1000076F4, symSize: 0x2C }
  - { offsetInCU: 0x14A1E, offset: 0x2DB74, size: 0x8, addend: 0x0, symName: __ZNK5Graph8hasCycleEv, symObjAddr: 0x2A2C, symBinAddr: 0x100007720, symSize: 0x24C }
  - { offsetInCU: 0x14B1A, offset: 0x2DC70, size: 0x8, addend: 0x0, symName: __ZNSt3__13setINS_12basic_stringIcNS_11char_traitsIcEENS_9allocatorIcEEEENS_4lessIS6_EENS4_IS6_EEE5beginB7v160006Ev, symObjAddr: 0x2C78, symBinAddr: 0x10000796C, symSize: 0x38 }
  - { offsetInCU: 0x14B3E, offset: 0x2DC94, size: 0x8, addend: 0x0, symName: __ZNSt3__13setINS_12basic_stringIcNS_11char_traitsIcEENS_9allocatorIcEEEENS_4lessIS6_EENS4_IS6_EEE3endB7v160006Ev, symObjAddr: 0x2CB0, symBinAddr: 0x1000079A4, symSize: 0x38 }
  - { offsetInCU: 0x14B62, offset: 0x2DCB8, size: 0x8, addend: 0x0, symName: __ZNKSt3__121__tree_const_iteratorINS_12basic_stringIcNS_11char_traitsIcEENS_9allocatorIcEEEEPNS_11__tree_nodeIS6_PvEElEdeB7v160006Ev, symObjAddr: 0x2D1C, symBinAddr: 0x100007A10, symSize: 0x28 }
  - { offsetInCU: 0x14B86, offset: 0x2DCDC, size: 0x8, addend: 0x0, symName: __ZNSt3__121__tree_const_iteratorINS_12basic_stringIcNS_11char_traitsIcEENS_9allocatorIcEEEEPNS_11__tree_nodeIS6_PvEElEppB7v160006Ev, symObjAddr: 0x2D44, symBinAddr: 0x100007A38, symSize: 0x38 }
  - { offsetInCU: 0x14BAA, offset: 0x2DD00, size: 0x8, addend: 0x0, symName: __ZNKSt3__112basic_stringIcNS_11char_traitsIcEENS_9allocatorIcEEE4sizeB7v160006Ev, symObjAddr: 0x2D7C, symBinAddr: 0x100007A70, symSize: 0x54 }
  - { offsetInCU: 0x14BCE, offset: 0x2DD24, size: 0x8, addend: 0x0, symName: __ZNKSt3__112basic_stringIcNS_11char_traitsIcEENS_9allocatorIcEEE15__get_long_sizeB7v160006Ev, symObjAddr: 0x2E08, symBinAddr: 0x100007AC4, symSize: 0x28 }
  - { offsetInCU: 0x14BF2, offset: 0x2DD48, size: 0x8, addend: 0x0, symName: __ZNKSt3__112basic_stringIcNS_11char_traitsIcEENS_9allocatorIcEEE16__get_short_sizeB7v160006Ev, symObjAddr: 0x2E30, symBinAddr: 0x100007AEC, symSize: 0x34 }
  - { offsetInCU: 0x14C16, offset: 0x2DD6C, size: 0x8, addend: 0x0, symName: __ZNSt3__14pairIKNS_12basic_stringIcNS_11char_traitsIcEENS_9allocatorIcEEEENS_4listIP4NodeNS4_ISA_EEEEEC2B7v160006IRS7_RSC_LPv0EEEOT_OT0_, symObjAddr: 0x2E9C, symBinAddr: 0x100007B20, symSize: 0x70 }
  - { offsetInCU: 0x14C73, offset: 0x2DDC9, size: 0x8, addend: 0x0, symName: __ZNSt3__14pairIKNS_12basic_stringIcNS_11char_traitsIcEENS_9allocatorIcEEEENS_4listIP4NodeNS4_ISA_EEEEED2Ev, symObjAddr: 0x2F0C, symBinAddr: 0x100007B90, symSize: 0x38 }
  - { offsetInCU: 0x14C9D, offset: 0x2DDF3, size: 0x8, addend: 0x0, symName: __ZNSt3__14listIP4NodeNS_9allocatorIS2_EEED2Ev, symObjAddr: 0x2F44, symBinAddr: 0x100007BC8, symSize: 0x2C }
  - { offsetInCU: 0x14CC9, offset: 0x2DE1F, size: 0x8, addend: 0x0, symName: __ZNSt3__110__list_impIP4NodeNS_9allocatorIS2_EEED2Ev, symObjAddr: 0x2F70, symBinAddr: 0x100007BF4, symSize: 0x3C }
  - { offsetInCU: 0x14CF4, offset: 0x2DE4A, size: 0x8, addend: 0x0, symName: __ZNSt3__110__list_impIP4NodeNS_9allocatorIS2_EEE5clearEv, symObjAddr: 0x2FAC, symBinAddr: 0x100007C30, symSize: 0xEC }
  - { offsetInCU: 0x14D62, offset: 0x2DEB8, size: 0x8, addend: 0x0, symName: __ZNKSt3__110__list_impIP4NodeNS_9allocatorIS2_EEE5emptyB7v160006Ev, symObjAddr: 0x30B4, symBinAddr: 0x100007D2C, symSize: 0x34 }
  - { offsetInCU: 0x14D86, offset: 0x2DEDC, size: 0x8, addend: 0x0, symName: __ZNSt3__110__list_impIP4NodeNS_9allocatorIS2_EEE12__node_allocB7v160006Ev, symObjAddr: 0x30E8, symBinAddr: 0x100007D60, symSize: 0x28 }
  - { offsetInCU: 0x14DAA, offset: 0x2DF00, size: 0x8, addend: 0x0, symName: __ZNKSt3__110__list_impIP4NodeNS_9allocatorIS2_EEE13__end_as_linkB7v160006Ev, symObjAddr: 0x3110, symBinAddr: 0x100007D88, symSize: 0x44 }
  - { offsetInCU: 0x14DCE, offset: 0x2DF24, size: 0x8, addend: 0x0, symName: __ZNSt3__110__list_impIP4NodeNS_9allocatorIS2_EEE14__unlink_nodesEPNS_16__list_node_baseIS2_PvEES9_, symObjAddr: 0x3154, symBinAddr: 0x100007DCC, symSize: 0x3C }
  - { offsetInCU: 0x14E03, offset: 0x2DF59, size: 0x8, addend: 0x0, symName: __ZNSt3__110__list_impIP4NodeNS_9allocatorIS2_EEE4__szB7v160006Ev, symObjAddr: 0x3190, symBinAddr: 0x100007E08, symSize: 0x28 }
  - { offsetInCU: 0x14E27, offset: 0x2DF7D, size: 0x8, addend: 0x0, symName: __ZNSt3__116__list_node_baseIP4NodePvE9__as_nodeB7v160006Ev, symObjAddr: 0x31B8, symBinAddr: 0x100007E30, symSize: 0x24 }
  - { offsetInCU: 0x14E4B, offset: 0x2DFA1, size: 0x8, addend: 0x0, symName: __ZNSt3__116allocator_traitsINS_9allocatorINS_11__list_nodeIP4NodePvEEEEE7destroyB7v160006IS4_vvEEvRS7_PT_, symObjAddr: 0x31DC, symBinAddr: 0x100007E54, symSize: 0x28 }
  - { offsetInCU: 0x14E87, offset: 0x2DFDD, size: 0x8, addend: 0x0, symName: __ZNSt3__116allocator_traitsINS_9allocatorINS_11__list_nodeIP4NodePvEEEEE10deallocateB7v160006ERS7_PS6_m, symObjAddr: 0x3204, symBinAddr: 0x100007E7C, symSize: 0x34 }
  - { offsetInCU: 0x14EC8, offset: 0x2E01E, size: 0x8, addend: 0x0, symName: __ZNKSt3__110__list_impIP4NodeNS_9allocatorIS2_EEE4__szB7v160006Ev, symObjAddr: 0x3248, symBinAddr: 0x100007EC0, symSize: 0x28 }
  - { offsetInCU: 0x14EEC, offset: 0x2E042, size: 0x8, addend: 0x0, symName: __ZNKSt3__117__compressed_pairImNS_9allocatorINS_11__list_nodeIP4NodePvEEEEE5firstB7v160006Ev, symObjAddr: 0x3270, symBinAddr: 0x100007EE8, symSize: 0x24 }
  - { offsetInCU: 0x14F10, offset: 0x2E066, size: 0x8, addend: 0x0, symName: __ZNKSt3__122__compressed_pair_elemImLi0ELb0EE5__getB7v160006Ev, symObjAddr: 0x3294, symBinAddr: 0x100007F0C, symSize: 0x14 }
  - { offsetInCU: 0x14F34, offset: 0x2E08A, size: 0x8, addend: 0x0, symName: __ZNSt3__117__compressed_pairImNS_9allocatorINS_11__list_nodeIP4NodePvEEEEE6secondB7v160006Ev, symObjAddr: 0x32A8, symBinAddr: 0x100007F20, symSize: 0x24 }
  - { offsetInCU: 0x14F58, offset: 0x2E0AE, size: 0x8, addend: 0x0, symName: __ZNSt3__122__compressed_pair_elemINS_9allocatorINS_11__list_nodeIP4NodePvEEEELi1ELb1EE5__getB7v160006Ev, symObjAddr: 0x32CC, symBinAddr: 0x100007F44, symSize: 0x14 }
  - { offsetInCU: 0x14F7C, offset: 0x2E0D2, size: 0x8, addend: 0x0, symName: __ZNSt3__126__list_node_pointer_traitsIP4NodePvE26__unsafe_link_pointer_castB7v160006EPNS_16__list_node_baseIS2_S3_EE, symObjAddr: 0x32E0, symBinAddr: 0x100007F58, symSize: 0x14 }
  - { offsetInCU: 0x14F9F, offset: 0x2E0F5, size: 0x8, addend: 0x0, symName: __ZNSt3__116__list_node_baseIP4NodePvE6__selfB7v160006Ev, symObjAddr: 0x32F4, symBinAddr: 0x100007F6C, symSize: 0x24 }
  - { offsetInCU: 0x14FC8, offset: 0x2E11E, size: 0x8, addend: 0x0, symName: __ZNSt3__114pointer_traitsIPNS_16__list_node_baseIP4NodePvEEE10pointer_toB7v160006ERS5_, symObjAddr: 0x3318, symBinAddr: 0x100007F90, symSize: 0x14 }
  - { offsetInCU: 0x14FEA, offset: 0x2E140, size: 0x8, addend: 0x0, symName: __ZNSt3__117__compressed_pairImNS_9allocatorINS_11__list_nodeIP4NodePvEEEEE5firstB7v160006Ev, symObjAddr: 0x332C, symBinAddr: 0x100007FA4, symSize: 0x24 }
  - { offsetInCU: 0x1500E, offset: 0x2E164, size: 0x8, addend: 0x0, symName: __ZNSt3__122__compressed_pair_elemImLi0ELb0EE5__getB7v160006Ev, symObjAddr: 0x3350, symBinAddr: 0x100007FC8, symSize: 0x14 }
  - { offsetInCU: 0x15032, offset: 0x2E188, size: 0x8, addend: 0x0, symName: __ZNSt3__19allocatorINS_11__list_nodeIP4NodePvEEE10deallocateB7v160006EPS5_m, symObjAddr: 0x3398, symBinAddr: 0x100008010, symSize: 0x44 }
  - { offsetInCU: 0x15072, offset: 0x2E1C8, size: 0x8, addend: 0x0, symName: __ZNKSt3__112basic_stringIcNS_11char_traitsIcEENS_9allocatorIcEEE4dataB7v160006Ev, symObjAddr: 0x3504, symBinAddr: 0x100008054, symSize: 0x28 }
  - { offsetInCU: 0x15096, offset: 0x2E1EC, size: 0x8, addend: 0x0, symName: __ZNSt3__111char_traitsIcE7compareEPKcS3_m, symObjAddr: 0x352C, symBinAddr: 0x10000807C, symSize: 0x6C }
  - { offsetInCU: 0x150D4, offset: 0x2E22A, size: 0x8, addend: 0x0, symName: __ZNKSt3__112basic_stringIcNS_11char_traitsIcEENS_9allocatorIcEEE13__get_pointerB7v160006Ev, symObjAddr: 0x35AC, symBinAddr: 0x1000080FC, symSize: 0x54 }
  - { offsetInCU: 0x150F8, offset: 0x2E24E, size: 0x8, addend: 0x0, symName: __ZNKSt3__112basic_stringIcNS_11char_traitsIcEENS_9allocatorIcEEE18__get_long_pointerB7v160006Ev, symObjAddr: 0x3600, symBinAddr: 0x100008150, symSize: 0x28 }
  - { offsetInCU: 0x1511C, offset: 0x2E272, size: 0x8, addend: 0x0, symName: __ZNKSt3__112basic_stringIcNS_11char_traitsIcEENS_9allocatorIcEEE19__get_short_pointerB7v160006Ev, symObjAddr: 0x3628, symBinAddr: 0x100008178, symSize: 0x28 }
  - { offsetInCU: 0x15140, offset: 0x2E296, size: 0x8, addend: 0x0, symName: __ZNSt3__114pointer_traitsIPKcE10pointer_toB7v160006ERS1_, symObjAddr: 0x3650, symBinAddr: 0x1000081A0, symSize: 0x14 }
  - { offsetInCU: 0x15162, offset: 0x2E2B8, size: 0x8, addend: 0x0, symName: __ZN4NodeC2ENSt3__112basic_stringIcNS0_11char_traitsIcEENS0_9allocatorIcEEEE, symObjAddr: 0x3698, symBinAddr: 0x1000081E8, symSize: 0x34 }
  - { offsetInCU: 0x15199, offset: 0x2E2EF, size: 0x8, addend: 0x0, symName: __ZNSt3__15stackINS_12basic_stringIcNS_11char_traitsIcEENS_9allocatorIcEEEENS_5dequeIS6_NS4_IS6_EEEEED2Ev, symObjAddr: 0x36CC, symBinAddr: 0x10000821C, symSize: 0x2C }
  - { offsetInCU: 0x151C3, offset: 0x2E319, size: 0x8, addend: 0x0, symName: __ZNSt3__15dequeINS_12basic_stringIcNS_11char_traitsIcEENS_9allocatorIcEEEENS4_IS6_EEED1B7v160006Ev, symObjAddr: 0x36F8, symBinAddr: 0x100008248, symSize: 0x2C }
  - { offsetInCU: 0x151EB, offset: 0x2E341, size: 0x8, addend: 0x0, symName: __ZNSt3__15dequeINS_12basic_stringIcNS_11char_traitsIcEENS_9allocatorIcEEEENS4_IS6_EEED2B7v160006Ev, symObjAddr: 0x3724, symBinAddr: 0x100008274, symSize: 0x9C }
  - { offsetInCU: 0x15240, offset: 0x2E396, size: 0x8, addend: 0x0, symName: __ZNSt3__15dequeINS_12basic_stringIcNS_11char_traitsIcEENS_9allocatorIcEEEENS4_IS6_EEE5clearEv, symObjAddr: 0x37C0, symBinAddr: 0x100008310, symSize: 0x180 }
  - { offsetInCU: 0x15299, offset: 0x2E3EF, size: 0x8, addend: 0x0, symName: __ZNSt3__114__split_bufferIPNS_12basic_stringIcNS_11char_traitsIcEENS_9allocatorIcEEEENS4_IS7_EEE5beginB7v160006Ev, symObjAddr: 0x3940, symBinAddr: 0x100008490, symSize: 0x18 }
  - { offsetInCU: 0x152BD, offset: 0x2E413, size: 0x8, addend: 0x0, symName: __ZNSt3__114__split_bufferIPNS_12basic_stringIcNS_11char_traitsIcEENS_9allocatorIcEEEENS4_IS7_EEE3endB7v160006Ev, symObjAddr: 0x3958, symBinAddr: 0x1000084A8, symSize: 0x18 }
  - { offsetInCU: 0x152E1, offset: 0x2E437, size: 0x8, addend: 0x0, symName: __ZNSt3__116allocator_traitsINS_9allocatorINS_12basic_stringIcNS_11char_traitsIcEENS1_IcEEEEEEE10deallocateB7v160006ERS7_PS6_m, symObjAddr: 0x3970, symBinAddr: 0x1000084C0, symSize: 0x34 }
  - { offsetInCU: 0x15322, offset: 0x2E478, size: 0x8, addend: 0x0, symName: __ZNSt3__15dequeINS_12basic_stringIcNS_11char_traitsIcEENS_9allocatorIcEEEENS4_IS6_EEE7__allocB7v160006Ev, symObjAddr: 0x39A4, symBinAddr: 0x1000084F4, symSize: 0x28 }
  - { offsetInCU: 0x15346, offset: 0x2E49C, size: 0x8, addend: 0x0, symName: __ZNSt3__114__split_bufferIPNS_12basic_stringIcNS_11char_traitsIcEENS_9allocatorIcEEEENS4_IS7_EEED1Ev, symObjAddr: 0x39CC, symBinAddr: 0x10000851C, symSize: 0x2C }
  - { offsetInCU: 0x15371, offset: 0x2E4C7, size: 0x8, addend: 0x0, symName: __ZNSt3__15dequeINS_12basic_stringIcNS_11char_traitsIcEENS_9allocatorIcEEEENS4_IS6_EEE5beginB7v160006Ev, symObjAddr: 0x39F8, symBinAddr: 0x100008548, symSize: 0xC0 }
  - { offsetInCU: 0x153A4, offset: 0x2E4FA, size: 0x8, addend: 0x0, symName: __ZNSt3__15dequeINS_12basic_stringIcNS_11char_traitsIcEENS_9allocatorIcEEEENS4_IS6_EEE3endB7v160006Ev, symObjAddr: 0x3AB8, symBinAddr: 0x100008608, symSize: 0xC4 }
  - { offsetInCU: 0x153E6, offset: 0x2E53C, size: 0x8, addend: 0x0, symName: __ZNSt3__116allocator_traitsINS_9allocatorINS_12basic_stringIcNS_11char_traitsIcEENS1_IcEEEEEEE7destroyB7v160006IS6_vvEEvRS7_PT_, symObjAddr: 0x3BB0, symBinAddr: 0x100008700, symSize: 0x28 }
  - { offsetInCU: 0x15422, offset: 0x2E578, size: 0x8, addend: 0x0, symName: __ZNKSt3__116__deque_iteratorINS_12basic_stringIcNS_11char_traitsIcEENS_9allocatorIcEEEEPS6_RS6_PS7_lLl170EEdeB7v160006Ev, symObjAddr: 0x3BD8, symBinAddr: 0x100008728, symSize: 0x18 }
  - { offsetInCU: 0x15446, offset: 0x2E59C, size: 0x8, addend: 0x0, symName: __ZNSt3__116__deque_iteratorINS_12basic_stringIcNS_11char_traitsIcEENS_9allocatorIcEEEEPS6_RS6_PS7_lLl170EEppB7v160006Ev, symObjAddr: 0x3BF0, symBinAddr: 0x100008740, symSize: 0x70 }
  - { offsetInCU: 0x1546A, offset: 0x2E5C0, size: 0x8, addend: 0x0, symName: __ZNSt3__15dequeINS_12basic_stringIcNS_11char_traitsIcEENS_9allocatorIcEEEENS4_IS6_EEE6__sizeB7v160006Ev, symObjAddr: 0x3C60, symBinAddr: 0x1000087B0, symSize: 0x28 }
  - { offsetInCU: 0x1548E, offset: 0x2E5E4, size: 0x8, addend: 0x0, symName: __ZNKSt3__114__split_bufferIPNS_12basic_stringIcNS_11char_traitsIcEENS_9allocatorIcEEEENS4_IS7_EEE4sizeB7v160006Ev, symObjAddr: 0x3C88, symBinAddr: 0x1000087D8, symSize: 0x28 }
  - { offsetInCU: 0x154B2, offset: 0x2E608, size: 0x8, addend: 0x0, symName: __ZNSt3__114__split_bufferIPNS_12basic_stringIcNS_11char_traitsIcEENS_9allocatorIcEEEENS4_IS7_EEE5frontB7v160006Ev, symObjAddr: 0x3CB0, symBinAddr: 0x100008800, symSize: 0x18 }
  - { offsetInCU: 0x154D6, offset: 0x2E62C, size: 0x8, addend: 0x0, symName: __ZNSt3__114__split_bufferIPNS_12basic_stringIcNS_11char_traitsIcEENS_9allocatorIcEEEENS4_IS7_EEE9pop_frontB7v160006Ev, symObjAddr: 0x3CC8, symBinAddr: 0x100008818, symSize: 0x2C }
  - { offsetInCU: 0x154FA, offset: 0x2E650, size: 0x8, addend: 0x0, symName: __ZNKSt3__114__split_bufferIPNS_12basic_stringIcNS_11char_traitsIcEENS_9allocatorIcEEEENS4_IS7_EEE5emptyB7v160006Ev, symObjAddr: 0x3CF4, symBinAddr: 0x100008844, symSize: 0x28 }
  - { offsetInCU: 0x1551E, offset: 0x2E674, size: 0x8, addend: 0x0, symName: __ZNSt3__116__deque_iteratorINS_12basic_stringIcNS_11char_traitsIcEENS_9allocatorIcEEEEPS6_RS6_PS7_lLl170EEC1B7v160006ES9_S7_, symObjAddr: 0x3D1C, symBinAddr: 0x10000886C, symSize: 0x3C }
  - { offsetInCU: 0x15564, offset: 0x2E6BA, size: 0x8, addend: 0x0, symName: __ZNSt3__116__deque_iteratorINS_12basic_stringIcNS_11char_traitsIcEENS_9allocatorIcEEEEPS6_RS6_PS7_lLl170EEC2B7v160006ES9_S7_, symObjAddr: 0x3D58, symBinAddr: 0x1000088A8, symSize: 0x2C }
  - { offsetInCU: 0x155AA, offset: 0x2E700, size: 0x8, addend: 0x0, symName: __ZNKSt3__15dequeINS_12basic_stringIcNS_11char_traitsIcEENS_9allocatorIcEEEENS4_IS6_EEE4sizeB7v160006Ev, symObjAddr: 0x3D84, symBinAddr: 0x1000088D4, symSize: 0x28 }
  - { offsetInCU: 0x155CE, offset: 0x2E724, size: 0x8, addend: 0x0, symName: __ZNKSt3__15dequeINS_12basic_stringIcNS_11char_traitsIcEENS_9allocatorIcEEEENS4_IS6_EEE6__sizeB7v160006Ev, symObjAddr: 0x3DAC, symBinAddr: 0x1000088FC, symSize: 0x28 }
  - { offsetInCU: 0x155F2, offset: 0x2E748, size: 0x8, addend: 0x0, symName: __ZNKSt3__117__compressed_pairImNS_9allocatorINS_12basic_stringIcNS_11char_traitsIcEENS1_IcEEEEEEE5firstB7v160006Ev, symObjAddr: 0x3DD4, symBinAddr: 0x100008924, symSize: 0x24 }
  - { offsetInCU: 0x15616, offset: 0x2E76C, size: 0x8, addend: 0x0, symName: __ZNSt3__117__compressed_pairImNS_9allocatorINS_12basic_stringIcNS_11char_traitsIcEENS1_IcEEEEEEE5firstB7v160006Ev, symObjAddr: 0x3E70, symBinAddr: 0x1000089C0, symSize: 0x24 }
  - { offsetInCU: 0x1563A, offset: 0x2E790, size: 0x8, addend: 0x0, symName: __ZNSt3__114__split_bufferIPNS_12basic_stringIcNS_11char_traitsIcEENS_9allocatorIcEEEENS4_IS7_EEE19__destruct_at_beginB7v160006EPS7_, symObjAddr: 0x3E94, symBinAddr: 0x1000089E4, symSize: 0x2C }
  - { offsetInCU: 0x1566C, offset: 0x2E7C2, size: 0x8, addend: 0x0, symName: __ZNSt3__114__split_bufferIPNS_12basic_stringIcNS_11char_traitsIcEENS_9allocatorIcEEEENS4_IS7_EEE19__destruct_at_beginEPS7_NS_17integral_constantIbLb1EEE, symObjAddr: 0x3EC0, symBinAddr: 0x100008A10, symSize: 0x20 }
  - { offsetInCU: 0x156AA, offset: 0x2E800, size: 0x8, addend: 0x0, symName: __ZNSt3__19allocatorINS_12basic_stringIcNS_11char_traitsIcEENS0_IcEEEEE10deallocateB7v160006EPS5_m, symObjAddr: 0x3EE0, symBinAddr: 0x100008A30, symSize: 0x44 }
  - { offsetInCU: 0x156EA, offset: 0x2E840, size: 0x8, addend: 0x0, symName: __ZNSt3__117__compressed_pairImNS_9allocatorINS_12basic_stringIcNS_11char_traitsIcEENS1_IcEEEEEEE6secondB7v160006Ev, symObjAddr: 0x3F24, symBinAddr: 0x100008A74, symSize: 0x24 }
  - { offsetInCU: 0x1570E, offset: 0x2E864, size: 0x8, addend: 0x0, symName: __ZNSt3__122__compressed_pair_elemINS_9allocatorINS_12basic_stringIcNS_11char_traitsIcEENS1_IcEEEEEELi1ELb1EE5__getB7v160006Ev, symObjAddr: 0x3F48, symBinAddr: 0x100008A98, symSize: 0x14 }
  - { offsetInCU: 0x15732, offset: 0x2E888, size: 0x8, addend: 0x0, symName: __ZNSt3__114__split_bufferIPNS_12basic_stringIcNS_11char_traitsIcEENS_9allocatorIcEEEENS4_IS7_EEED2Ev, symObjAddr: 0x3F5C, symBinAddr: 0x100008AAC, symSize: 0x8C }
  - { offsetInCU: 0x1575D, offset: 0x2E8B3, size: 0x8, addend: 0x0, symName: __ZNSt3__114__split_bufferIPNS_12basic_stringIcNS_11char_traitsIcEENS_9allocatorIcEEEENS4_IS7_EEE5clearB7v160006Ev, symObjAddr: 0x3FE8, symBinAddr: 0x100008B38, symSize: 0x28 }
  - { offsetInCU: 0x15781, offset: 0x2E8D7, size: 0x8, addend: 0x0, symName: __ZNSt3__116allocator_traitsINS_9allocatorIPNS_12basic_stringIcNS_11char_traitsIcEENS1_IcEEEEEEE10deallocateB7v160006ERS8_PS7_m, symObjAddr: 0x4010, symBinAddr: 0x100008B60, symSize: 0x34 }
  - { offsetInCU: 0x157C2, offset: 0x2E918, size: 0x8, addend: 0x0, symName: __ZNSt3__114__split_bufferIPNS_12basic_stringIcNS_11char_traitsIcEENS_9allocatorIcEEEENS4_IS7_EEE7__allocB7v160006Ev, symObjAddr: 0x4044, symBinAddr: 0x100008B94, symSize: 0x28 }
  - { offsetInCU: 0x157E6, offset: 0x2E93C, size: 0x8, addend: 0x0, symName: __ZNKSt3__114__split_bufferIPNS_12basic_stringIcNS_11char_traitsIcEENS_9allocatorIcEEEENS4_IS7_EEE8capacityB7v160006Ev, symObjAddr: 0x406C, symBinAddr: 0x100008BBC, symSize: 0x40 }
  - { offsetInCU: 0x1580A, offset: 0x2E960, size: 0x8, addend: 0x0, symName: __ZNSt3__114__split_bufferIPNS_12basic_stringIcNS_11char_traitsIcEENS_9allocatorIcEEEENS4_IS7_EEE17__destruct_at_endB7v160006EPS7_, symObjAddr: 0x40AC, symBinAddr: 0x100008BFC, symSize: 0x2C }
  - { offsetInCU: 0x1583C, offset: 0x2E992, size: 0x8, addend: 0x0, symName: __ZNSt3__114__split_bufferIPNS_12basic_stringIcNS_11char_traitsIcEENS_9allocatorIcEEEENS4_IS7_EEE17__destruct_at_endB7v160006EPS7_NS_17integral_constantIbLb0EEE, symObjAddr: 0x40D8, symBinAddr: 0x100008C28, symSize: 0x80 }
  - { offsetInCU: 0x1587A, offset: 0x2E9D0, size: 0x8, addend: 0x0, symName: __ZNSt3__116allocator_traitsINS_9allocatorIPNS_12basic_stringIcNS_11char_traitsIcEENS1_IcEEEEEEE7destroyB7v160006IS7_vvEEvRS8_PT_, symObjAddr: 0x4158, symBinAddr: 0x100008CA8, symSize: 0x28 }
  - { offsetInCU: 0x158B6, offset: 0x2EA0C, size: 0x8, addend: 0x0, symName: __ZNSt3__19allocatorIPNS_12basic_stringIcNS_11char_traitsIcEENS0_IcEEEEE10deallocateB7v160006EPS6_m, symObjAddr: 0x41C8, symBinAddr: 0x100008D18, symSize: 0x40 }
  - { offsetInCU: 0x158F6, offset: 0x2EA4C, size: 0x8, addend: 0x0, symName: __ZNSt3__117__compressed_pairIPPNS_12basic_stringIcNS_11char_traitsIcEENS_9allocatorIcEEEENS4_IS7_EEE6secondB7v160006Ev, symObjAddr: 0x4208, symBinAddr: 0x100008D58, symSize: 0x24 }
  - { offsetInCU: 0x1591A, offset: 0x2EA70, size: 0x8, addend: 0x0, symName: __ZNSt3__122__compressed_pair_elemINS_9allocatorIPNS_12basic_stringIcNS_11char_traitsIcEENS1_IcEEEEEELi1ELb1EE5__getB7v160006Ev, symObjAddr: 0x422C, symBinAddr: 0x100008D7C, symSize: 0x14 }
  - { offsetInCU: 0x1593E, offset: 0x2EA94, size: 0x8, addend: 0x0, symName: __ZNKSt3__114__split_bufferIPNS_12basic_stringIcNS_11char_traitsIcEENS_9allocatorIcEEEENS4_IS7_EEE9__end_capB7v160006Ev, symObjAddr: 0x4240, symBinAddr: 0x100008D90, symSize: 0x28 }
  - { offsetInCU: 0x15962, offset: 0x2EAB8, size: 0x8, addend: 0x0, symName: __ZNKSt3__117__compressed_pairIPPNS_12basic_stringIcNS_11char_traitsIcEENS_9allocatorIcEEEENS4_IS7_EEE5firstB7v160006Ev, symObjAddr: 0x4268, symBinAddr: 0x100008DB8, symSize: 0x24 }
  - { offsetInCU: 0x15986, offset: 0x2EADC, size: 0x8, addend: 0x0, symName: __ZNKSt3__122__compressed_pair_elemIPPNS_12basic_stringIcNS_11char_traitsIcEENS_9allocatorIcEEEELi0ELb0EE5__getB7v160006Ev, symObjAddr: 0x428C, symBinAddr: 0x100008DDC, symSize: 0x14 }
  - { offsetInCU: 0x159AA, offset: 0x2EB00, size: 0x8, addend: 0x0, symName: __ZNSt3__15queueINS_12basic_stringIcNS_11char_traitsIcEENS_9allocatorIcEEEENS_5dequeIS6_NS4_IS6_EEEEED2Ev, symObjAddr: 0x42A0, symBinAddr: 0x100008DF0, symSize: 0x2C }
  - { offsetInCU: 0x159D6, offset: 0x2EB2C, size: 0x8, addend: 0x0, symName: __ZNSt3__113unordered_mapINS_12basic_stringIcNS_11char_traitsIcEENS_9allocatorIcEEEENS_4listIP4NodeNS4_IS9_EEEENS_4hashIS6_EENS_8equal_toIS6_EENS4_INS_4pairIKS6_SB_EEEEEC2B7v160006Ev, symObjAddr: 0x42CC, symBinAddr: 0x100008E1C, symSize: 0x3C }
  - { offsetInCU: 0x159FE, offset: 0x2EB54, size: 0x8, addend: 0x0, symName: __ZNSt3__112__hash_tableINS_17__hash_value_typeINS_12basic_stringIcNS_11char_traitsIcEENS_9allocatorIcEEEENS_4listIP4NodeNS5_ISA_EEEEEENS_22__unordered_map_hasherIS7_SD_NS_4hashIS7_EENS_8equal_toIS7_EELb1EEENS_21__unordered_map_equalIS7_SD_SI_SG_Lb1EEENS5_ISD_EEEC1Ev, symObjAddr: 0x4308, symBinAddr: 0x100008E58, symSize: 0x2C }
  - { offsetInCU: 0x15A29, offset: 0x2EB7F, size: 0x8, addend: 0x0, symName: __ZNSt3__112__hash_tableINS_17__hash_value_typeINS_12basic_stringIcNS_11char_traitsIcEENS_9allocatorIcEEEENS_4listIP4NodeNS5_ISA_EEEEEENS_22__unordered_map_hasherIS7_SD_NS_4hashIS7_EENS_8equal_toIS7_EELb1EEENS_21__unordered_map_equalIS7_SD_SI_SG_Lb1EEENS5_ISD_EEEC2Ev, symObjAddr: 0x4344, symBinAddr: 0x100008E94, symSize: 0x7C }
  - { offsetInCU: 0x15A54, offset: 0x2EBAA, size: 0x8, addend: 0x0, symName: __ZNSt3__110unique_ptrIA_PNS_16__hash_node_baseIPNS_11__hash_nodeINS_17__hash_value_typeINS_12basic_stringIcNS_11char_traitsIcEENS_9allocatorIcEEEENS_4listIP4NodeNS7_ISC_EEEEEEPvEEEENS_25__bucket_list_deallocatorINS7_ISK_EEEEEC1B7v160006ILb1EvEEv, symObjAddr: 0x43C0, symBinAddr: 0x100008F10, symSize: 0x2C }
  - { offsetInCU: 0x15A88, offset: 0x2EBDE, size: 0x8, addend: 0x0, symName: __ZNSt3__117__compressed_pairINS_16__hash_node_baseIPNS_11__hash_nodeINS_17__hash_value_typeINS_12basic_stringIcNS_11char_traitsIcEENS_9allocatorIcEEEENS_4listIP4NodeNS7_ISC_EEEEEEPvEEEENS7_ISH_EEEC1B7v160006ILb1EvEEv, symObjAddr: 0x43EC, symBinAddr: 0x100008F3C, symSize: 0x2C }
  - { offsetInCU: 0x15AC6, offset: 0x2EC1C, size: 0x8, addend: 0x0, symName: __ZNSt3__117__compressed_pairImNS_22__unordered_map_hasherINS_12basic_stringIcNS_11char_traitsIcEENS_9allocatorIcEEEENS_17__hash_value_typeIS7_NS_4listIP4NodeNS5_ISB_EEEEEENS_4hashIS7_EENS_8equal_toIS7_EELb1EEEEC1B7v160006IiNS_18__default_init_tagEEEOT_OT0_, symObjAddr: 0x4418, symBinAddr: 0x100008F68, symSize: 0x3C }
  - { offsetInCU: 0x15B21, offset: 0x2EC77, size: 0x8, addend: 0x0, symName: __ZNSt3__117__compressed_pairIfNS_21__unordered_map_equalINS_12basic_stringIcNS_11char_traitsIcEENS_9allocatorIcEEEENS_17__hash_value_typeIS7_NS_4listIP4NodeNS5_ISB_EEEEEENS_8equal_toIS7_EENS_4hashIS7_EELb1EEEEC1B7v160006IfNS_18__default_init_tagEEEOT_OT0_, symObjAddr: 0x4454, symBinAddr: 0x100008FA4, symSize: 0x3C }
  - { offsetInCU: 0x15B77, offset: 0x2ECCD, size: 0x8, addend: 0x0, symName: __ZNSt3__110unique_ptrIA_PNS_16__hash_node_baseIPNS_11__hash_nodeINS_17__hash_value_typeINS_12basic_stringIcNS_11char_traitsIcEENS_9allocatorIcEEEENS_4listIP4NodeNS7_ISC_EEEEEEPvEEEENS_25__bucket_list_deallocatorINS7_ISK_EEEEEC2B7v160006ILb1EvEEv, symObjAddr: 0x4490, symBinAddr: 0x100008FE0, symSize: 0x3C }
  - { offsetInCU: 0x15BB0, offset: 0x2ED06, size: 0x8, addend: 0x0, symName: __ZNSt3__117__compressed_pairIPPNS_16__hash_node_baseIPNS_11__hash_nodeINS_17__hash_value_typeINS_12basic_stringIcNS_11char_traitsIcEENS_9allocatorIcEEEENS_4listIP4NodeNS7_ISC_EEEEEEPvEEEENS_25__bucket_list_deallocatorINS7_ISK_EEEEEC1B7v160006INS_16__value_init_tagESR_EEOT_OT0_, symObjAddr: 0x44CC, symBinAddr: 0x10000901C, symSize: 0x3C }
  - { offsetInCU: 0x15C06, offset: 0x2ED5C, size: 0x8, addend: 0x0, symName: __ZNSt3__117__compressed_pairIPPNS_16__hash_node_baseIPNS_11__hash_nodeINS_17__hash_value_typeINS_12basic_stringIcNS_11char_traitsIcEENS_9allocatorIcEEEENS_4listIP4NodeNS7_ISC_EEEEEEPvEEEENS_25__bucket_list_deallocatorINS7_ISK_EEEEEC2B7v160006INS_16__value_init_tagESR_EEOT_OT0_, symObjAddr: 0x4508, symBinAddr: 0x100009058, symSize: 0x40 }
  - { offsetInCU: 0x15C5C, offset: 0x2EDB2, size: 0x8, addend: 0x0, symName: __ZNSt3__122__compressed_pair_elemIPPNS_16__hash_node_baseIPNS_11__hash_nodeINS_17__hash_value_typeINS_12basic_stringIcNS_11char_traitsIcEENS_9allocatorIcEEEENS_4listIP4NodeNS7_ISC_EEEEEEPvEEEELi0ELb0EEC2B7v160006ENS_16__value_init_tagE, symObjAddr: 0x4548, symBinAddr: 0x100009098, symSize: 0x18 }
  - { offsetInCU: 0x15C8E, offset: 0x2EDE4, size: 0x8, addend: 0x0, symName: __ZNSt3__122__compressed_pair_elemINS_25__bucket_list_deallocatorINS_9allocatorIPNS_16__hash_node_baseIPNS_11__hash_nodeINS_17__hash_value_typeINS_12basic_stringIcNS_11char_traitsIcEENS2_IcEEEENS_4listIP4NodeNS2_ISD_EEEEEEPvEEEEEEEELi1ELb0EEC2B7v160006ENS_16__value_init_tagE, symObjAddr: 0x4560, symBinAddr: 0x1000090B0, symSize: 0x2C }
  - { offsetInCU: 0x15CC0, offset: 0x2EE16, size: 0x8, addend: 0x0, symName: __ZNSt3__125__bucket_list_deallocatorINS_9allocatorIPNS_16__hash_node_baseIPNS_11__hash_nodeINS_17__hash_value_typeINS_12basic_stringIcNS_11char_traitsIcEENS1_IcEEEENS_4listIP4NodeNS1_ISC_EEEEEEPvEEEEEEEC1B7v160006Ev, symObjAddr: 0x458C, symBinAddr: 0x1000090DC, symSize: 0x2C }
  - { offsetInCU: 0x15CE8, offset: 0x2EE3E, size: 0x8, addend: 0x0, symName: __ZNSt3__125__bucket_list_deallocatorINS_9allocatorIPNS_16__hash_node_baseIPNS_11__hash_nodeINS_17__hash_value_typeINS_12basic_stringIcNS_11char_traitsIcEENS1_IcEEEENS_4listIP4NodeNS1_ISC_EEEEEEPvEEEEEEEC2B7v160006Ev, symObjAddr: 0x45B8, symBinAddr: 0x100009108, symSize: 0x40 }
  - { offsetInCU: 0x15D10, offset: 0x2EE66, size: 0x8, addend: 0x0, symName: __ZNSt3__117__compressed_pairImNS_9allocatorIPNS_16__hash_node_baseIPNS_11__hash_nodeINS_17__hash_value_typeINS_12basic_stringIcNS_11char_traitsIcEENS1_IcEEEENS_4listIP4NodeNS1_ISC_EEEEEEPvEEEEEEEC1B7v160006IiNS_18__default_init_tagEEEOT_OT0_, symObjAddr: 0x45F8, symBinAddr: 0x100009148, symSize: 0x3C }
  - { offsetInCU: 0x15D66, offset: 0x2EEBC, size: 0x8, addend: 0x0, symName: __ZNSt3__117__compressed_pairImNS_9allocatorIPNS_16__hash_node_baseIPNS_11__hash_nodeINS_17__hash_value_typeINS_12basic_stringIcNS_11char_traitsIcEENS1_IcEEEENS_4listIP4NodeNS1_ISC_EEEEEEPvEEEEEEEC2B7v160006IiNS_18__default_init_tagEEEOT_OT0_, symObjAddr: 0x4634, symBinAddr: 0x100009184, symSize: 0x40 }
  - { offsetInCU: 0x15DBC, offset: 0x2EF12, size: 0x8, addend: 0x0, symName: __ZNSt3__122__compressed_pair_elemImLi0ELb0EEC2B7v160006IivEEOT_, symObjAddr: 0x4674, symBinAddr: 0x1000091C4, symSize: 0x24 }
  - { offsetInCU: 0x15DFD, offset: 0x2EF53, size: 0x8, addend: 0x0, symName: __ZNSt3__122__compressed_pair_elemINS_9allocatorIPNS_16__hash_node_baseIPNS_11__hash_nodeINS_17__hash_value_typeINS_12basic_stringIcNS_11char_traitsIcEENS1_IcEEEENS_4listIP4NodeNS1_ISC_EEEEEEPvEEEEEELi1ELb1EEC2B7v160006ENS_18__default_init_tagE, symObjAddr: 0x4698, symBinAddr: 0x1000091E8, symSize: 0x2C }
  - { offsetInCU: 0x15E2F, offset: 0x2EF85, size: 0x8, addend: 0x0, symName: __ZNSt3__19allocatorIPNS_16__hash_node_baseIPNS_11__hash_nodeINS_17__hash_value_typeINS_12basic_stringIcNS_11char_traitsIcEENS0_IcEEEENS_4listIP4NodeNS0_ISB_EEEEEEPvEEEEEC2B7v160006Ev, symObjAddr: 0x46C4, symBinAddr: 0x100009214, symSize: 0x2C }
  - { offsetInCU: 0x15E57, offset: 0x2EFAD, size: 0x8, addend: 0x0, symName: __ZNSt3__116__non_trivial_ifILb1ENS_9allocatorIPNS_16__hash_node_baseIPNS_11__hash_nodeINS_17__hash_value_typeINS_12basic_stringIcNS_11char_traitsIcEENS1_IcEEEENS_4listIP4NodeNS1_ISC_EEEEEEPvEEEEEEEC2B7v160006Ev, symObjAddr: 0x46F0, symBinAddr: 0x100009240, symSize: 0x14 }
  - { offsetInCU: 0x15E7F, offset: 0x2EFD5, size: 0x8, addend: 0x0, symName: __ZNSt3__117__compressed_pairINS_16__hash_node_baseIPNS_11__hash_nodeINS_17__hash_value_typeINS_12basic_stringIcNS_11char_traitsIcEENS_9allocatorIcEEEENS_4listIP4NodeNS7_ISC_EEEEEEPvEEEENS7_ISH_EEEC2B7v160006ILb1EvEEv, symObjAddr: 0x4704, symBinAddr: 0x100009254, symSize: 0x34 }
  - { offsetInCU: 0x15EB3, offset: 0x2F009, size: 0x8, addend: 0x0, symName: __ZNSt3__122__compressed_pair_elemINS_16__hash_node_baseIPNS_11__hash_nodeINS_17__hash_value_typeINS_12basic_stringIcNS_11char_traitsIcEENS_9allocatorIcEEEENS_4listIP4NodeNS7_ISC_EEEEEEPvEEEELi0ELb0EEC2B7v160006ENS_16__value_init_tagE, symObjAddr: 0x4738, symBinAddr: 0x100009288, symSize: 0x2C }
  - { offsetInCU: 0x15EE5, offset: 0x2F03B, size: 0x8, addend: 0x0, symName: __ZNSt3__122__compressed_pair_elemINS_9allocatorINS_11__hash_nodeINS_17__hash_value_typeINS_12basic_stringIcNS_11char_traitsIcEENS1_IcEEEENS_4listIP4NodeNS1_ISB_EEEEEEPvEEEELi1ELb1EEC2B7v160006ENS_16__value_init_tagE, symObjAddr: 0x4764, symBinAddr: 0x1000092B4, symSize: 0x2C }
  - { offsetInCU: 0x15F17, offset: 0x2F06D, size: 0x8, addend: 0x0, symName: __ZNSt3__116__hash_node_baseIPNS_11__hash_nodeINS_17__hash_value_typeINS_12basic_stringIcNS_11char_traitsIcEENS_9allocatorIcEEEENS_4listIP4NodeNS6_ISB_EEEEEEPvEEEC1B7v160006Ev, symObjAddr: 0x4790, symBinAddr: 0x1000092E0, symSize: 0x2C }
  - { offsetInCU: 0x15F3F, offset: 0x2F095, size: 0x8, addend: 0x0, symName: __ZNSt3__116__hash_node_baseIPNS_11__hash_nodeINS_17__hash_value_typeINS_12basic_stringIcNS_11char_traitsIcEENS_9allocatorIcEEEENS_4listIP4NodeNS6_ISB_EEEEEEPvEEEC2B7v160006Ev, symObjAddr: 0x47BC, symBinAddr: 0x10000930C, symSize: 0x18 }
  - { offsetInCU: 0x15F67, offset: 0x2F0BD, size: 0x8, addend: 0x0, symName: __ZNSt3__19allocatorINS_11__hash_nodeINS_17__hash_value_typeINS_12basic_stringIcNS_11char_traitsIcEENS0_IcEEEENS_4listIP4NodeNS0_ISA_EEEEEEPvEEEC2B7v160006Ev, symObjAddr: 0x47D4, symBinAddr: 0x100009324, symSize: 0x2C }
  - { offsetInCU: 0x15F8F, offset: 0x2F0E5, size: 0x8, addend: 0x0, symName: __ZNSt3__116__non_trivial_ifILb1ENS_9allocatorINS_11__hash_nodeINS_17__hash_value_typeINS_12basic_stringIcNS_11char_traitsIcEENS1_IcEEEENS_4listIP4NodeNS1_ISB_EEEEEEPvEEEEEC2B7v160006Ev, symObjAddr: 0x4800, symBinAddr: 0x100009350, symSize: 0x14 }
  - { offsetInCU: 0x15FB7, offset: 0x2F10D, size: 0x8, addend: 0x0, symName: __ZNSt3__117__compressed_pairImNS_22__unordered_map_hasherINS_12basic_stringIcNS_11char_traitsIcEENS_9allocatorIcEEEENS_17__hash_value_typeIS7_NS_4listIP4NodeNS5_ISB_EEEEEENS_4hashIS7_EENS_8equal_toIS7_EELb1EEEEC2B7v160006IiNS_18__default_init_tagEEEOT_OT0_, symObjAddr: 0x4814, symBinAddr: 0x100009364, symSize: 0x40 }
  - { offsetInCU: 0x1600D, offset: 0x2F163, size: 0x8, addend: 0x0, symName: __ZNSt3__122__compressed_pair_elemINS_22__unordered_map_hasherINS_12basic_stringIcNS_11char_traitsIcEENS_9allocatorIcEEEENS_17__hash_value_typeIS7_NS_4listIP4NodeNS5_ISB_EEEEEENS_4hashIS7_EENS_8equal_toIS7_EELb1EEELi1ELb1EEC2B7v160006ENS_18__default_init_tagE, symObjAddr: 0x4854, symBinAddr: 0x1000093A4, symSize: 0x2C }
  - { offsetInCU: 0x1603F, offset: 0x2F195, size: 0x8, addend: 0x0, symName: __ZNSt3__122__unordered_map_hasherINS_12basic_stringIcNS_11char_traitsIcEENS_9allocatorIcEEEENS_17__hash_value_typeIS6_NS_4listIP4NodeNS4_ISA_EEEEEENS_4hashIS6_EENS_8equal_toIS6_EELb1EEC2B7v160006Ev, symObjAddr: 0x4880, symBinAddr: 0x1000093D0, symSize: 0x14 }
  - { offsetInCU: 0x16067, offset: 0x2F1BD, size: 0x8, addend: 0x0, symName: __ZNSt3__117__compressed_pairIfNS_21__unordered_map_equalINS_12basic_stringIcNS_11char_traitsIcEENS_9allocatorIcEEEENS_17__hash_value_typeIS7_NS_4listIP4NodeNS5_ISB_EEEEEENS_8equal_toIS7_EENS_4hashIS7_EELb1EEEEC2B7v160006IfNS_18__default_init_tagEEEOT_OT0_, symObjAddr: 0x4894, symBinAddr: 0x1000093E4, symSize: 0x40 }
  - { offsetInCU: 0x160BD, offset: 0x2F213, size: 0x8, addend: 0x0, symName: __ZNSt3__122__compressed_pair_elemIfLi0ELb0EEC2B7v160006IfvEEOT_, symObjAddr: 0x48D4, symBinAddr: 0x100009424, symSize: 0x24 }
  - { offsetInCU: 0x160FE, offset: 0x2F254, size: 0x8, addend: 0x0, symName: __ZNSt3__122__compressed_pair_elemINS_21__unordered_map_equalINS_12basic_stringIcNS_11char_traitsIcEENS_9allocatorIcEEEENS_17__hash_value_typeIS7_NS_4listIP4NodeNS5_ISB_EEEEEENS_8equal_toIS7_EENS_4hashIS7_EELb1EEELi1ELb1EEC2B7v160006ENS_18__default_init_tagE, symObjAddr: 0x48F8, symBinAddr: 0x100009448, symSize: 0x2C }
  - { offsetInCU: 0x16130, offset: 0x2F286, size: 0x8, addend: 0x0, symName: __ZNSt3__121__unordered_map_equalINS_12basic_stringIcNS_11char_traitsIcEENS_9allocatorIcEEEENS_17__hash_value_typeIS6_NS_4listIP4NodeNS4_ISA_EEEEEENS_8equal_toIS6_EENS_4hashIS6_EELb1EEC2B7v160006Ev, symObjAddr: 0x4924, symBinAddr: 0x100009474, symSize: 0x14 }
  - { offsetInCU: 0x16158, offset: 0x2F2AE, size: 0x8, addend: 0x0, symName: __ZNSt3__113unordered_mapINS_12basic_stringIcNS_11char_traitsIcEENS_9allocatorIcEEEENS_4listIP4NodeNS4_IS9_EEEENS_4hashIS6_EENS_8equal_toIS6_EENS4_INS_4pairIKS6_SB_EEEEED2B7v160006Ev, symObjAddr: 0x4938, symBinAddr: 0x100009488, symSize: 0x2C }
  - { offsetInCU: 0x16180, offset: 0x2F2D6, size: 0x8, addend: 0x0, symName: __ZNSt3__112__hash_tableINS_17__hash_value_typeINS_12basic_stringIcNS_11char_traitsIcEENS_9allocatorIcEEEENS_4listIP4NodeNS5_ISA_EEEEEENS_22__unordered_map_hasherIS7_SD_NS_4hashIS7_EENS_8equal_toIS7_EELb1EEENS_21__unordered_map_equalIS7_SD_SI_SG_Lb1EEENS5_ISD_EEED1Ev, symObjAddr: 0x4964, symBinAddr: 0x1000094B4, symSize: 0x2C }
  - { offsetInCU: 0x161AB, offset: 0x2F301, size: 0x8, addend: 0x0, symName: __ZNSt3__112__hash_tableINS_17__hash_value_typeINS_12basic_stringIcNS_11char_traitsIcEENS_9allocatorIcEEEENS_4listIP4NodeNS5_ISA_EEEEEENS_22__unordered_map_hasherIS7_SD_NS_4hashIS7_EENS_8equal_toIS7_EELb1EEENS_21__unordered_map_equalIS7_SD_SI_SG_Lb1EEENS5_ISD_EEED2Ev, symObjAddr: 0x4990, symBinAddr: 0x1000094E0, symSize: 0x58 }
  - { offsetInCU: 0x161D6, offset: 0x2F32C, size: 0x8, addend: 0x0, symName: __ZNSt3__112__hash_tableINS_17__hash_value_typeINS_12basic_stringIcNS_11char_traitsIcEENS_9allocatorIcEEEENS_4listIP4NodeNS5_ISA_EEEEEENS_22__unordered_map_hasherIS7_SD_NS_4hashIS7_EENS_8equal_toIS7_EELb1EEENS_21__unordered_map_equalIS7_SD_SI_SG_Lb1EEENS5_ISD_EEE17__deallocate_nodeEPNS_16__hash_node_baseIPNS_11__hash_nodeISD_PvEEEE, symObjAddr: 0x49E8, symBinAddr: 0x100009538, symSize: 0xA8 }
  - { offsetInCU: 0x1623E, offset: 0x2F394, size: 0x8, addend: 0x0, symName: __ZNSt3__117__compressed_pairINS_16__hash_node_baseIPNS_11__hash_nodeINS_17__hash_value_typeINS_12basic_stringIcNS_11char_traitsIcEENS_9allocatorIcEEEENS_4listIP4NodeNS7_ISC_EEEEEEPvEEEENS7_ISH_EEE5firstB7v160006Ev, symObjAddr: 0x4A90, symBinAddr: 0x1000095E0, symSize: 0x24 }
  - { offsetInCU: 0x16262, offset: 0x2F3B8, size: 0x8, addend: 0x0, symName: __ZNSt3__110unique_ptrIA_PNS_16__hash_node_baseIPNS_11__hash_nodeINS_17__hash_value_typeINS_12basic_stringIcNS_11char_traitsIcEENS_9allocatorIcEEEENS_4listIP4NodeNS7_ISC_EEEEEEPvEEEENS_25__bucket_list_deallocatorINS7_ISK_EEEEED1B7v160006Ev, symObjAddr: 0x4AC4, symBinAddr: 0x100009614, symSize: 0x2C }
  - { offsetInCU: 0x1628A, offset: 0x2F3E0, size: 0x8, addend: 0x0, symName: __ZNSt3__112__hash_tableINS_17__hash_value_typeINS_12basic_stringIcNS_11char_traitsIcEENS_9allocatorIcEEEENS_4listIP4NodeNS5_ISA_EEEEEENS_22__unordered_map_hasherIS7_SD_NS_4hashIS7_EENS_8equal_toIS7_EELb1EEENS_21__unordered_map_equalIS7_SD_SI_SG_Lb1EEENS5_ISD_EEE12__node_allocB7v160006Ev, symObjAddr: 0x4AF0, symBinAddr: 0x100009640, symSize: 0x28 }
  - { offsetInCU: 0x162AE, offset: 0x2F404, size: 0x8, addend: 0x0, symName: __ZNSt3__116__hash_node_baseIPNS_11__hash_nodeINS_17__hash_value_typeINS_12basic_stringIcNS_11char_traitsIcEENS_9allocatorIcEEEENS_4listIP4NodeNS6_ISB_EEEEEEPvEEE8__upcastB7v160006Ev, symObjAddr: 0x4B18, symBinAddr: 0x100009668, symSize: 0x24 }
  - { offsetInCU: 0x162D2, offset: 0x2F428, size: 0x8, addend: 0x0, symName: __ZNSt3__116allocator_traitsINS_9allocatorINS_11__hash_nodeINS_17__hash_value_typeINS_12basic_stringIcNS_11char_traitsIcEENS1_IcEEEENS_4listIP4NodeNS1_ISB_EEEEEEPvEEEEE7destroyB7v160006INS_4pairIKS8_SD_EEvvEEvRSH_PT_, symObjAddr: 0x4B3C, symBinAddr: 0x10000968C, symSize: 0x28 }
  - { offsetInCU: 0x1630E, offset: 0x2F464, size: 0x8, addend: 0x0, symName: __ZNSt3__122__hash_key_value_typesINS_17__hash_value_typeINS_12basic_stringIcNS_11char_traitsIcEENS_9allocatorIcEEEENS_4listIP4NodeNS5_ISA_EEEEEEE9__get_ptrB7v160006ERSD_, symObjAddr: 0x4B64, symBinAddr: 0x1000096B4, symSize: 0x24 }
  - { offsetInCU: 0x16330, offset: 0x2F486, size: 0x8, addend: 0x0, symName: __ZNSt3__116allocator_traitsINS_9allocatorINS_11__hash_nodeINS_17__hash_value_typeINS_12basic_stringIcNS_11char_traitsIcEENS1_IcEEEENS_4listIP4NodeNS1_ISB_EEEEEEPvEEEEE10deallocateB7v160006ERSH_PSG_m, symObjAddr: 0x4B88, symBinAddr: 0x1000096D8, symSize: 0x34 }
  - { offsetInCU: 0x16371, offset: 0x2F4C7, size: 0x8, addend: 0x0, symName: __ZNSt3__117__compressed_pairINS_16__hash_node_baseIPNS_11__hash_nodeINS_17__hash_value_typeINS_12basic_stringIcNS_11char_traitsIcEENS_9allocatorIcEEEENS_4listIP4NodeNS7_ISC_EEEEEEPvEEEENS7_ISH_EEE6secondB7v160006Ev, symObjAddr: 0x4BBC, symBinAddr: 0x10000970C, symSize: 0x24 }
  - { offsetInCU: 0x16395, offset: 0x2F4EB, size: 0x8, addend: 0x0, symName: __ZNSt3__122__compressed_pair_elemINS_9allocatorINS_11__hash_nodeINS_17__hash_value_typeINS_12basic_stringIcNS_11char_traitsIcEENS1_IcEEEENS_4listIP4NodeNS1_ISB_EEEEEEPvEEEELi1ELb1EE5__getB7v160006Ev, symObjAddr: 0x4BE0, symBinAddr: 0x100009730, symSize: 0x14 }
  - { offsetInCU: 0x163B9, offset: 0x2F50F, size: 0x8, addend: 0x0, symName: __ZNSt3__114pointer_traitsIPNS_16__hash_node_baseIPNS_11__hash_nodeINS_17__hash_value_typeINS_12basic_stringIcNS_11char_traitsIcEENS_9allocatorIcEEEENS_4listIP4NodeNS7_ISC_EEEEEEPvEEEEE10pointer_toB7v160006ERSJ_, symObjAddr: 0x4BF4, symBinAddr: 0x100009744, symSize: 0x14 }
  - { offsetInCU: 0x163DB, offset: 0x2F531, size: 0x8, addend: 0x0, symName: __ZNSt3__117__hash_value_typeINS_12basic_stringIcNS_11char_traitsIcEENS_9allocatorIcEEEENS_4listIP4NodeNS4_IS9_EEEEE11__get_valueB7v160006Ev, symObjAddr: 0x4C50, symBinAddr: 0x1000097A0, symSize: 0x24 }
  - { offsetInCU: 0x163FF, offset: 0x2F555, size: 0x8, addend: 0x0, symName: __ZNSt3__19allocatorINS_11__hash_nodeINS_17__hash_value_typeINS_12basic_stringIcNS_11char_traitsIcEENS0_IcEEEENS_4listIP4NodeNS0_ISA_EEEEEEPvEEE10deallocateB7v160006EPSF_m, symObjAddr: 0x4CAC, symBinAddr: 0x1000097FC, symSize: 0x40 }
  - { offsetInCU: 0x1643F, offset: 0x2F595, size: 0x8, addend: 0x0, symName: __ZNSt3__122__compressed_pair_elemINS_16__hash_node_baseIPNS_11__hash_nodeINS_17__hash_value_typeINS_12basic_stringIcNS_11char_traitsIcEENS_9allocatorIcEEEENS_4listIP4NodeNS7_ISC_EEEEEEPvEEEELi0ELb0EE5__getB7v160006Ev, symObjAddr: 0x4CEC, symBinAddr: 0x10000983C, symSize: 0x14 }
  - { offsetInCU: 0x16463, offset: 0x2F5B9, size: 0x8, addend: 0x0, symName: __ZNSt3__110unique_ptrIA_PNS_16__hash_node_baseIPNS_11__hash_nodeINS_17__hash_value_typeINS_12basic_stringIcNS_11char_traitsIcEENS_9allocatorIcEEEENS_4listIP4NodeNS7_ISC_EEEEEEPvEEEENS_25__bucket_list_deallocatorINS7_ISK_EEEEED2B7v160006Ev, symObjAddr: 0x4D00, symBinAddr: 0x100009850, symSize: 0x30 }
  - { offsetInCU: 0x1648B, offset: 0x2F5E1, size: 0x8, addend: 0x0, symName: __ZNSt3__110unique_ptrIA_PNS_16__hash_node_baseIPNS_11__hash_nodeINS_17__hash_value_typeINS_12basic_stringIcNS_11char_traitsIcEENS_9allocatorIcEEEENS_4listIP4NodeNS7_ISC_EEEEEEPvEEEENS_25__bucket_list_deallocatorINS7_ISK_EEEEE5resetB7v160006EDn, symObjAddr: 0x4D30, symBinAddr: 0x100009880, symSize: 0x6C }
  - { offsetInCU: 0x164CA, offset: 0x2F620, size: 0x8, addend: 0x0, symName: __ZNSt3__117__compressed_pairIPPNS_16__hash_node_baseIPNS_11__hash_nodeINS_17__hash_value_typeINS_12basic_stringIcNS_11char_traitsIcEENS_9allocatorIcEEEENS_4listIP4NodeNS7_ISC_EEEEEEPvEEEENS_25__bucket_list_deallocatorINS7_ISK_EEEEE5firstB7v160006Ev, symObjAddr: 0x4D9C, symBinAddr: 0x1000098EC, symSize: 0x24 }
  - { offsetInCU: 0x164EE, offset: 0x2F644, size: 0x8, addend: 0x0, symName: __ZNSt3__117__compressed_pairIPPNS_16__hash_node_baseIPNS_11__hash_nodeINS_17__hash_value_typeINS_12basic_stringIcNS_11char_traitsIcEENS_9allocatorIcEEEENS_4listIP4NodeNS7_ISC_EEEEEEPvEEEENS_25__bucket_list_deallocatorINS7_ISK_EEEEE6secondB7v160006Ev, symObjAddr: 0x4DC0, symBinAddr: 0x100009910, symSize: 0x28 }
  - { offsetInCU: 0x16512, offset: 0x2F668, size: 0x8, addend: 0x0, symName: __ZNSt3__125__bucket_list_deallocatorINS_9allocatorIPNS_16__hash_node_baseIPNS_11__hash_nodeINS_17__hash_value_typeINS_12basic_stringIcNS_11char_traitsIcEENS1_IcEEEENS_4listIP4NodeNS1_ISC_EEEEEEPvEEEEEEEclB7v160006EPSK_, symObjAddr: 0x4DE8, symBinAddr: 0x100009938, symSize: 0x58 }
  - { offsetInCU: 0x16545, offset: 0x2F69B, size: 0x8, addend: 0x0, symName: __ZNSt3__122__compressed_pair_elemIPPNS_16__hash_node_baseIPNS_11__hash_nodeINS_17__hash_value_typeINS_12basic_stringIcNS_11char_traitsIcEENS_9allocatorIcEEEENS_4listIP4NodeNS7_ISC_EEEEEEPvEEEELi0ELb0EE5__getB7v160006Ev, symObjAddr: 0x4E40, symBinAddr: 0x100009990, symSize: 0x14 }
  - { offsetInCU: 0x16569, offset: 0x2F6BF, size: 0x8, addend: 0x0, symName: __ZNSt3__122__compressed_pair_elemINS_25__bucket_list_deallocatorINS_9allocatorIPNS_16__hash_node_baseIPNS_11__hash_nodeINS_17__hash_value_typeINS_12basic_stringIcNS_11char_traitsIcEENS2_IcEEEENS_4listIP4NodeNS2_ISD_EEEEEEPvEEEEEEEELi1ELb0EE5__getB7v160006Ev, symObjAddr: 0x4E54, symBinAddr: 0x1000099A4, symSize: 0x14 }
  - { offsetInCU: 0x1658D, offset: 0x2F6E3, size: 0x8, addend: 0x0, symName: __ZNSt3__116allocator_traitsINS_9allocatorIPNS_16__hash_node_baseIPNS_11__hash_nodeINS_17__hash_value_typeINS_12basic_stringIcNS_11char_traitsIcEENS1_IcEEEENS_4listIP4NodeNS1_ISC_EEEEEEPvEEEEEEE10deallocateB7v160006ERSL_PSK_m, symObjAddr: 0x4E68, symBinAddr: 0x1000099B8, symSize: 0x34 }
  - { offsetInCU: 0x165CE, offset: 0x2F724, size: 0x8, addend: 0x0, symName: __ZNSt3__125__bucket_list_deallocatorINS_9allocatorIPNS_16__hash_node_baseIPNS_11__hash_nodeINS_17__hash_value_typeINS_12basic_stringIcNS_11char_traitsIcEENS1_IcEEEENS_4listIP4NodeNS1_ISC_EEEEEEPvEEEEEEE7__allocB7v160006Ev, symObjAddr: 0x4E9C, symBinAddr: 0x1000099EC, symSize: 0x24 }
  - { offsetInCU: 0x165F2, offset: 0x2F748, size: 0x8, addend: 0x0, symName: __ZNSt3__125__bucket_list_deallocatorINS_9allocatorIPNS_16__hash_node_baseIPNS_11__hash_nodeINS_17__hash_value_typeINS_12basic_stringIcNS_11char_traitsIcEENS1_IcEEEENS_4listIP4NodeNS1_ISC_EEEEEEPvEEEEEEE4sizeB7v160006Ev, symObjAddr: 0x4EC0, symBinAddr: 0x100009A10, symSize: 0x24 }
  - { offsetInCU: 0x16616, offset: 0x2F76C, size: 0x8, addend: 0x0, symName: __ZNSt3__19allocatorIPNS_16__hash_node_baseIPNS_11__hash_nodeINS_17__hash_value_typeINS_12basic_stringIcNS_11char_traitsIcEENS0_IcEEEENS_4listIP4NodeNS0_ISB_EEEEEEPvEEEEE10deallocateB7v160006EPSJ_m, symObjAddr: 0x4EE4, symBinAddr: 0x100009A34, symSize: 0x40 }
  - { offsetInCU: 0x16656, offset: 0x2F7AC, size: 0x8, addend: 0x0, symName: __ZNSt3__117__compressed_pairImNS_9allocatorIPNS_16__hash_node_baseIPNS_11__hash_nodeINS_17__hash_value_typeINS_12basic_stringIcNS_11char_traitsIcEENS1_IcEEEENS_4listIP4NodeNS1_ISC_EEEEEEPvEEEEEEE6secondB7v160006Ev, symObjAddr: 0x4F24, symBinAddr: 0x100009A74, symSize: 0x24 }
  - { offsetInCU: 0x1667A, offset: 0x2F7D0, size: 0x8, addend: 0x0, symName: __ZNSt3__122__compressed_pair_elemINS_9allocatorIPNS_16__hash_node_baseIPNS_11__hash_nodeINS_17__hash_value_typeINS_12basic_stringIcNS_11char_traitsIcEENS1_IcEEEENS_4listIP4NodeNS1_ISC_EEEEEEPvEEEEEELi1ELb1EE5__getB7v160006Ev, symObjAddr: 0x4F48, symBinAddr: 0x100009A98, symSize: 0x14 }
  - { offsetInCU: 0x1669E, offset: 0x2F7F4, size: 0x8, addend: 0x0, symName: __ZNSt3__117__compressed_pairImNS_9allocatorIPNS_16__hash_node_baseIPNS_11__hash_nodeINS_17__hash_value_typeINS_12basic_stringIcNS_11char_traitsIcEENS1_IcEEEENS_4listIP4NodeNS1_ISC_EEEEEEPvEEEEEEE5firstB7v160006Ev, symObjAddr: 0x4F5C, symBinAddr: 0x100009AAC, symSize: 0x24 }
  - { offsetInCU: 0x166C2, offset: 0x2F818, size: 0x8, addend: 0x0, symName: __ZNKSt3__112__hash_tableINS_17__hash_value_typeINS_12basic_stringIcNS_11char_traitsIcEENS_9allocatorIcEEEENS_4listIP4NodeNS5_ISA_EEEEEENS_22__unordered_map_hasherIS7_SD_NS_4hashIS7_EENS_8equal_toIS7_EELb1EEENS_21__unordered_map_equalIS7_SD_SI_SG_Lb1EEENS5_ISD_EEE14__count_uniqueIS7_EEmRKT_, symObjAddr: 0x4F80, symBinAddr: 0x100009AD0, symSize: 0x64 }
  - { offsetInCU: 0x16700, offset: 0x2F856, size: 0x8, addend: 0x0, symName: __ZNKSt3__112__hash_tableINS_17__hash_value_typeINS_12basic_stringIcNS_11char_traitsIcEENS_9allocatorIcEEEENS_4listIP4NodeNS5_ISA_EEEEEENS_22__unordered_map_hasherIS7_SD_NS_4hashIS7_EENS_8equal_toIS7_EELb1EEENS_21__unordered_map_equalIS7_SD_SI_SG_Lb1EEENS5_ISD_EEE4findIS7_EENS_21__hash_const_iteratorIPNS_11__hash_nodeISD_PvEEEERKT_, symObjAddr: 0x5018, symBinAddr: 0x100009B68, symSize: 0x1BC }
  - { offsetInCU: 0x16789, offset: 0x2F8DF, size: 0x8, addend: 0x0, symName: __ZNKSt3__112__hash_tableINS_17__hash_value_typeINS_12basic_stringIcNS_11char_traitsIcEENS_9allocatorIcEEEENS_4listIP4NodeNS5_ISA_EEEEEENS_22__unordered_map_hasherIS7_SD_NS_4hashIS7_EENS_8equal_toIS7_EELb1EEENS_21__unordered_map_equalIS7_SD_SI_SG_Lb1EEENS5_ISD_EEE3endEv, symObjAddr: 0x51D4, symBinAddr: 0x100009D24, symSize: 0x30 }
  - { offsetInCU: 0x167AF, offset: 0x2F905, size: 0x8, addend: 0x0, symName: __ZNKSt3__112__hash_tableINS_17__hash_value_typeINS_12basic_stringIcNS_11char_traitsIcEENS_9allocatorIcEEEENS_4listIP4NodeNS5_ISA_EEEEEENS_22__unordered_map_hasherIS7_SD_NS_4hashIS7_EENS_8equal_toIS7_EELb1EEENS_21__unordered_map_equalIS7_SD_SI_SG_Lb1EEENS5_ISD_EEE13hash_functionB7v160006Ev, symObjAddr: 0x5234, symBinAddr: 0x100009D84, symSize: 0x28 }
  - { offsetInCU: 0x167D3, offset: 0x2F929, size: 0x8, addend: 0x0, symName: __ZNKSt3__122__unordered_map_hasherINS_12basic_stringIcNS_11char_traitsIcEENS_9allocatorIcEEEENS_17__hash_value_typeIS6_NS_4listIP4NodeNS4_ISA_EEEEEENS_4hashIS6_EENS_8equal_toIS6_EELb1EEclB7v160006ERKS6_, symObjAddr: 0x525C, symBinAddr: 0x100009DAC, symSize: 0x2C }
  - { offsetInCU: 0x16806, offset: 0x2F95C, size: 0x8, addend: 0x0, symName: __ZNKSt3__112__hash_tableINS_17__hash_value_typeINS_12basic_stringIcNS_11char_traitsIcEENS_9allocatorIcEEEENS_4listIP4NodeNS5_ISA_EEEEEENS_22__unordered_map_hasherIS7_SD_NS_4hashIS7_EENS_8equal_toIS7_EELb1EEENS_21__unordered_map_equalIS7_SD_SI_SG_Lb1EEENS5_ISD_EEE12bucket_countB7v160006Ev, symObjAddr: 0x5288, symBinAddr: 0x100009DD8, symSize: 0x28 }
  - { offsetInCU: 0x1682A, offset: 0x2F980, size: 0x8, addend: 0x0, symName: __ZNKSt3__110unique_ptrIA_PNS_16__hash_node_baseIPNS_11__hash_nodeINS_17__hash_value_typeINS_12basic_stringIcNS_11char_traitsIcEENS_9allocatorIcEEEENS_4listIP4NodeNS7_ISC_EEEEEEPvEEEENS_25__bucket_list_deallocatorINS7_ISK_EEEEEixB7v160006Em, symObjAddr: 0x5348, symBinAddr: 0x100009E98, symSize: 0x34 }
  - { offsetInCU: 0x1685D, offset: 0x2F9B3, size: 0x8, addend: 0x0, symName: __ZNKSt3__116__hash_node_baseIPNS_11__hash_nodeINS_17__hash_value_typeINS_12basic_stringIcNS_11char_traitsIcEENS_9allocatorIcEEEENS_4listIP4NodeNS6_ISB_EEEEEEPvEEE6__hashB7v160006Ev, symObjAddr: 0x537C, symBinAddr: 0x100009ECC, symSize: 0x18 }
  - { offsetInCU: 0x16881, offset: 0x2F9D7, size: 0x8, addend: 0x0, symName: __ZNKSt3__112__hash_tableINS_17__hash_value_typeINS_12basic_stringIcNS_11char_traitsIcEENS_9allocatorIcEEEENS_4listIP4NodeNS5_ISA_EEEEEENS_22__unordered_map_hasherIS7_SD_NS_4hashIS7_EENS_8equal_toIS7_EELb1EEENS_21__unordered_map_equalIS7_SD_SI_SG_Lb1EEENS5_ISD_EEE6key_eqB7v160006Ev, symObjAddr: 0x5394, symBinAddr: 0x100009EE4, symSize: 0x28 }
  - { offsetInCU: 0x168A5, offset: 0x2F9FB, size: 0x8, addend: 0x0, symName: __ZNKSt3__121__unordered_map_equalINS_12basic_stringIcNS_11char_traitsIcEENS_9allocatorIcEEEENS_17__hash_value_typeIS6_NS_4listIP4NodeNS4_ISA_EEEEEENS_8equal_toIS6_EENS_4hashIS6_EELb1EEclB7v160006ERKSD_RKS6_, symObjAddr: 0x53BC, symBinAddr: 0x100009F0C, symSize: 0x48 }
  - { offsetInCU: 0x168E7, offset: 0x2FA3D, size: 0x8, addend: 0x0, symName: __ZNSt3__121__hash_const_iteratorIPNS_11__hash_nodeINS_17__hash_value_typeINS_12basic_stringIcNS_11char_traitsIcEENS_9allocatorIcEEEENS_4listIP4NodeNS6_ISB_EEEEEEPvEEEC1B7v160006EPNS_16__hash_node_baseISH_EEPKv, symObjAddr: 0x5404, symBinAddr: 0x100009F54, symSize: 0x3C }
  - { offsetInCU: 0x1692D, offset: 0x2FA83, size: 0x8, addend: 0x0, symName: __ZNKSt3__117__compressed_pairImNS_22__unordered_map_hasherINS_12basic_stringIcNS_11char_traitsIcEENS_9allocatorIcEEEENS_17__hash_value_typeIS7_NS_4listIP4NodeNS5_ISB_EEEEEENS_4hashIS7_EENS_8equal_toIS7_EELb1EEEE6secondB7v160006Ev, symObjAddr: 0x5440, symBinAddr: 0x100009F90, symSize: 0x24 }
  - { offsetInCU: 0x16951, offset: 0x2FAA7, size: 0x8, addend: 0x0, symName: __ZNKSt3__122__compressed_pair_elemINS_22__unordered_map_hasherINS_12basic_stringIcNS_11char_traitsIcEENS_9allocatorIcEEEENS_17__hash_value_typeIS7_NS_4listIP4NodeNS5_ISB_EEEEEENS_4hashIS7_EENS_8equal_toIS7_EELb1EEELi1ELb1EE5__getB7v160006Ev, symObjAddr: 0x5464, symBinAddr: 0x100009FB4, symSize: 0x14 }
  - { offsetInCU: 0x16975, offset: 0x2FACB, size: 0x8, addend: 0x0, symName: __ZNKSt3__113__string_hashIcNS_9allocatorIcEEEclERKNS_12basic_stringIcNS_11char_traitsIcEES2_EE, symObjAddr: 0x5478, symBinAddr: 0x100009FC8, symSize: 0x64 }
  - { offsetInCU: 0x169A8, offset: 0x2FAFE, size: 0x8, addend: 0x0, symName: __ZNSt3__121__murmur2_or_cityhashImLm64EEclEPKvm, symObjAddr: 0x5518, symBinAddr: 0x10000A068, symSize: 0x410 }
  - { offsetInCU: 0x16A48, offset: 0x2FB9E, size: 0x8, addend: 0x0, symName: __ZNSt3__121__murmur2_or_cityhashImLm64EE18__hash_len_0_to_16EPKcm, symObjAddr: 0x5928, symBinAddr: 0x10000A478, symSize: 0x1C0 }
  - { offsetInCU: 0x16B2C, offset: 0x2FC82, size: 0x8, addend: 0x0, symName: __ZNSt3__121__murmur2_or_cityhashImLm64EE19__hash_len_17_to_32EPKcm, symObjAddr: 0x5AE8, symBinAddr: 0x10000A638, symSize: 0x130 }
  - { offsetInCU: 0x16B98, offset: 0x2FCEE, size: 0x8, addend: 0x0, symName: __ZNSt3__121__murmur2_or_cityhashImLm64EE19__hash_len_33_to_64EPKcm, symObjAddr: 0x5C18, symBinAddr: 0x10000A768, symSize: 0x2B8 }
  - { offsetInCU: 0x16C52, offset: 0x2FDA8, size: 0x8, addend: 0x0, symName: __ZNSt3__121__murmur2_or_cityhashImLm64EE13__hash_len_16Emm, symObjAddr: 0x5EF0, symBinAddr: 0x10000AA40, symSize: 0x80 }
  - { offsetInCU: 0x16CAF, offset: 0x2FE05, size: 0x8, addend: 0x0, symName: __ZNSt3__121__murmur2_or_cityhashImLm64EE29__weak_hash_len_32_with_seedsEPKcmm, symObjAddr: 0x5F70, symBinAddr: 0x10000AAC0, symSize: 0x88 }
  - { offsetInCU: 0x16CED, offset: 0x2FE43, size: 0x8, addend: 0x0, symName: __ZNSt3__121__murmur2_or_cityhashImLm64EE8__rotateEmi, symObjAddr: 0x5FF8, symBinAddr: 0x10000AB48, symSize: 0x64 }
  - { offsetInCU: 0x16D1D, offset: 0x2FE73, size: 0x8, addend: 0x0, symName: __ZNSt3__14pairImmEaSB7v160006EOS1_, symObjAddr: 0x605C, symBinAddr: 0x10000ABAC, symSize: 0x30 }
  - { offsetInCU: 0x16D50, offset: 0x2FEA6, size: 0x8, addend: 0x0, symName: __ZNSt3__121__murmur2_or_cityhashImLm64EE11__shift_mixEm, symObjAddr: 0x60C8, symBinAddr: 0x10000AC18, symSize: 0x1C }
  - { offsetInCU: 0x16D72, offset: 0x2FEC8, size: 0x8, addend: 0x0, symName: __ZNSt3__121__murmur2_or_cityhashImLm64EE22__rotate_by_at_least_1Emi, symObjAddr: 0x60E4, symBinAddr: 0x10000AC34, symSize: 0x38 }
  - { offsetInCU: 0x16DA2, offset: 0x2FEF8, size: 0x8, addend: 0x0, symName: __ZNSt3__121__murmur2_or_cityhashImLm64EE29__weak_hash_len_32_with_seedsEmmmmmm, symObjAddr: 0x613C, symBinAddr: 0x10000AC8C, symSize: 0xD8 }
  - { offsetInCU: 0x16E1E, offset: 0x2FF74, size: 0x8, addend: 0x0, symName: __ZNSt3__14pairImmEC1B7v160006ImmLPv0EEEOT_OT0_, symObjAddr: 0x6214, symBinAddr: 0x10000AD64, symSize: 0x3C }
  - { offsetInCU: 0x16E7B, offset: 0x2FFD1, size: 0x8, addend: 0x0, symName: __ZNSt3__14pairImmEC2B7v160006ImmLPv0EEEOT_OT0_, symObjAddr: 0x6250, symBinAddr: 0x10000ADA0, symSize: 0x34 }
  - { offsetInCU: 0x16ED8, offset: 0x3002E, size: 0x8, addend: 0x0, symName: __ZNKSt3__110unique_ptrIA_PNS_16__hash_node_baseIPNS_11__hash_nodeINS_17__hash_value_typeINS_12basic_stringIcNS_11char_traitsIcEENS_9allocatorIcEEEENS_4listIP4NodeNS7_ISC_EEEEEEPvEEEENS_25__bucket_list_deallocatorINS7_ISK_EEEEE11get_deleterB7v160006Ev, symObjAddr: 0x6284, symBinAddr: 0x10000ADD4, symSize: 0x24 }
  - { offsetInCU: 0x16EFC, offset: 0x30052, size: 0x8, addend: 0x0, symName: __ZNKSt3__125__bucket_list_deallocatorINS_9allocatorIPNS_16__hash_node_baseIPNS_11__hash_nodeINS_17__hash_value_typeINS_12basic_stringIcNS_11char_traitsIcEENS1_IcEEEENS_4listIP4NodeNS1_ISC_EEEEEEPvEEEEEEE4sizeB7v160006Ev, symObjAddr: 0x62A8, symBinAddr: 0x10000ADF8, symSize: 0x28 }
  - { offsetInCU: 0x16F20, offset: 0x30076, size: 0x8, addend: 0x0, symName: __ZNKSt3__117__compressed_pairIPPNS_16__hash_node_baseIPNS_11__hash_nodeINS_17__hash_value_typeINS_12basic_stringIcNS_11char_traitsIcEENS_9allocatorIcEEEENS_4listIP4NodeNS7_ISC_EEEEEEPvEEEENS_25__bucket_list_deallocatorINS7_ISK_EEEEE6secondB7v160006Ev, symObjAddr: 0x62D0, symBinAddr: 0x10000AE20, symSize: 0x28 }
  - { offsetInCU: 0x16F44, offset: 0x3009A, size: 0x8, addend: 0x0, symName: __ZNKSt3__122__compressed_pair_elemINS_25__bucket_list_deallocatorINS_9allocatorIPNS_16__hash_node_baseIPNS_11__hash_nodeINS_17__hash_value_typeINS_12basic_stringIcNS_11char_traitsIcEENS2_IcEEEENS_4listIP4NodeNS2_ISD_EEEEEEPvEEEEEEEELi1ELb0EE5__getB7v160006Ev, symObjAddr: 0x62F8, symBinAddr: 0x10000AE48, symSize: 0x14 }
  - { offsetInCU: 0x16F68, offset: 0x300BE, size: 0x8, addend: 0x0, symName: __ZNKSt3__117__compressed_pairImNS_9allocatorIPNS_16__hash_node_baseIPNS_11__hash_nodeINS_17__hash_value_typeINS_12basic_stringIcNS_11char_traitsIcEENS1_IcEEEENS_4listIP4NodeNS1_ISC_EEEEEEPvEEEEEEE5firstB7v160006Ev, symObjAddr: 0x630C, symBinAddr: 0x10000AE5C, symSize: 0x24 }
  - { offsetInCU: 0x16F8C, offset: 0x300E2, size: 0x8, addend: 0x0, symName: __ZNKSt3__117__compressed_pairIPPNS_16__hash_node_baseIPNS_11__hash_nodeINS_17__hash_value_typeINS_12basic_stringIcNS_11char_traitsIcEENS_9allocatorIcEEEENS_4listIP4NodeNS7_ISC_EEEEEEPvEEEENS_25__bucket_list_deallocatorINS7_ISK_EEEEE5firstB7v160006Ev, symObjAddr: 0x6330, symBinAddr: 0x10000AE80, symSize: 0x24 }
  - { offsetInCU: 0x16FB0, offset: 0x30106, size: 0x8, addend: 0x0, symName: __ZNKSt3__122__compressed_pair_elemIPPNS_16__hash_node_baseIPNS_11__hash_nodeINS_17__hash_value_typeINS_12basic_stringIcNS_11char_traitsIcEENS_9allocatorIcEEEENS_4listIP4NodeNS7_ISC_EEEEEEPvEEEELi0ELb0EE5__getB7v160006Ev, symObjAddr: 0x6354, symBinAddr: 0x10000AEA4, symSize: 0x14 }
  - { offsetInCU: 0x16FD4, offset: 0x3012A, size: 0x8, addend: 0x0, symName: __ZNKSt3__117__compressed_pairIfNS_21__unordered_map_equalINS_12basic_stringIcNS_11char_traitsIcEENS_9allocatorIcEEEENS_17__hash_value_typeIS7_NS_4listIP4NodeNS5_ISB_EEEEEENS_8equal_toIS7_EENS_4hashIS7_EELb1EEEE6secondB7v160006Ev, symObjAddr: 0x6368, symBinAddr: 0x10000AEB8, symSize: 0x24 }
  - { offsetInCU: 0x16FF8, offset: 0x3014E, size: 0x8, addend: 0x0, symName: __ZNKSt3__122__compressed_pair_elemINS_21__unordered_map_equalINS_12basic_stringIcNS_11char_traitsIcEENS_9allocatorIcEEEENS_17__hash_value_typeIS7_NS_4listIP4NodeNS5_ISB_EEEEEENS_8equal_toIS7_EENS_4hashIS7_EELb1EEELi1ELb1EE5__getB7v160006Ev, symObjAddr: 0x638C, symBinAddr: 0x10000AEDC, symSize: 0x14 }
  - { offsetInCU: 0x1701C, offset: 0x30172, size: 0x8, addend: 0x0, symName: __ZNKSt3__18equal_toINS_12basic_stringIcNS_11char_traitsIcEENS_9allocatorIcEEEEEclB7v160006ERKS6_S9_, symObjAddr: 0x63A0, symBinAddr: 0x10000AEF0, symSize: 0x34 }
  - { offsetInCU: 0x1705E, offset: 0x301B4, size: 0x8, addend: 0x0, symName: __ZNKSt3__117__hash_value_typeINS_12basic_stringIcNS_11char_traitsIcEENS_9allocatorIcEEEENS_4listIP4NodeNS4_IS9_EEEEE11__get_valueB7v160006Ev, symObjAddr: 0x63D4, symBinAddr: 0x10000AF24, symSize: 0x24 }
  - { offsetInCU: 0x17082, offset: 0x301D8, size: 0x8, addend: 0x0, symName: __ZNSt3__121__hash_const_iteratorIPNS_11__hash_nodeINS_17__hash_value_typeINS_12basic_stringIcNS_11char_traitsIcEENS_9allocatorIcEEEENS_4listIP4NodeNS6_ISB_EEEEEEPvEEEC2B7v160006EPNS_16__hash_node_baseISH_EEPKv, symObjAddr: 0x6430, symBinAddr: 0x10000AF80, symSize: 0x24 }
  - { offsetInCU: 0x170C8, offset: 0x3021E, size: 0x8, addend: 0x0, symName: __ZNSt3__14listIP4NodeNS_9allocatorIS2_EEEC2B7v160006Ev, symObjAddr: 0x6454, symBinAddr: 0x10000AFA4, symSize: 0x3C }
  - { offsetInCU: 0x170F0, offset: 0x30246, size: 0x8, addend: 0x0, symName: __ZNSt3__110__list_impIP4NodeNS_9allocatorIS2_EEEC2Ev, symObjAddr: 0x6490, symBinAddr: 0x10000AFE0, symSize: 0x50 }
  - { offsetInCU: 0x1711B, offset: 0x30271, size: 0x8, addend: 0x0, symName: __ZNSt3__116__list_node_baseIP4NodePvEC1B7v160006Ev, symObjAddr: 0x64F0, symBinAddr: 0x10000B040, symSize: 0x2C }
  - { offsetInCU: 0x17143, offset: 0x30299, size: 0x8, addend: 0x0, symName: __ZNSt3__117__compressed_pairImNS_9allocatorINS_11__list_nodeIP4NodePvEEEEEC1B7v160006IiNS_18__default_init_tagEEEOT_OT0_, symObjAddr: 0x651C, symBinAddr: 0x10000B06C, symSize: 0x3C }
  - { offsetInCU: 0x17199, offset: 0x302EF, size: 0x8, addend: 0x0, symName: __ZNSt3__116__list_node_baseIP4NodePvEC2B7v160006Ev, symObjAddr: 0x6558, symBinAddr: 0x10000B0A8, symSize: 0x4C }
  - { offsetInCU: 0x171C1, offset: 0x30317, size: 0x8, addend: 0x0, symName: __ZNSt3__117__compressed_pairImNS_9allocatorINS_11__list_nodeIP4NodePvEEEEEC2B7v160006IiNS_18__default_init_tagEEEOT_OT0_, symObjAddr: 0x65A4, symBinAddr: 0x10000B0F4, symSize: 0x40 }
  - { offsetInCU: 0x17217, offset: 0x3036D, size: 0x8, addend: 0x0, symName: __ZNSt3__122__compressed_pair_elemINS_9allocatorINS_11__list_nodeIP4NodePvEEEELi1ELb1EEC2B7v160006ENS_18__default_init_tagE, symObjAddr: 0x65E4, symBinAddr: 0x10000B134, symSize: 0x2C }
  - { offsetInCU: 0x17249, offset: 0x3039F, size: 0x8, addend: 0x0, symName: __ZNSt3__19allocatorINS_11__list_nodeIP4NodePvEEEC2B7v160006Ev, symObjAddr: 0x6610, symBinAddr: 0x10000B160, symSize: 0x2C }
  - { offsetInCU: 0x17271, offset: 0x303C7, size: 0x8, addend: 0x0, symName: __ZNSt3__116__non_trivial_ifILb1ENS_9allocatorINS_11__list_nodeIP4NodePvEEEEEC2B7v160006Ev, symObjAddr: 0x663C, symBinAddr: 0x10000B18C, symSize: 0x14 }
  - { offsetInCU: 0x17299, offset: 0x303EF, size: 0x8, addend: 0x0, symName: __ZNSt3__112__hash_tableINS_17__hash_value_typeINS_12basic_stringIcNS_11char_traitsIcEENS_9allocatorIcEEEENS_4listIP4NodeNS5_ISA_EEEEEENS_22__unordered_map_hasherIS7_SD_NS_4hashIS7_EENS_8equal_toIS7_EELb1EEENS_21__unordered_map_equalIS7_SD_SI_SG_Lb1EEENS5_ISD_EEE15__insert_uniqueB7v160006EONS_4pairIKS7_SC_EE, symObjAddr: 0x6650, symBinAddr: 0x10000B1A0, symSize: 0x50 }
  - { offsetInCU: 0x172CC, offset: 0x30422, size: 0x8, addend: 0x0, symName: __ZNSt3__14pairINS_19__hash_map_iteratorINS_15__hash_iteratorIPNS_11__hash_nodeINS_17__hash_value_typeINS_12basic_stringIcNS_11char_traitsIcEENS_9allocatorIcEEEENS_4listIP4NodeNS8_ISD_EEEEEEPvEEEEEEbEC1B7v160006ISK_bLSH_0EEEONS0_IT_T0_EE, symObjAddr: 0x66A0, symBinAddr: 0x10000B1F0, symSize: 0x34 }
  - { offsetInCU: 0x1731C, offset: 0x30472, size: 0x8, addend: 0x0, symName: __ZNSt3__112__hash_tableINS_17__hash_value_typeINS_12basic_stringIcNS_11char_traitsIcEENS_9allocatorIcEEEENS_4listIP4NodeNS5_ISA_EEEEEENS_22__unordered_map_hasherIS7_SD_NS_4hashIS7_EENS_8equal_toIS7_EELb1EEENS_21__unordered_map_equalIS7_SD_SI_SG_Lb1EEENS5_ISD_EEE25__emplace_unique_key_argsIS7_JNS_4pairIKS7_SC_EEEEENSP_INS_15__hash_iteratorIPNS_11__hash_nodeISD_PvEEEEbEERKT_DpOT0_, symObjAddr: 0x66D4, symBinAddr: 0x10000B224, symSize: 0x490 }
  - { offsetInCU: 0x173FC, offset: 0x30552, size: 0x8, addend: 0x0, symName: __ZNSt3__122__hash_key_value_typesINS_17__hash_value_typeINS_12basic_stringIcNS_11char_traitsIcEENS_9allocatorIcEEEENS_4listIP4NodeNS5_ISA_EEEEEEE9__get_keyB7v160006ERKNS_4pairIKS7_SC_EE, symObjAddr: 0x6B64, symBinAddr: 0x10000B6B4, symSize: 0x14 }
  - { offsetInCU: 0x1741E, offset: 0x30574, size: 0x8, addend: 0x0, symName: __ZNSt3__112__hash_tableINS_17__hash_value_typeINS_12basic_stringIcNS_11char_traitsIcEENS_9allocatorIcEEEENS_4listIP4NodeNS5_ISA_EEEEEENS_22__unordered_map_hasherIS7_SD_NS_4hashIS7_EENS_8equal_toIS7_EELb1EEENS_21__unordered_map_equalIS7_SD_SI_SG_Lb1EEENS5_ISD_EEE13hash_functionB7v160006Ev, symObjAddr: 0x6B78, symBinAddr: 0x10000B6C8, symSize: 0x28 }
  - { offsetInCU: 0x17442, offset: 0x30598, size: 0x8, addend: 0x0, symName: __ZNSt3__112__hash_tableINS_17__hash_value_typeINS_12basic_stringIcNS_11char_traitsIcEENS_9allocatorIcEEEENS_4listIP4NodeNS5_ISA_EEEEEENS_22__unordered_map_hasherIS7_SD_NS_4hashIS7_EENS_8equal_toIS7_EELb1EEENS_21__unordered_map_equalIS7_SD_SI_SG_Lb1EEENS5_ISD_EEE6key_eqB7v160006Ev, symObjAddr: 0x6BA0, symBinAddr: 0x10000B6F0, symSize: 0x28 }
  - { offsetInCU: 0x17466, offset: 0x305BC, size: 0x8, addend: 0x0, symName: __ZNSt3__112__hash_tableINS_17__hash_value_typeINS_12basic_stringIcNS_11char_traitsIcEENS_9allocatorIcEEEENS_4listIP4NodeNS5_ISA_EEEEEENS_22__unordered_map_hasherIS7_SD_NS_4hashIS7_EENS_8equal_toIS7_EELb1EEENS_21__unordered_map_equalIS7_SD_SI_SG_Lb1EEENS5_ISD_EEE21__construct_node_hashINS_4pairIKS7_SC_EEJEEENS_10unique_ptrINS_11__hash_nodeISD_PvEENS_22__hash_node_destructorINS5_ISV_EEEEEEmOT_DpOT0_, symObjAddr: 0x6BC8, symBinAddr: 0x10000B718, symSize: 0x140 }
  - { offsetInCU: 0x174D8, offset: 0x3062E, size: 0x8, addend: 0x0, symName: __ZNSt3__112__hash_tableINS_17__hash_value_typeINS_12basic_stringIcNS_11char_traitsIcEENS_9allocatorIcEEEENS_4listIP4NodeNS5_ISA_EEEEEENS_22__unordered_map_hasherIS7_SD_NS_4hashIS7_EENS_8equal_toIS7_EELb1EEENS_21__unordered_map_equalIS7_SD_SI_SG_Lb1EEENS5_ISD_EEE4sizeB7v160006Ev, symObjAddr: 0x6D08, symBinAddr: 0x10000B858, symSize: 0x28 }
  - { offsetInCU: 0x174FC, offset: 0x30652, size: 0x8, addend: 0x0, symName: __ZNSt3__112__hash_tableINS_17__hash_value_typeINS_12basic_stringIcNS_11char_traitsIcEENS_9allocatorIcEEEENS_4listIP4NodeNS5_ISA_EEEEEENS_22__unordered_map_hasherIS7_SD_NS_4hashIS7_EENS_8equal_toIS7_EELb1EEENS_21__unordered_map_equalIS7_SD_SI_SG_Lb1EEENS5_ISD_EEE15max_load_factorB7v160006Ev, symObjAddr: 0x6D30, symBinAddr: 0x10000B880, symSize: 0x28 }
  - { offsetInCU: 0x17520, offset: 0x30676, size: 0x8, addend: 0x0, symName: __ZNSt3__112__hash_tableINS_17__hash_value_typeINS_12basic_stringIcNS_11char_traitsIcEENS_9allocatorIcEEEENS_4listIP4NodeNS5_ISA_EEEEEENS_22__unordered_map_hasherIS7_SD_NS_4hashIS7_EENS_8equal_toIS7_EELb1EEENS_21__unordered_map_equalIS7_SD_SI_SG_Lb1EEENS5_ISD_EEE15__rehash_uniqueB7v160006Em, symObjAddr: 0x6D58, symBinAddr: 0x10000B8A8, symSize: 0x2C }
  - { offsetInCU: 0x17552, offset: 0x306A8, size: 0x8, addend: 0x0, symName: __Z4ceilB7v160006f, symObjAddr: 0x6E00, symBinAddr: 0x10000B924, symSize: 0x18 }
  - { offsetInCU: 0x17582, offset: 0x306D8, size: 0x8, addend: 0x0, symName: __ZNSt3__116__hash_node_baseIPNS_11__hash_nodeINS_17__hash_value_typeINS_12basic_stringIcNS_11char_traitsIcEENS_9allocatorIcEEEENS_4listIP4NodeNS6_ISB_EEEEEEPvEEE5__ptrB7v160006Ev, symObjAddr: 0x6E18, symBinAddr: 0x10000B93C, symSize: 0x24 }
  - { offsetInCU: 0x175A6, offset: 0x306FC, size: 0x8, addend: 0x0, symName: __ZNKSt3__110unique_ptrINS_11__hash_nodeINS_17__hash_value_typeINS_12basic_stringIcNS_11char_traitsIcEENS_9allocatorIcEEEENS_4listIP4NodeNS6_ISB_EEEEEEPvEENS_22__hash_node_destructorINS6_ISG_EEEEEptB7v160006Ev, symObjAddr: 0x6E3C, symBinAddr: 0x10000B960, symSize: 0x28 }
  - { offsetInCU: 0x175CA, offset: 0x30720, size: 0x8, addend: 0x0, symName: __ZNKSt3__110unique_ptrINS_11__hash_nodeINS_17__hash_value_typeINS_12basic_stringIcNS_11char_traitsIcEENS_9allocatorIcEEEENS_4listIP4NodeNS6_ISB_EEEEEEPvEENS_22__hash_node_destructorINS6_ISG_EEEEE3getB7v160006Ev, symObjAddr: 0x6E64, symBinAddr: 0x10000B988, symSize: 0x28 }
  - { offsetInCU: 0x175EE, offset: 0x30744, size: 0x8, addend: 0x0, symName: __ZNSt3__110unique_ptrINS_11__hash_nodeINS_17__hash_value_typeINS_12basic_stringIcNS_11char_traitsIcEENS_9allocatorIcEEEENS_4listIP4NodeNS6_ISB_EEEEEEPvEENS_22__hash_node_destructorINS6_ISG_EEEEE7releaseB7v160006Ev, symObjAddr: 0x6E8C, symBinAddr: 0x10000B9B0, symSize: 0x44 }
  - { offsetInCU: 0x17621, offset: 0x30777, size: 0x8, addend: 0x0, symName: __ZNSt3__110unique_ptrINS_11__hash_nodeINS_17__hash_value_typeINS_12basic_stringIcNS_11char_traitsIcEENS_9allocatorIcEEEENS_4listIP4NodeNS6_ISB_EEEEEEPvEENS_22__hash_node_destructorINS6_ISG_EEEEED1B7v160006Ev, symObjAddr: 0x6ED0, symBinAddr: 0x10000B9F4, symSize: 0x2C }
  - { offsetInCU: 0x17649, offset: 0x3079F, size: 0x8, addend: 0x0, symName: __ZNSt3__115__hash_iteratorIPNS_11__hash_nodeINS_17__hash_value_typeINS_12basic_stringIcNS_11char_traitsIcEENS_9allocatorIcEEEENS_4listIP4NodeNS6_ISB_EEEEEEPvEEEC1B7v160006EPNS_16__hash_node_baseISH_EEPKv, symObjAddr: 0x6EFC, symBinAddr: 0x10000BA20, symSize: 0x3C }
  - { offsetInCU: 0x17694, offset: 0x307EA, size: 0x8, addend: 0x0, symName: __ZNSt3__14pairINS_15__hash_iteratorIPNS_11__hash_nodeINS_17__hash_value_typeINS_12basic_stringIcNS_11char_traitsIcEENS_9allocatorIcEEEENS_4listIP4NodeNS7_ISC_EEEEEEPvEEEEbEC1B7v160006ISJ_RbLSG_0EEEOT_OT0_, symObjAddr: 0x6F38, symBinAddr: 0x10000BA5C, symSize: 0x3C }
  - { offsetInCU: 0x176F1, offset: 0x30847, size: 0x8, addend: 0x0, symName: __ZNSt3__117__compressed_pairImNS_22__unordered_map_hasherINS_12basic_stringIcNS_11char_traitsIcEENS_9allocatorIcEEEENS_17__hash_value_typeIS7_NS_4listIP4NodeNS5_ISB_EEEEEENS_4hashIS7_EENS_8equal_toIS7_EELb1EEEE6secondB7v160006Ev, symObjAddr: 0x6F74, symBinAddr: 0x10000BA98, symSize: 0x24 }
  - { offsetInCU: 0x17715, offset: 0x3086B, size: 0x8, addend: 0x0, symName: __ZNSt3__122__compressed_pair_elemINS_22__unordered_map_hasherINS_12basic_stringIcNS_11char_traitsIcEENS_9allocatorIcEEEENS_17__hash_value_typeIS7_NS_4listIP4NodeNS5_ISB_EEEEEENS_4hashIS7_EENS_8equal_toIS7_EELb1EEELi1ELb1EE5__getB7v160006Ev, symObjAddr: 0x6F98, symBinAddr: 0x10000BABC, symSize: 0x14 }
  - { offsetInCU: 0x17739, offset: 0x3088F, size: 0x8, addend: 0x0, symName: __ZNSt3__117__compressed_pairIfNS_21__unordered_map_equalINS_12basic_stringIcNS_11char_traitsIcEENS_9allocatorIcEEEENS_17__hash_value_typeIS7_NS_4listIP4NodeNS5_ISB_EEEEEENS_8equal_toIS7_EENS_4hashIS7_EELb1EEEE6secondB7v160006Ev, symObjAddr: 0x6FAC, symBinAddr: 0x10000BAD0, symSize: 0x24 }
  - { offsetInCU: 0x1775D, offset: 0x308B3, size: 0x8, addend: 0x0, symName: __ZNSt3__122__compressed_pair_elemINS_21__unordered_map_equalINS_12basic_stringIcNS_11char_traitsIcEENS_9allocatorIcEEEENS_17__hash_value_typeIS7_NS_4listIP4NodeNS5_ISB_EEEEEENS_8equal_toIS7_EENS_4hashIS7_EELb1EEELi1ELb1EE5__getB7v160006Ev, symObjAddr: 0x6FD0, symBinAddr: 0x10000BAF4, symSize: 0x14 }
  - { offsetInCU: 0x17781, offset: 0x308D7, size: 0x8, addend: 0x0, symName: __ZNSt3__116allocator_traitsINS_9allocatorINS_11__hash_nodeINS_17__hash_value_typeINS_12basic_stringIcNS_11char_traitsIcEENS1_IcEEEENS_4listIP4NodeNS1_ISB_EEEEEEPvEEEEE8allocateB7v160006ERSH_m, symObjAddr: 0x6FE4, symBinAddr: 0x10000BB08, symSize: 0x2C }
  - { offsetInCU: 0x177B3, offset: 0x30909, size: 0x8, addend: 0x0, symName: __ZNSt3__122__hash_node_destructorINS_9allocatorINS_11__hash_nodeINS_17__hash_value_typeINS_12basic_stringIcNS_11char_traitsIcEENS1_IcEEEENS_4listIP4NodeNS1_ISB_EEEEEEPvEEEEEC1B7v160006ERSH_b, symObjAddr: 0x7010, symBinAddr: 0x10000BB34, symSize: 0x48 }
  - { offsetInCU: 0x177FE, offset: 0x30954, size: 0x8, addend: 0x0, symName: __ZNSt3__110unique_ptrINS_11__hash_nodeINS_17__hash_value_typeINS_12basic_stringIcNS_11char_traitsIcEENS_9allocatorIcEEEENS_4listIP4NodeNS6_ISB_EEEEEEPvEENS_22__hash_node_destructorINS6_ISG_EEEEEC1B7v160006ILb1EvEEPSG_NS_16__dependent_typeINS_27__unique_ptr_deleter_sfinaeISJ_EEXT_EE20__good_rval_ref_typeE, symObjAddr: 0x7058, symBinAddr: 0x10000BB7C, symSize: 0x3C }
  - { offsetInCU: 0x1784E, offset: 0x309A4, size: 0x8, addend: 0x0, symName: __ZNSt3__116allocator_traitsINS_9allocatorINS_11__hash_nodeINS_17__hash_value_typeINS_12basic_stringIcNS_11char_traitsIcEENS1_IcEEEENS_4listIP4NodeNS1_ISB_EEEEEEPvEEEEE9constructB7v160006INS_4pairIKS8_SD_EEJSM_EvvEEvRSH_PT_DpOT0_, symObjAddr: 0x7094, symBinAddr: 0x10000BBB8, symSize: 0x30 }
  - { offsetInCU: 0x178A6, offset: 0x309FC, size: 0x8, addend: 0x0, symName: __ZNSt3__110unique_ptrINS_11__hash_nodeINS_17__hash_value_typeINS_12basic_stringIcNS_11char_traitsIcEENS_9allocatorIcEEEENS_4listIP4NodeNS6_ISB_EEEEEEPvEENS_22__hash_node_destructorINS6_ISG_EEEEE11get_deleterB7v160006Ev, symObjAddr: 0x70C4, symBinAddr: 0x10000BBE8, symSize: 0x24 }
  - { offsetInCU: 0x178CA, offset: 0x30A20, size: 0x8, addend: 0x0, symName: __ZNSt3__19allocatorINS_11__hash_nodeINS_17__hash_value_typeINS_12basic_stringIcNS_11char_traitsIcEENS0_IcEEEENS_4listIP4NodeNS0_ISA_EEEEEEPvEEE8allocateB7v160006Em, symObjAddr: 0x70E8, symBinAddr: 0x10000BC0C, symSize: 0x58 }
  - { offsetInCU: 0x17906, offset: 0x30A5C, size: 0x8, addend: 0x0, symName: __ZNSt3__116allocator_traitsINS_9allocatorINS_11__hash_nodeINS_17__hash_value_typeINS_12basic_stringIcNS_11char_traitsIcEENS1_IcEEEENS_4listIP4NodeNS1_ISB_EEEEEEPvEEEEE8max_sizeB7v160006ISH_vvEEmRKSH_, symObjAddr: 0x7140, symBinAddr: 0x10000BC64, symSize: 0x28 }
  - { offsetInCU: 0x17933, offset: 0x30A89, size: 0x8, addend: 0x0, symName: __ZNSt3__122__hash_node_destructorINS_9allocatorINS_11__hash_nodeINS_17__hash_value_typeINS_12basic_stringIcNS_11char_traitsIcEENS1_IcEEEENS_4listIP4NodeNS1_ISB_EEEEEEPvEEEEEC2B7v160006ERSH_b, symObjAddr: 0x7268, symBinAddr: 0x10000BC8C, symSize: 0x38 }
  - { offsetInCU: 0x17979, offset: 0x30ACF, size: 0x8, addend: 0x0, symName: __ZNSt3__110unique_ptrINS_11__hash_nodeINS_17__hash_value_typeINS_12basic_stringIcNS_11char_traitsIcEENS_9allocatorIcEEEENS_4listIP4NodeNS6_ISB_EEEEEEPvEENS_22__hash_node_destructorINS6_ISG_EEEEEC2B7v160006ILb1EvEEPSG_NS_16__dependent_typeINS_27__unique_ptr_deleter_sfinaeISJ_EEXT_EE20__good_rval_ref_typeE, symObjAddr: 0x72A0, symBinAddr: 0x10000BCC4, symSize: 0x48 }
  - { offsetInCU: 0x179C9, offset: 0x30B1F, size: 0x8, addend: 0x0, symName: __ZNSt3__117__compressed_pairIPNS_11__hash_nodeINS_17__hash_value_typeINS_12basic_stringIcNS_11char_traitsIcEENS_9allocatorIcEEEENS_4listIP4NodeNS6_ISB_EEEEEEPvEENS_22__hash_node_destructorINS6_ISG_EEEEEC1B7v160006IRSH_SK_EEOT_OT0_, symObjAddr: 0x72E8, symBinAddr: 0x10000BD0C, symSize: 0x3C }
  - { offsetInCU: 0x17A1F, offset: 0x30B75, size: 0x8, addend: 0x0, symName: __ZNSt3__117__compressed_pairIPNS_11__hash_nodeINS_17__hash_value_typeINS_12basic_stringIcNS_11char_traitsIcEENS_9allocatorIcEEEENS_4listIP4NodeNS6_ISB_EEEEEEPvEENS_22__hash_node_destructorINS6_ISG_EEEEEC2B7v160006IRSH_SK_EEOT_OT0_, symObjAddr: 0x7324, symBinAddr: 0x10000BD48, symSize: 0x48 }
  - { offsetInCU: 0x17A75, offset: 0x30BCB, size: 0x8, addend: 0x0, symName: __ZNSt3__122__compressed_pair_elemIPNS_11__hash_nodeINS_17__hash_value_typeINS_12basic_stringIcNS_11char_traitsIcEENS_9allocatorIcEEEENS_4listIP4NodeNS6_ISB_EEEEEEPvEELi0ELb0EEC2B7v160006IRSH_vEEOT_, symObjAddr: 0x736C, symBinAddr: 0x10000BD90, symSize: 0x24 }
  - { offsetInCU: 0x17AB6, offset: 0x30C0C, size: 0x8, addend: 0x0, symName: __ZNSt3__122__compressed_pair_elemINS_22__hash_node_destructorINS_9allocatorINS_11__hash_nodeINS_17__hash_value_typeINS_12basic_stringIcNS_11char_traitsIcEENS2_IcEEEENS_4listIP4NodeNS2_ISC_EEEEEEPvEEEEEELi1ELb0EEC2B7v160006ISJ_vEEOT_, symObjAddr: 0x7390, symBinAddr: 0x10000BDB4, symSize: 0x24 }
  - { offsetInCU: 0x17AF7, offset: 0x30C4D, size: 0x8, addend: 0x0, symName: __ZNSt3__14pairIKNS_12basic_stringIcNS_11char_traitsIcEENS_9allocatorIcEEEENS_4listIP4NodeNS4_ISA_EEEEEC1EOSD_, symObjAddr: 0x73F0, symBinAddr: 0x10000BE14, symSize: 0x34 }
  - { offsetInCU: 0x17B29, offset: 0x30C7F, size: 0x8, addend: 0x0, symName: __ZNSt3__14pairIKNS_12basic_stringIcNS_11char_traitsIcEENS_9allocatorIcEEEENS_4listIP4NodeNS4_ISA_EEEEEC2EOSD_, symObjAddr: 0x7424, symBinAddr: 0x10000BE48, symSize: 0x48 }
  - { offsetInCU: 0x17B5B, offset: 0x30CB1, size: 0x8, addend: 0x0, symName: __ZNSt3__14listIP4NodeNS_9allocatorIS2_EEEC1EOS5_, symObjAddr: 0x746C, symBinAddr: 0x10000BE90, symSize: 0x34 }
  - { offsetInCU: 0x17B95, offset: 0x30CEB, size: 0x8, addend: 0x0, symName: __ZNSt3__14listIP4NodeNS_9allocatorIS2_EEEC2EOS5_, symObjAddr: 0x74A0, symBinAddr: 0x10000BEC4, symSize: 0x78 }
  - { offsetInCU: 0x17BCF, offset: 0x30D25, size: 0x8, addend: 0x0, symName: __ZNSt3__110__list_impIP4NodeNS_9allocatorIS2_EEEC2EONS3_INS_11__list_nodeIS2_PvEEEE, symObjAddr: 0x7518, symBinAddr: 0x10000BF3C, symSize: 0x54 }
  - { offsetInCU: 0x17C09, offset: 0x30D5F, size: 0x8, addend: 0x0, symName: __ZNSt3__14listIP4NodeNS_9allocatorIS2_EEE6spliceENS_21__list_const_iteratorIS2_PvEERS5_, symObjAddr: 0x756C, symBinAddr: 0x10000BF90, symSize: 0xAC }
  - { offsetInCU: 0x17C7A, offset: 0x30DD0, size: 0x8, addend: 0x0, symName: __ZNSt3__121__list_const_iteratorIP4NodePvEC1B7v160006ERKNS_15__list_iteratorIS2_S3_EE, symObjAddr: 0x7618, symBinAddr: 0x10000C03C, symSize: 0x34 }
  - { offsetInCU: 0x17CB6, offset: 0x30E0C, size: 0x8, addend: 0x0, symName: __ZNSt3__117__compressed_pairImNS_9allocatorINS_11__list_nodeIP4NodePvEEEEEC1B7v160006IiS7_EEOT_OT0_, symObjAddr: 0x764C, symBinAddr: 0x10000C070, symSize: 0x3C }
  - { offsetInCU: 0x17D0C, offset: 0x30E62, size: 0x8, addend: 0x0, symName: __ZNSt3__117__compressed_pairImNS_9allocatorINS_11__list_nodeIP4NodePvEEEEEC2B7v160006IiS7_EEOT_OT0_, symObjAddr: 0x7688, symBinAddr: 0x10000C0AC, symSize: 0x44 }
  - { offsetInCU: 0x17D62, offset: 0x30EB8, size: 0x8, addend: 0x0, symName: __ZNSt3__122__compressed_pair_elemINS_9allocatorINS_11__list_nodeIP4NodePvEEEELi1ELb1EEC2B7v160006IS7_vEEOT_, symObjAddr: 0x76CC, symBinAddr: 0x10000C0F0, symSize: 0x18 }
  - { offsetInCU: 0x17DA3, offset: 0x30EF9, size: 0x8, addend: 0x0, symName: __ZNKSt3__14listIP4NodeNS_9allocatorIS2_EEE5emptyB7v160006Ev, symObjAddr: 0x76E4, symBinAddr: 0x10000C108, symSize: 0x28 }
  - { offsetInCU: 0x17DC7, offset: 0x30F1D, size: 0x8, addend: 0x0, symName: __ZNSt3__14listIP4NodeNS_9allocatorIS2_EEE12__link_nodesEPNS_16__list_node_baseIS2_PvEES9_S9_, symObjAddr: 0x770C, symBinAddr: 0x10000C130, symSize: 0x50 }
  - { offsetInCU: 0x17E0B, offset: 0x30F61, size: 0x8, addend: 0x0, symName: __ZNSt3__121__list_const_iteratorIP4NodePvEC2B7v160006ERKNS_15__list_iteratorIS2_S3_EE, symObjAddr: 0x775C, symBinAddr: 0x10000C180, symSize: 0x24 }
  - { offsetInCU: 0x17E42, offset: 0x30F98, size: 0x8, addend: 0x0, symName: __ZNSt3__117__compressed_pairIPNS_11__hash_nodeINS_17__hash_value_typeINS_12basic_stringIcNS_11char_traitsIcEENS_9allocatorIcEEEENS_4listIP4NodeNS6_ISB_EEEEEEPvEENS_22__hash_node_destructorINS6_ISG_EEEEE6secondB7v160006Ev, symObjAddr: 0x7780, symBinAddr: 0x10000C1A4, symSize: 0x28 }
  - { offsetInCU: 0x17E66, offset: 0x30FBC, size: 0x8, addend: 0x0, symName: __ZNSt3__122__compressed_pair_elemINS_22__hash_node_destructorINS_9allocatorINS_11__hash_nodeINS_17__hash_value_typeINS_12basic_stringIcNS_11char_traitsIcEENS2_IcEEEENS_4listIP4NodeNS2_ISC_EEEEEEPvEEEEEELi1ELb0EE5__getB7v160006Ev, symObjAddr: 0x77A8, symBinAddr: 0x10000C1CC, symSize: 0x14 }
  - { offsetInCU: 0x17E8A, offset: 0x30FE0, size: 0x8, addend: 0x0, symName: __ZNSt3__117__compressed_pairImNS_22__unordered_map_hasherINS_12basic_stringIcNS_11char_traitsIcEENS_9allocatorIcEEEENS_17__hash_value_typeIS7_NS_4listIP4NodeNS5_ISB_EEEEEENS_4hashIS7_EENS_8equal_toIS7_EELb1EEEE5firstB7v160006Ev, symObjAddr: 0x77BC, symBinAddr: 0x10000C1E0, symSize: 0x24 }
  - { offsetInCU: 0x17EAE, offset: 0x31004, size: 0x8, addend: 0x0, symName: __ZNSt3__117__compressed_pairIfNS_21__unordered_map_equalINS_12basic_stringIcNS_11char_traitsIcEENS_9allocatorIcEEEENS_17__hash_value_typeIS7_NS_4listIP4NodeNS5_ISB_EEEEEENS_8equal_toIS7_EENS_4hashIS7_EELb1EEEE5firstB7v160006Ev, symObjAddr: 0x77E0, symBinAddr: 0x10000C204, symSize: 0x24 }
  - { offsetInCU: 0x17ED2, offset: 0x31028, size: 0x8, addend: 0x0, symName: __ZNSt3__122__compressed_pair_elemIfLi0ELb0EE5__getB7v160006Ev, symObjAddr: 0x7804, symBinAddr: 0x10000C228, symSize: 0x14 }
  - { offsetInCU: 0x17EF6, offset: 0x3104C, size: 0x8, addend: 0x0, symName: __ZNSt3__112__hash_tableINS_17__hash_value_typeINS_12basic_stringIcNS_11char_traitsIcEENS_9allocatorIcEEEENS_4listIP4NodeNS5_ISA_EEEEEENS_22__unordered_map_hasherIS7_SD_NS_4hashIS7_EENS_8equal_toIS7_EELb1EEENS_21__unordered_map_equalIS7_SD_SI_SG_Lb1EEENS5_ISD_EEE8__rehashILb1EEEvm, symObjAddr: 0x7818, symBinAddr: 0x10000C23C, symSize: 0x1A8 }
  - { offsetInCU: 0x17F44, offset: 0x3109A, size: 0x8, addend: 0x0, symName: __ZNSt3__112__hash_tableINS_17__hash_value_typeINS_12basic_stringIcNS_11char_traitsIcEENS_9allocatorIcEEEENS_4listIP4NodeNS5_ISA_EEEEEENS_22__unordered_map_hasherIS7_SD_NS_4hashIS7_EENS_8equal_toIS7_EELb1EEENS_21__unordered_map_equalIS7_SD_SI_SG_Lb1EEENS5_ISD_EEE11__do_rehashILb1EEEvm, symObjAddr: 0x79C0, symBinAddr: 0x10000C3E4, symSize: 0x290 }
  - { offsetInCU: 0x18029, offset: 0x3117F, size: 0x8, addend: 0x0, symName: __ZNSt3__110unique_ptrIA_PNS_16__hash_node_baseIPNS_11__hash_nodeINS_17__hash_value_typeINS_12basic_stringIcNS_11char_traitsIcEENS_9allocatorIcEEEENS_4listIP4NodeNS7_ISC_EEEEEEPvEEEENS_25__bucket_list_deallocatorINS7_ISK_EEEEE11get_deleterB7v160006Ev, symObjAddr: 0x7CCC, symBinAddr: 0x10000C6F0, symSize: 0x24 }
  - { offsetInCU: 0x1804D, offset: 0x311A3, size: 0x8, addend: 0x0, symName: __ZNSt3__110unique_ptrIA_PNS_16__hash_node_baseIPNS_11__hash_nodeINS_17__hash_value_typeINS_12basic_stringIcNS_11char_traitsIcEENS_9allocatorIcEEEENS_4listIP4NodeNS7_ISC_EEEEEEPvEEEENS_25__bucket_list_deallocatorINS7_ISK_EEEEE5resetB7v160006IPSK_EENS_9enable_ifIXsr28_CheckArrayPointerConversionIT_EE5valueEvE4typeEST_, symObjAddr: 0x7CF0, symBinAddr: 0x10000C714, symSize: 0x78 }
  - { offsetInCU: 0x18098, offset: 0x311EE, size: 0x8, addend: 0x0, symName: __ZNSt3__116allocator_traitsINS_9allocatorIPNS_16__hash_node_baseIPNS_11__hash_nodeINS_17__hash_value_typeINS_12basic_stringIcNS_11char_traitsIcEENS1_IcEEEENS_4listIP4NodeNS1_ISC_EEEEEEPvEEEEEEE8allocateB7v160006ERSL_m, symObjAddr: 0x7D68, symBinAddr: 0x10000C78C, symSize: 0x2C }
  - { offsetInCU: 0x180CA, offset: 0x31220, size: 0x8, addend: 0x0, symName: __ZNSt3__19allocatorIPNS_16__hash_node_baseIPNS_11__hash_nodeINS_17__hash_value_typeINS_12basic_stringIcNS_11char_traitsIcEENS0_IcEEEENS_4listIP4NodeNS0_ISB_EEEEEEPvEEEEE8allocateB7v160006Em, symObjAddr: 0x7D94, symBinAddr: 0x10000C7B8, symSize: 0x58 }
  - { offsetInCU: 0x18106, offset: 0x3125C, size: 0x8, addend: 0x0, symName: __ZNSt3__116allocator_traitsINS_9allocatorIPNS_16__hash_node_baseIPNS_11__hash_nodeINS_17__hash_value_typeINS_12basic_stringIcNS_11char_traitsIcEENS1_IcEEEENS_4listIP4NodeNS1_ISC_EEEEEEPvEEEEEEE8max_sizeB7v160006ISL_vvEEmRKSL_, symObjAddr: 0x7DEC, symBinAddr: 0x10000C810, symSize: 0x28 }
  - { offsetInCU: 0x18133, offset: 0x31289, size: 0x8, addend: 0x0, symName: __ZNKSt3__117__compressed_pairIPNS_11__hash_nodeINS_17__hash_value_typeINS_12basic_stringIcNS_11char_traitsIcEENS_9allocatorIcEEEENS_4listIP4NodeNS6_ISB_EEEEEEPvEENS_22__hash_node_destructorINS6_ISG_EEEEE5firstB7v160006Ev, symObjAddr: 0x7EB8, symBinAddr: 0x10000C854, symSize: 0x24 }
  - { offsetInCU: 0x18157, offset: 0x312AD, size: 0x8, addend: 0x0, symName: __ZNKSt3__122__compressed_pair_elemIPNS_11__hash_nodeINS_17__hash_value_typeINS_12basic_stringIcNS_11char_traitsIcEENS_9allocatorIcEEEENS_4listIP4NodeNS6_ISB_EEEEEEPvEELi0ELb0EE5__getB7v160006Ev, symObjAddr: 0x7EDC, symBinAddr: 0x10000C878, symSize: 0x14 }
  - { offsetInCU: 0x1817B, offset: 0x312D1, size: 0x8, addend: 0x0, symName: __ZNSt3__117__compressed_pairIPNS_11__hash_nodeINS_17__hash_value_typeINS_12basic_stringIcNS_11char_traitsIcEENS_9allocatorIcEEEENS_4listIP4NodeNS6_ISB_EEEEEEPvEENS_22__hash_node_destructorINS6_ISG_EEEEE5firstB7v160006Ev, symObjAddr: 0x7EF0, symBinAddr: 0x10000C88C, symSize: 0x24 }
  - { offsetInCU: 0x1819F, offset: 0x312F5, size: 0x8, addend: 0x0, symName: __ZNSt3__122__compressed_pair_elemIPNS_11__hash_nodeINS_17__hash_value_typeINS_12basic_stringIcNS_11char_traitsIcEENS_9allocatorIcEEEENS_4listIP4NodeNS6_ISB_EEEEEEPvEELi0ELb0EE5__getB7v160006Ev, symObjAddr: 0x7F14, symBinAddr: 0x10000C8B0, symSize: 0x14 }
  - { offsetInCU: 0x181C3, offset: 0x31319, size: 0x8, addend: 0x0, symName: __ZNSt3__110unique_ptrINS_11__hash_nodeINS_17__hash_value_typeINS_12basic_stringIcNS_11char_traitsIcEENS_9allocatorIcEEEENS_4listIP4NodeNS6_ISB_EEEEEEPvEENS_22__hash_node_destructorINS6_ISG_EEEEED2B7v160006Ev, symObjAddr: 0x7F28, symBinAddr: 0x10000C8C4, symSize: 0x30 }
  - { offsetInCU: 0x181EB, offset: 0x31341, size: 0x8, addend: 0x0, symName: __ZNSt3__110unique_ptrINS_11__hash_nodeINS_17__hash_value_typeINS_12basic_stringIcNS_11char_traitsIcEENS_9allocatorIcEEEENS_4listIP4NodeNS6_ISB_EEEEEEPvEENS_22__hash_node_destructorINS6_ISG_EEEEE5resetB7v160006EPSG_, symObjAddr: 0x7F58, symBinAddr: 0x10000C8F4, symSize: 0x78 }
  - { offsetInCU: 0x1822D, offset: 0x31383, size: 0x8, addend: 0x0, symName: __ZNSt3__122__hash_node_destructorINS_9allocatorINS_11__hash_nodeINS_17__hash_value_typeINS_12basic_stringIcNS_11char_traitsIcEENS1_IcEEEENS_4listIP4NodeNS1_ISB_EEEEEEPvEEEEEclB7v160006EPSG_, symObjAddr: 0x7FD0, symBinAddr: 0x10000C96C, symSize: 0x98 }
  - { offsetInCU: 0x18260, offset: 0x313B6, size: 0x8, addend: 0x0, symName: __ZNSt3__115__hash_iteratorIPNS_11__hash_nodeINS_17__hash_value_typeINS_12basic_stringIcNS_11char_traitsIcEENS_9allocatorIcEEEENS_4listIP4NodeNS6_ISB_EEEEEEPvEEEC2B7v160006EPNS_16__hash_node_baseISH_EEPKv, symObjAddr: 0x8068, symBinAddr: 0x10000CA04, symSize: 0x24 }
  - { offsetInCU: 0x182A6, offset: 0x313FC, size: 0x8, addend: 0x0, symName: __ZNSt3__14pairINS_15__hash_iteratorIPNS_11__hash_nodeINS_17__hash_value_typeINS_12basic_stringIcNS_11char_traitsIcEENS_9allocatorIcEEEENS_4listIP4NodeNS7_ISC_EEEEEEPvEEEEbEC2B7v160006ISJ_RbLSG_0EEEOT_OT0_, symObjAddr: 0x808C, symBinAddr: 0x10000CA28, symSize: 0x38 }
  - { offsetInCU: 0x18303, offset: 0x31459, size: 0x8, addend: 0x0, symName: __ZNSt3__14pairINS_19__hash_map_iteratorINS_15__hash_iteratorIPNS_11__hash_nodeINS_17__hash_value_typeINS_12basic_stringIcNS_11char_traitsIcEENS_9allocatorIcEEEENS_4listIP4NodeNS8_ISD_EEEEEEPvEEEEEEbEC2B7v160006ISK_bLSH_0EEEONS0_IT_T0_EE, symObjAddr: 0x80C4, symBinAddr: 0x10000CA60, symSize: 0x50 }
  - { offsetInCU: 0x18353, offset: 0x314A9, size: 0x8, addend: 0x0, symName: __ZNSt3__119__hash_map_iteratorINS_15__hash_iteratorIPNS_11__hash_nodeINS_17__hash_value_typeINS_12basic_stringIcNS_11char_traitsIcEENS_9allocatorIcEEEENS_4listIP4NodeNS7_ISC_EEEEEEPvEEEEEC1B7v160006ESJ_, symObjAddr: 0x8114, symBinAddr: 0x10000CAB0, symSize: 0x34 }
  - { offsetInCU: 0x1838A, offset: 0x314E0, size: 0x8, addend: 0x0, symName: __ZNSt3__119__hash_map_iteratorINS_15__hash_iteratorIPNS_11__hash_nodeINS_17__hash_value_typeINS_12basic_stringIcNS_11char_traitsIcEENS_9allocatorIcEEEENS_4listIP4NodeNS7_ISC_EEEEEEPvEEEEEC2B7v160006ESJ_, symObjAddr: 0x8148, symBinAddr: 0x10000CAE4, symSize: 0x20 }
  - { offsetInCU: 0x183C1, offset: 0x31517, size: 0x8, addend: 0x0, symName: __ZNSt3__14listIP4NodeNS_9allocatorIS2_EEEC2ERKS5_, symObjAddr: 0x8168, symBinAddr: 0x10000CB04, symSize: 0xE4 }
  - { offsetInCU: 0x18432, offset: 0x31588, size: 0x8, addend: 0x0, symName: __ZNSt3__116allocator_traitsINS_9allocatorINS_11__list_nodeIP4NodePvEEEEE37select_on_container_copy_constructionB7v160006IS7_vvEES7_RKS7_, symObjAddr: 0x824C, symBinAddr: 0x10000CBE8, symSize: 0x10 }
  - { offsetInCU: 0x18462, offset: 0x315B8, size: 0x8, addend: 0x0, symName: __ZNKSt3__110__list_impIP4NodeNS_9allocatorIS2_EEE12__node_allocB7v160006Ev, symObjAddr: 0x825C, symBinAddr: 0x10000CBF8, symSize: 0x28 }
  - { offsetInCU: 0x18486, offset: 0x315DC, size: 0x8, addend: 0x0, symName: __ZNKSt3__14listIP4NodeNS_9allocatorIS2_EEE5beginB7v160006Ev, symObjAddr: 0x8284, symBinAddr: 0x10000CC20, symSize: 0x2C }
  - { offsetInCU: 0x184AA, offset: 0x31600, size: 0x8, addend: 0x0, symName: __ZNKSt3__14listIP4NodeNS_9allocatorIS2_EEE3endB7v160006Ev, symObjAddr: 0x82B0, symBinAddr: 0x10000CC4C, symSize: 0x2C }
  - { offsetInCU: 0x184CE, offset: 0x31624, size: 0x8, addend: 0x0, symName: __ZNSt3__14listIP4NodeNS_9allocatorIS2_EEE9push_backERKS2_, symObjAddr: 0x8310, symBinAddr: 0x10000CCAC, symSize: 0xF4 }
  - { offsetInCU: 0x18521, offset: 0x31677, size: 0x8, addend: 0x0, symName: __ZNKSt3__121__list_const_iteratorIP4NodePvEdeB7v160006Ev, symObjAddr: 0x8404, symBinAddr: 0x10000CDA0, symSize: 0x2C }
  - { offsetInCU: 0x18545, offset: 0x3169B, size: 0x8, addend: 0x0, symName: __ZNSt3__121__list_const_iteratorIP4NodePvEppB7v160006Ev, symObjAddr: 0x8430, symBinAddr: 0x10000CDCC, symSize: 0x20 }
  - { offsetInCU: 0x18569, offset: 0x316BF, size: 0x8, addend: 0x0, symName: __ZNKSt3__117__compressed_pairImNS_9allocatorINS_11__list_nodeIP4NodePvEEEEE6secondB7v160006Ev, symObjAddr: 0x8450, symBinAddr: 0x10000CDEC, symSize: 0x24 }
  - { offsetInCU: 0x1858D, offset: 0x316E3, size: 0x8, addend: 0x0, symName: __ZNKSt3__122__compressed_pair_elemINS_9allocatorINS_11__list_nodeIP4NodePvEEEELi1ELb1EE5__getB7v160006Ev, symObjAddr: 0x8474, symBinAddr: 0x10000CE10, symSize: 0x14 }
  - { offsetInCU: 0x185B1, offset: 0x31707, size: 0x8, addend: 0x0, symName: __ZNKSt3__110__list_impIP4NodeNS_9allocatorIS2_EEE5beginB7v160006Ev, symObjAddr: 0x8488, symBinAddr: 0x10000CE24, symSize: 0x30 }
  - { offsetInCU: 0x185D5, offset: 0x3172B, size: 0x8, addend: 0x0, symName: __ZNSt3__121__list_const_iteratorIP4NodePvEC1B7v160006EPNS_16__list_node_baseIS2_S3_EEPKv, symObjAddr: 0x84B8, symBinAddr: 0x10000CE54, symSize: 0x3C }
  - { offsetInCU: 0x1861B, offset: 0x31771, size: 0x8, addend: 0x0, symName: __ZNSt3__121__list_const_iteratorIP4NodePvEC2B7v160006EPNS_16__list_node_baseIS2_S3_EEPKv, symObjAddr: 0x84F4, symBinAddr: 0x10000CE90, symSize: 0x24 }
  - { offsetInCU: 0x18661, offset: 0x317B7, size: 0x8, addend: 0x0, symName: __ZNKSt3__110__list_impIP4NodeNS_9allocatorIS2_EEE3endB7v160006Ev, symObjAddr: 0x8518, symBinAddr: 0x10000CEB4, symSize: 0x3C }
  - { offsetInCU: 0x18685, offset: 0x317DB, size: 0x8, addend: 0x0, symName: __ZNSt3__14listIP4NodeNS_9allocatorIS2_EEE15__allocate_nodeB7v160006ERNS3_INS_11__list_nodeIS2_PvEEEE, symObjAddr: 0x8584, symBinAddr: 0x10000CF20, symSize: 0x70 }
  - { offsetInCU: 0x186C7, offset: 0x3181D, size: 0x8, addend: 0x0, symName: __ZNSt3__116allocator_traitsINS_9allocatorINS_11__list_nodeIP4NodePvEEEEE9constructB7v160006IS4_JRKS4_EvvEEvRS7_PT_DpOT0_, symObjAddr: 0x85F4, symBinAddr: 0x10000CF90, symSize: 0x30 }
  - { offsetInCU: 0x1871F, offset: 0x31875, size: 0x8, addend: 0x0, symName: __ZNKSt3__110unique_ptrINS_11__list_nodeIP4NodePvEENS_22__allocator_destructorINS_9allocatorIS5_EEEEEptB7v160006Ev, symObjAddr: 0x8624, symBinAddr: 0x10000CFC0, symSize: 0x28 }
  - { offsetInCU: 0x18743, offset: 0x31899, size: 0x8, addend: 0x0, symName: __ZNSt3__14listIP4NodeNS_9allocatorIS2_EEE20__link_nodes_at_backEPNS_16__list_node_baseIS2_PvEES9_, symObjAddr: 0x864C, symBinAddr: 0x10000CFE8, symSize: 0x60 }
  - { offsetInCU: 0x18787, offset: 0x318DD, size: 0x8, addend: 0x0, symName: __ZNKSt3__110unique_ptrINS_11__list_nodeIP4NodePvEENS_22__allocator_destructorINS_9allocatorIS5_EEEEE3getB7v160006Ev, symObjAddr: 0x86AC, symBinAddr: 0x10000D048, symSize: 0x28 }
  - { offsetInCU: 0x187AB, offset: 0x31901, size: 0x8, addend: 0x0, symName: __ZNSt3__111__list_nodeIP4NodePvE9__as_linkB7v160006Ev, symObjAddr: 0x86D4, symBinAddr: 0x10000D070, symSize: 0x24 }
  - { offsetInCU: 0x187CF, offset: 0x31925, size: 0x8, addend: 0x0, symName: __ZNSt3__110unique_ptrINS_11__list_nodeIP4NodePvEENS_22__allocator_destructorINS_9allocatorIS5_EEEEE7releaseB7v160006Ev, symObjAddr: 0x86F8, symBinAddr: 0x10000D094, symSize: 0x44 }
  - { offsetInCU: 0x18802, offset: 0x31958, size: 0x8, addend: 0x0, symName: __ZNSt3__110unique_ptrINS_11__list_nodeIP4NodePvEENS_22__allocator_destructorINS_9allocatorIS5_EEEEED1B7v160006Ev, symObjAddr: 0x873C, symBinAddr: 0x10000D0D8, symSize: 0x2C }
  - { offsetInCU: 0x1882A, offset: 0x31980, size: 0x8, addend: 0x0, symName: __ZNSt3__116allocator_traitsINS_9allocatorINS_11__list_nodeIP4NodePvEEEEE8allocateB7v160006ERS7_m, symObjAddr: 0x8768, symBinAddr: 0x10000D104, symSize: 0x2C }
  - { offsetInCU: 0x1885C, offset: 0x319B2, size: 0x8, addend: 0x0, symName: __ZNSt3__122__allocator_destructorINS_9allocatorINS_11__list_nodeIP4NodePvEEEEEC1B7v160006ERS7_m, symObjAddr: 0x8794, symBinAddr: 0x10000D130, symSize: 0x3C }
  - { offsetInCU: 0x188A5, offset: 0x319FB, size: 0x8, addend: 0x0, symName: __ZNSt3__110unique_ptrINS_11__list_nodeIP4NodePvEENS_22__allocator_destructorINS_9allocatorIS5_EEEEEC1B7v160006ILb1EvEEPS5_NS_16__dependent_typeINS_27__unique_ptr_deleter_sfinaeIS9_EEXT_EE20__good_rval_ref_typeE, symObjAddr: 0x87D0, symBinAddr: 0x10000D16C, symSize: 0x3C }
  - { offsetInCU: 0x188F5, offset: 0x31A4B, size: 0x8, addend: 0x0, symName: __ZNSt3__19allocatorINS_11__list_nodeIP4NodePvEEE8allocateB7v160006Em, symObjAddr: 0x880C, symBinAddr: 0x10000D1A8, symSize: 0x5C }
  - { offsetInCU: 0x18927, offset: 0x31A7D, size: 0x8, addend: 0x0, symName: __ZNSt3__116allocator_traitsINS_9allocatorINS_11__list_nodeIP4NodePvEEEEE8max_sizeB7v160006IS7_vvEEmRKS7_, symObjAddr: 0x8868, symBinAddr: 0x10000D204, symSize: 0x28 }
  - { offsetInCU: 0x18954, offset: 0x31AAA, size: 0x8, addend: 0x0, symName: __ZNSt3__122__allocator_destructorINS_9allocatorINS_11__list_nodeIP4NodePvEEEEEC2B7v160006ERS7_m, symObjAddr: 0x8890, symBinAddr: 0x10000D22C, symSize: 0x2C }
  - { offsetInCU: 0x18998, offset: 0x31AEE, size: 0x8, addend: 0x0, symName: __ZNSt3__110unique_ptrINS_11__list_nodeIP4NodePvEENS_22__allocator_destructorINS_9allocatorIS5_EEEEEC2B7v160006ILb1EvEEPS5_NS_16__dependent_typeINS_27__unique_ptr_deleter_sfinaeIS9_EEXT_EE20__good_rval_ref_typeE, symObjAddr: 0x88BC, symBinAddr: 0x10000D258, symSize: 0x48 }
  - { offsetInCU: 0x189E8, offset: 0x31B3E, size: 0x8, addend: 0x0, symName: __ZNSt3__117__compressed_pairIPNS_11__list_nodeIP4NodePvEENS_22__allocator_destructorINS_9allocatorIS5_EEEEEC1B7v160006IRS6_SA_EEOT_OT0_, symObjAddr: 0x8904, symBinAddr: 0x10000D2A0, symSize: 0x3C }
  - { offsetInCU: 0x18A3E, offset: 0x31B94, size: 0x8, addend: 0x0, symName: __ZNSt3__117__compressed_pairIPNS_11__list_nodeIP4NodePvEENS_22__allocator_destructorINS_9allocatorIS5_EEEEEC2B7v160006IRS6_SA_EEOT_OT0_, symObjAddr: 0x8940, symBinAddr: 0x10000D2DC, symSize: 0x48 }
  - { offsetInCU: 0x18A94, offset: 0x31BEA, size: 0x8, addend: 0x0, symName: __ZNSt3__122__compressed_pair_elemIPNS_11__list_nodeIP4NodePvEELi0ELb0EEC2B7v160006IRS6_vEEOT_, symObjAddr: 0x8988, symBinAddr: 0x10000D324, symSize: 0x24 }
  - { offsetInCU: 0x18AD5, offset: 0x31C2B, size: 0x8, addend: 0x0, symName: __ZNSt3__122__compressed_pair_elemINS_22__allocator_destructorINS_9allocatorINS_11__list_nodeIP4NodePvEEEEEELi1ELb0EEC2B7v160006IS9_vEEOT_, symObjAddr: 0x89AC, symBinAddr: 0x10000D348, symSize: 0x24 }
  - { offsetInCU: 0x18B1B, offset: 0x31C71, size: 0x8, addend: 0x0, symName: __ZNKSt3__117__compressed_pairIPNS_11__list_nodeIP4NodePvEENS_22__allocator_destructorINS_9allocatorIS5_EEEEE5firstB7v160006Ev, symObjAddr: 0x89FC, symBinAddr: 0x10000D398, symSize: 0x24 }
  - { offsetInCU: 0x18B3F, offset: 0x31C95, size: 0x8, addend: 0x0, symName: __ZNKSt3__122__compressed_pair_elemIPNS_11__list_nodeIP4NodePvEELi0ELb0EE5__getB7v160006Ev, symObjAddr: 0x8A20, symBinAddr: 0x10000D3BC, symSize: 0x14 }
  - { offsetInCU: 0x18B63, offset: 0x31CB9, size: 0x8, addend: 0x0, symName: __ZNSt3__117__compressed_pairIPNS_11__list_nodeIP4NodePvEENS_22__allocator_destructorINS_9allocatorIS5_EEEEE5firstB7v160006Ev, symObjAddr: 0x8A34, symBinAddr: 0x10000D3D0, symSize: 0x24 }
  - { offsetInCU: 0x18B87, offset: 0x31CDD, size: 0x8, addend: 0x0, symName: __ZNSt3__122__compressed_pair_elemIPNS_11__list_nodeIP4NodePvEELi0ELb0EE5__getB7v160006Ev, symObjAddr: 0x8A58, symBinAddr: 0x10000D3F4, symSize: 0x14 }
  - { offsetInCU: 0x18BAB, offset: 0x31D01, size: 0x8, addend: 0x0, symName: __ZNSt3__110unique_ptrINS_11__list_nodeIP4NodePvEENS_22__allocator_destructorINS_9allocatorIS5_EEEEED2B7v160006Ev, symObjAddr: 0x8A6C, symBinAddr: 0x10000D408, symSize: 0x30 }
  - { offsetInCU: 0x18BD3, offset: 0x31D29, size: 0x8, addend: 0x0, symName: __ZNSt3__110unique_ptrINS_11__list_nodeIP4NodePvEENS_22__allocator_destructorINS_9allocatorIS5_EEEEE5resetB7v160006EPS5_, symObjAddr: 0x8A9C, symBinAddr: 0x10000D438, symSize: 0x78 }
  - { offsetInCU: 0x18C15, offset: 0x31D6B, size: 0x8, addend: 0x0, symName: __ZNSt3__117__compressed_pairIPNS_11__list_nodeIP4NodePvEENS_22__allocator_destructorINS_9allocatorIS5_EEEEE6secondB7v160006Ev, symObjAddr: 0x8B14, symBinAddr: 0x10000D4B0, symSize: 0x28 }
  - { offsetInCU: 0x18C39, offset: 0x31D8F, size: 0x8, addend: 0x0, symName: __ZNSt3__122__allocator_destructorINS_9allocatorINS_11__list_nodeIP4NodePvEEEEEclB7v160006EPS6_, symObjAddr: 0x8B3C, symBinAddr: 0x10000D4D8, symSize: 0x34 }
  - { offsetInCU: 0x18C6B, offset: 0x31DC1, size: 0x8, addend: 0x0, symName: __ZNSt3__122__compressed_pair_elemINS_22__allocator_destructorINS_9allocatorINS_11__list_nodeIP4NodePvEEEEEELi1ELb0EE5__getB7v160006Ev, symObjAddr: 0x8B70, symBinAddr: 0x10000D50C, symSize: 0x14 }
  - { offsetInCU: 0x18C8F, offset: 0x31DE5, size: 0x8, addend: 0x0, symName: __ZNSt3__110__list_impIP4NodeNS_9allocatorIS2_EEE5beginB7v160006Ev, symObjAddr: 0x8B84, symBinAddr: 0x10000D520, symSize: 0x30 }
  - { offsetInCU: 0x18CB3, offset: 0x31E09, size: 0x8, addend: 0x0, symName: __ZNSt3__115__list_iteratorIP4NodePvEC1B7v160006EPNS_16__list_node_baseIS2_S3_EEPKv, symObjAddr: 0x8BB4, symBinAddr: 0x10000D550, symSize: 0x3C }
  - { offsetInCU: 0x18CF9, offset: 0x31E4F, size: 0x8, addend: 0x0, symName: __ZNSt3__115__list_iteratorIP4NodePvEC2B7v160006EPNS_16__list_node_baseIS2_S3_EEPKv, symObjAddr: 0x8BF0, symBinAddr: 0x10000D58C, symSize: 0x24 }
  - { offsetInCU: 0x18D3F, offset: 0x31E95, size: 0x8, addend: 0x0, symName: __ZNSt3__110__list_impIP4NodeNS_9allocatorIS2_EEE3endB7v160006Ev, symObjAddr: 0x8C14, symBinAddr: 0x10000D5B0, symSize: 0x3C }
  - { offsetInCU: 0x18D63, offset: 0x31EB9, size: 0x8, addend: 0x0, symName: __ZNKSt3__14listIP4NodeNS_9allocatorIS2_EEE13get_allocatorEv, symObjAddr: 0x8C80, symBinAddr: 0x10000D61C, symSize: 0x30 }
  - { offsetInCU: 0x18D89, offset: 0x31EDF, size: 0x8, addend: 0x0, symName: __ZNSt3__14listIP4NodeNS_9allocatorIS2_EEEC1B7v160006ERKS4_, symObjAddr: 0x8CB0, symBinAddr: 0x10000D64C, symSize: 0x34 }
  - { offsetInCU: 0x18DC0, offset: 0x31F16, size: 0x8, addend: 0x0, symName: __ZNSt3__14listIP4NodeNS_9allocatorIS2_EEE6spliceENS_21__list_const_iteratorIS2_PvEERS5_S8_S8_, symObjAddr: 0x8D34, symBinAddr: 0x10000D6D0, symSize: 0x108 }
  - { offsetInCU: 0x18E6D, offset: 0x31FC3, size: 0x8, addend: 0x0, symName: __ZNKSt3__14listIP4NodeNS_9allocatorIS2_EEE4sizeB7v160006Ev, symObjAddr: 0x8E3C, symBinAddr: 0x10000D7D8, symSize: 0x28 }
  - { offsetInCU: 0x18E91, offset: 0x31FE7, size: 0x8, addend: 0x0, symName: __ZNSt3__19allocatorIP4NodeEC1B7v160006INS_11__list_nodeIS2_PvEEEERKNS0_IT_EE, symObjAddr: 0x8E64, symBinAddr: 0x10000D800, symSize: 0x34 }
  - { offsetInCU: 0x18ECC, offset: 0x32022, size: 0x8, addend: 0x0, symName: __ZNSt3__19allocatorIP4NodeEC2B7v160006INS_11__list_nodeIS2_PvEEEERKNS0_IT_EE, symObjAddr: 0x8E98, symBinAddr: 0x10000D834, symSize: 0x30 }
  - { offsetInCU: 0x18F07, offset: 0x3205D, size: 0x8, addend: 0x0, symName: __ZNSt3__116__non_trivial_ifILb1ENS_9allocatorIP4NodeEEEC2B7v160006Ev, symObjAddr: 0x8EC8, symBinAddr: 0x10000D864, symSize: 0x14 }
  - { offsetInCU: 0x18F2F, offset: 0x32085, size: 0x8, addend: 0x0, symName: __ZNSt3__14listIP4NodeNS_9allocatorIS2_EEEC2B7v160006ERKS4_, symObjAddr: 0x8EDC, symBinAddr: 0x10000D878, symSize: 0x3C }
  - { offsetInCU: 0x18F66, offset: 0x320BC, size: 0x8, addend: 0x0, symName: __ZNSt3__110__list_impIP4NodeNS_9allocatorIS2_EEEC2ERKS4_, symObjAddr: 0x8F18, symBinAddr: 0x10000D8B4, symSize: 0x60 }
  - { offsetInCU: 0x18FAA, offset: 0x32100, size: 0x8, addend: 0x0, symName: __ZNSt3__19allocatorINS_11__list_nodeIP4NodePvEEEC1B7v160006IS3_EERKNS0_IT_EE, symObjAddr: 0x8F78, symBinAddr: 0x10000D914, symSize: 0x34 }
  - { offsetInCU: 0x18FE5, offset: 0x3213B, size: 0x8, addend: 0x0, symName: __ZNSt3__19allocatorINS_11__list_nodeIP4NodePvEEEC2B7v160006IS3_EERKNS0_IT_EE, symObjAddr: 0x8FAC, symBinAddr: 0x10000D948, symSize: 0x30 }
  - { offsetInCU: 0x19020, offset: 0x32176, size: 0x8, addend: 0x0, symName: __ZNSt3__121__list_const_iteratorIP4NodePvEmmB7v160006Ev, symObjAddr: 0x90E4, symBinAddr: 0x10000DA80, symSize: 0x20 }
  - { offsetInCU: 0x19044, offset: 0x3219A, size: 0x8, addend: 0x0, symName: __ZNSt3__112__hash_tableINS_17__hash_value_typeINS_12basic_stringIcNS_11char_traitsIcEENS_9allocatorIcEEEENS_4listIP4NodeNS5_ISA_EEEEEENS_22__unordered_map_hasherIS7_SD_NS_4hashIS7_EENS_8equal_toIS7_EELb1EEENS_21__unordered_map_equalIS7_SD_SI_SG_Lb1EEENS5_ISD_EEE14__erase_uniqueIS7_EEmRKT_, symObjAddr: 0x919C, symBinAddr: 0x10000DB38, symSize: 0x98 }
  - { offsetInCU: 0x19091, offset: 0x321E7, size: 0x8, addend: 0x0, symName: __ZNSt3__112__hash_tableINS_17__hash_value_typeINS_12basic_stringIcNS_11char_traitsIcEENS_9allocatorIcEEEENS_4listIP4NodeNS5_ISA_EEEEEENS_22__unordered_map_hasherIS7_SD_NS_4hashIS7_EENS_8equal_toIS7_EELb1EEENS_21__unordered_map_equalIS7_SD_SI_SG_Lb1EEENS5_ISD_EEE4findIS7_EENS_15__hash_iteratorIPNS_11__hash_nodeISD_PvEEEERKT_, symObjAddr: 0x9234, symBinAddr: 0x10000DBD0, symSize: 0x1B4 }
  - { offsetInCU: 0x1911A, offset: 0x32270, size: 0x8, addend: 0x0, symName: __ZNSt3__112__hash_tableINS_17__hash_value_typeINS_12basic_stringIcNS_11char_traitsIcEENS_9allocatorIcEEEENS_4listIP4NodeNS5_ISA_EEEEEENS_22__unordered_map_hasherIS7_SD_NS_4hashIS7_EENS_8equal_toIS7_EELb1EEENS_21__unordered_map_equalIS7_SD_SI_SG_Lb1EEENS5_ISD_EEE3endEv, symObjAddr: 0x9418, symBinAddr: 0x10000DDB4, symSize: 0x30 }
  - { offsetInCU: 0x19140, offset: 0x32296, size: 0x8, addend: 0x0, symName: __ZNSt3__112__hash_tableINS_17__hash_value_typeINS_12basic_stringIcNS_11char_traitsIcEENS_9allocatorIcEEEENS_4listIP4NodeNS5_ISA_EEEEEENS_22__unordered_map_hasherIS7_SD_NS_4hashIS7_EENS_8equal_toIS7_EELb1EEENS_21__unordered_map_equalIS7_SD_SI_SG_Lb1EEENS5_ISD_EEE5eraseENS_21__hash_const_iteratorIPNS_11__hash_nodeISD_PvEEEE, symObjAddr: 0x9448, symBinAddr: 0x10000DDE4, symSize: 0x70 }
  - { offsetInCU: 0x19193, offset: 0x322E9, size: 0x8, addend: 0x0, symName: __ZNSt3__121__hash_const_iteratorIPNS_11__hash_nodeINS_17__hash_value_typeINS_12basic_stringIcNS_11char_traitsIcEENS_9allocatorIcEEEENS_4listIP4NodeNS6_ISB_EEEEEEPvEEEC1B7v160006ERKNS_15__hash_iteratorISH_EE, symObjAddr: 0x94B8, symBinAddr: 0x10000DE54, symSize: 0x34 }
  - { offsetInCU: 0x191CA, offset: 0x32320, size: 0x8, addend: 0x0, symName: __ZNSt3__115__hash_iteratorIPNS_11__hash_nodeINS_17__hash_value_typeINS_12basic_stringIcNS_11char_traitsIcEENS_9allocatorIcEEEENS_4listIP4NodeNS6_ISB_EEEEEEPvEEEppB7v160006Ev, symObjAddr: 0x94EC, symBinAddr: 0x10000DE88, symSize: 0x20 }
  - { offsetInCU: 0x191EE, offset: 0x32344, size: 0x8, addend: 0x0, symName: __ZNSt3__112__hash_tableINS_17__hash_value_typeINS_12basic_stringIcNS_11char_traitsIcEENS_9allocatorIcEEEENS_4listIP4NodeNS5_ISA_EEEEEENS_22__unordered_map_hasherIS7_SD_NS_4hashIS7_EENS_8equal_toIS7_EELb1EEENS_21__unordered_map_equalIS7_SD_SI_SG_Lb1EEENS5_ISD_EEE6removeENS_21__hash_const_iteratorIPNS_11__hash_nodeISD_PvEEEE, symObjAddr: 0x950C, symBinAddr: 0x10000DEA8, symSize: 0x220 }
  - { offsetInCU: 0x1927E, offset: 0x323D4, size: 0x8, addend: 0x0, symName: __ZNSt3__121__hash_const_iteratorIPNS_11__hash_nodeINS_17__hash_value_typeINS_12basic_stringIcNS_11char_traitsIcEENS_9allocatorIcEEEENS_4listIP4NodeNS6_ISB_EEEEEEPvEEEC2B7v160006ERKNS_15__hash_iteratorISH_EE, symObjAddr: 0x972C, symBinAddr: 0x10000E0C8, symSize: 0x24 }
  - { offsetInCU: 0x192B5, offset: 0x3240B, size: 0x8, addend: 0x0, symName: __ZNSt3__112__hash_tableINS_17__hash_value_typeINS_12basic_stringIcNS_11char_traitsIcEENS_9allocatorIcEEEENS_4listIP4NodeNS5_ISA_EEEEEENS_22__unordered_map_hasherIS7_SD_NS_4hashIS7_EENS_8equal_toIS7_EELb1EEENS_21__unordered_map_equalIS7_SD_SI_SG_Lb1EEENS5_ISD_EEE5beginEv, symObjAddr: 0x9750, symBinAddr: 0x10000E0EC, symSize: 0x40 }
  - { offsetInCU: 0x192DB, offset: 0x32431, size: 0x8, addend: 0x0, symName: __ZNKSt3__115__hash_iteratorIPNS_11__hash_nodeINS_17__hash_value_typeINS_12basic_stringIcNS_11char_traitsIcEENS_9allocatorIcEEEENS_4listIP4NodeNS6_ISB_EEEEEEPvEEEptB7v160006Ev, symObjAddr: 0x97C4, symBinAddr: 0x10000E160, symSize: 0x30 }
  - { offsetInCU: 0x192FF, offset: 0x32455, size: 0x8, addend: 0x0, symName: __ZNSt3__114pointer_traitsIPNS_17__hash_value_typeINS_12basic_stringIcNS_11char_traitsIcEENS_9allocatorIcEEEENS_4listIP4NodeNS5_ISA_EEEEEEE10pointer_toB7v160006ERSD_, symObjAddr: 0x97F4, symBinAddr: 0x10000E190, symSize: 0x14 }
  - { offsetInCU: 0x19321, offset: 0x32477, size: 0x8, addend: 0x0, symName: __ZNSt3__114pointer_traitsIPNS_4pairIKNS_12basic_stringIcNS_11char_traitsIcEENS_9allocatorIcEEEENS_4listIP4NodeNS5_ISB_EEEEEEE10pointer_toB7v160006ERSE_, symObjAddr: 0x9808, symBinAddr: 0x10000E1A4, symSize: 0x14 }
  - { offsetInCU: 0x19348, offset: 0x3249E, size: 0x8, addend: 0x0, symName: __ZNSt3__116allocator_traitsINS_9allocatorINS_11__list_nodeIP4NodePvEEEEE9constructB7v160006IS4_JS4_EvvEEvRS7_PT_DpOT0_, symObjAddr: 0x981C, symBinAddr: 0x10000E1B8, symSize: 0x30 }
  - { offsetInCU: 0x193C3, offset: 0x32519, size: 0x8, addend: 0x0, symName: __ZNKSt3__14listIP4NodeNS_9allocatorIS2_EEE4backB7v160006Ev, symObjAddr: 0xA338, symBinAddr: 0x10000E214, symSize: 0x2C }
  - { offsetInCU: 0x193E7, offset: 0x3253D, size: 0x8, addend: 0x0, symName: __ZNSt3__16__treeINS_12basic_stringIcNS_11char_traitsIcEENS_9allocatorIcEEEENS_4lessIS6_EENS4_IS6_EEE15__insert_uniqueB7v160006ERKS6_, symObjAddr: 0xA364, symBinAddr: 0x10000E240, symSize: 0x50 }
  - { offsetInCU: 0x1941A, offset: 0x32570, size: 0x8, addend: 0x0, symName: __ZNSt3__14pairINS_21__tree_const_iteratorINS_12basic_stringIcNS_11char_traitsIcEENS_9allocatorIcEEEEPNS_11__tree_nodeIS7_PvEElEEbEC1B7v160006INS_15__tree_iteratorIS7_SB_lEEbLS9_0EEEONS0_IT_T0_EE, symObjAddr: 0xA3B4, symBinAddr: 0x10000E290, symSize: 0x34 }
  - { offsetInCU: 0x1946A, offset: 0x325C0, size: 0x8, addend: 0x0, symName: __ZNSt3__16__treeINS_12basic_stringIcNS_11char_traitsIcEENS_9allocatorIcEEEENS_4lessIS6_EENS4_IS6_EEE25__emplace_unique_key_argsIS6_JRKS6_EEENS_4pairINS_15__tree_iteratorIS6_PNS_11__tree_nodeIS6_PvEElEEbEERKT_DpOT0_, symObjAddr: 0xA3E8, symBinAddr: 0x10000E2C4, symSize: 0xF0 }
  - { offsetInCU: 0x19516, offset: 0x3266C, size: 0x8, addend: 0x0, symName: __ZNSt3__122__tree_key_value_typesINS_12basic_stringIcNS_11char_traitsIcEENS_9allocatorIcEEEEE9__get_keyB7v160006ERKS6_, symObjAddr: 0xA4D8, symBinAddr: 0x10000E3B4, symSize: 0x14 }
  - { offsetInCU: 0x19539, offset: 0x3268F, size: 0x8, addend: 0x0, symName: __ZNSt3__16__treeINS_12basic_stringIcNS_11char_traitsIcEENS_9allocatorIcEEEENS_4lessIS6_EENS4_IS6_EEE12__find_equalIS6_EERPNS_16__tree_node_baseIPvEERPNS_15__tree_end_nodeISF_EERKT_, symObjAddr: 0xA4EC, symBinAddr: 0x10000E3C8, symSize: 0x184 }
  - { offsetInCU: 0x195A4, offset: 0x326FA, size: 0x8, addend: 0x0, symName: __ZNSt3__16__treeINS_12basic_stringIcNS_11char_traitsIcEENS_9allocatorIcEEEENS_4lessIS6_EENS4_IS6_EEE16__construct_nodeIJRKS6_EEENS_10unique_ptrINS_11__tree_nodeIS6_PvEENS_22__tree_node_destructorINS4_ISH_EEEEEEDpOT_, symObjAddr: 0xA670, symBinAddr: 0x10000E54C, symSize: 0x110 }
  - { offsetInCU: 0x19605, offset: 0x3275B, size: 0x8, addend: 0x0, symName: __ZNSt3__16__treeINS_12basic_stringIcNS_11char_traitsIcEENS_9allocatorIcEEEENS_4lessIS6_EENS4_IS6_EEE16__insert_node_atEPNS_15__tree_end_nodeIPNS_16__tree_node_baseIPvEEEERSF_SF_, symObjAddr: 0xA780, symBinAddr: 0x10000E65C, symSize: 0xCC }
  - { offsetInCU: 0x19658, offset: 0x327AE, size: 0x8, addend: 0x0, symName: __ZNKSt3__110unique_ptrINS_11__tree_nodeINS_12basic_stringIcNS_11char_traitsIcEENS_9allocatorIcEEEEPvEENS_22__tree_node_destructorINS5_IS9_EEEEE3getB7v160006Ev, symObjAddr: 0xA84C, symBinAddr: 0x10000E728, symSize: 0x28 }
  - { offsetInCU: 0x1967C, offset: 0x327D2, size: 0x8, addend: 0x0, symName: __ZNSt3__110unique_ptrINS_11__tree_nodeINS_12basic_stringIcNS_11char_traitsIcEENS_9allocatorIcEEEEPvEENS_22__tree_node_destructorINS5_IS9_EEEEE7releaseB7v160006Ev, symObjAddr: 0xA874, symBinAddr: 0x10000E750, symSize: 0x44 }
  - { offsetInCU: 0x196AF, offset: 0x32805, size: 0x8, addend: 0x0, symName: __ZNSt3__110unique_ptrINS_11__tree_nodeINS_12basic_stringIcNS_11char_traitsIcEENS_9allocatorIcEEEEPvEENS_22__tree_node_destructorINS5_IS9_EEEEED1B7v160006Ev, symObjAddr: 0xA8B8, symBinAddr: 0x10000E794, symSize: 0x2C }
  - { offsetInCU: 0x196D7, offset: 0x3282D, size: 0x8, addend: 0x0, symName: __ZNSt3__115__tree_iteratorINS_12basic_stringIcNS_11char_traitsIcEENS_9allocatorIcEEEEPNS_11__tree_nodeIS6_PvEElEC1B7v160006ESA_, symObjAddr: 0xA8E4, symBinAddr: 0x10000E7C0, symSize: 0x34 }
  - { offsetInCU: 0x19713, offset: 0x32869, size: 0x8, addend: 0x0, symName: __ZNSt3__14pairINS_15__tree_iteratorINS_12basic_stringIcNS_11char_traitsIcEENS_9allocatorIcEEEEPNS_11__tree_nodeIS7_PvEElEEbEC1B7v160006ISC_RbLS9_0EEEOT_OT0_, symObjAddr: 0xA918, symBinAddr: 0x10000E7F4, symSize: 0x3C }
  - { offsetInCU: 0x19770, offset: 0x328C6, size: 0x8, addend: 0x0, symName: __ZNKSt3__16__treeINS_12basic_stringIcNS_11char_traitsIcEENS_9allocatorIcEEEENS_4lessIS6_EENS4_IS6_EEE6__rootB7v160006Ev, symObjAddr: 0xA954, symBinAddr: 0x10000E830, symSize: 0x28 }
  - { offsetInCU: 0x19794, offset: 0x328EA, size: 0x8, addend: 0x0, symName: __ZNKSt3__16__treeINS_12basic_stringIcNS_11char_traitsIcEENS_9allocatorIcEEEENS_4lessIS6_EENS4_IS6_EEE10__root_ptrEv, symObjAddr: 0xA97C, symBinAddr: 0x10000E858, symSize: 0x24 }
  - { offsetInCU: 0x197B8, offset: 0x3290E, size: 0x8, addend: 0x0, symName: __ZNSt3__16__treeINS_12basic_stringIcNS_11char_traitsIcEENS_9allocatorIcEEEENS_4lessIS6_EENS4_IS6_EEE10value_compB7v160006Ev, symObjAddr: 0xA9A0, symBinAddr: 0x10000E87C, symSize: 0x28 }
  - { offsetInCU: 0x197DC, offset: 0x32932, size: 0x8, addend: 0x0, symName: __ZNKSt3__14lessINS_12basic_stringIcNS_11char_traitsIcEENS_9allocatorIcEEEEEclB7v160006ERKS6_S9_, symObjAddr: 0xA9C8, symBinAddr: 0x10000E8A4, symSize: 0x50 }
  - { offsetInCU: 0x1981E, offset: 0x32974, size: 0x8, addend: 0x0, symName: __ZNSt3__16__treeINS_12basic_stringIcNS_11char_traitsIcEENS_9allocatorIcEEEENS_4lessIS6_EENS4_IS6_EEE10__end_nodeB7v160006Ev, symObjAddr: 0xAA18, symBinAddr: 0x10000E8F4, symSize: 0x2C }
  - { offsetInCU: 0x19842, offset: 0x32998, size: 0x8, addend: 0x0, symName: __ZNKSt3__16__treeINS_12basic_stringIcNS_11char_traitsIcEENS_9allocatorIcEEEENS_4lessIS6_EENS4_IS6_EEE10__end_nodeB7v160006Ev, symObjAddr: 0xAA44, symBinAddr: 0x10000E920, symSize: 0x2C }
  - { offsetInCU: 0x19866, offset: 0x329BC, size: 0x8, addend: 0x0, symName: __ZNSt3__114pointer_traitsIPNS_15__tree_end_nodeIPNS_16__tree_node_baseIPvEEEEE10pointer_toB7v160006ERS6_, symObjAddr: 0xAA70, symBinAddr: 0x10000E94C, symSize: 0x14 }
  - { offsetInCU: 0x19888, offset: 0x329DE, size: 0x8, addend: 0x0, symName: __ZNKSt3__117__compressed_pairINS_15__tree_end_nodeIPNS_16__tree_node_baseIPvEEEENS_9allocatorINS_11__tree_nodeINS_12basic_stringIcNS_11char_traitsIcEENS7_IcEEEES3_EEEEE5firstB7v160006Ev, symObjAddr: 0xAA84, symBinAddr: 0x10000E960, symSize: 0x24 }
  - { offsetInCU: 0x198AC, offset: 0x32A02, size: 0x8, addend: 0x0, symName: __ZNKSt3__122__compressed_pair_elemINS_15__tree_end_nodeIPNS_16__tree_node_baseIPvEEEELi0ELb0EE5__getB7v160006Ev, symObjAddr: 0xAAA8, symBinAddr: 0x10000E984, symSize: 0x14 }
  - { offsetInCU: 0x198D0, offset: 0x32A26, size: 0x8, addend: 0x0, symName: __ZNSt3__117__compressed_pairImNS_4lessINS_12basic_stringIcNS_11char_traitsIcEENS_9allocatorIcEEEEEEE6secondB7v160006Ev, symObjAddr: 0xAABC, symBinAddr: 0x10000E998, symSize: 0x24 }
  - { offsetInCU: 0x198F4, offset: 0x32A4A, size: 0x8, addend: 0x0, symName: __ZNSt3__122__compressed_pair_elemINS_4lessINS_12basic_stringIcNS_11char_traitsIcEENS_9allocatorIcEEEEEELi1ELb1EE5__getB7v160006Ev, symObjAddr: 0xAAE0, symBinAddr: 0x10000E9BC, symSize: 0x14 }
  - { offsetInCU: 0x19927, offset: 0x32A7D, size: 0x8, addend: 0x0, symName: __ZNSt3__120_CmpUnspecifiedParamC1B7v160006EMS0_i, symObjAddr: 0xAB74, symBinAddr: 0x10000EA50, symSize: 0x34 }
  - { offsetInCU: 0x19959, offset: 0x32AAF, size: 0x8, addend: 0x0, symName: __ZNKSt3__112basic_stringIcNS_11char_traitsIcEENS_9allocatorIcEEEcvNS_17basic_string_viewIcS2_EEB7v160006Ev, symObjAddr: 0xAC24, symBinAddr: 0x10000EB00, symSize: 0x50 }
  - { offsetInCU: 0x1997D, offset: 0x32AD3, size: 0x8, addend: 0x0, symName: __ZNKSt3__117basic_string_viewIcNS_11char_traitsIcEEE7compareES3_, symObjAddr: 0xAC74, symBinAddr: 0x10000EB50, symSize: 0x13C }
  - { offsetInCU: 0x199CE, offset: 0x32B24, size: 0x8, addend: 0x0, symName: __ZNKSt3__117basic_string_viewIcNS_11char_traitsIcEEE4sizeB7v160006Ev, symObjAddr: 0xADDC, symBinAddr: 0x10000EC8C, symSize: 0x18 }
  - { offsetInCU: 0x199F2, offset: 0x32B48, size: 0x8, addend: 0x0, symName: __ZNKSt3__117basic_string_viewIcNS_11char_traitsIcEEE4dataB7v160006Ev, symObjAddr: 0xADF4, symBinAddr: 0x10000ECA4, symSize: 0x18 }
  - { offsetInCU: 0x19A16, offset: 0x32B6C, size: 0x8, addend: 0x0, symName: __ZNSt3__117basic_string_viewIcNS_11char_traitsIcEEEC1B7v160006EPKcm, symObjAddr: 0xAE60, symBinAddr: 0x10000ECBC, symSize: 0x3C }
  - { offsetInCU: 0x19A5C, offset: 0x32BB2, size: 0x8, addend: 0x0, symName: __ZNSt3__117basic_string_viewIcNS_11char_traitsIcEEEC2B7v160006EPKcm, symObjAddr: 0xAE9C, symBinAddr: 0x10000ECF8, symSize: 0x50 }
  - { offsetInCU: 0x19AA2, offset: 0x32BF8, size: 0x8, addend: 0x0, symName: __ZNSt3__120_CmpUnspecifiedParamC2B7v160006EMS0_i, symObjAddr: 0xAEEC, symBinAddr: 0x10000ED48, symSize: 0x18 }
  - { offsetInCU: 0x19AD4, offset: 0x32C2A, size: 0x8, addend: 0x0, symName: __ZNSt3__117__compressed_pairINS_15__tree_end_nodeIPNS_16__tree_node_baseIPvEEEENS_9allocatorINS_11__tree_nodeINS_12basic_stringIcNS_11char_traitsIcEENS7_IcEEEES3_EEEEE5firstB7v160006Ev, symObjAddr: 0xAF04, symBinAddr: 0x10000ED60, symSize: 0x24 }
  - { offsetInCU: 0x19AF8, offset: 0x32C4E, size: 0x8, addend: 0x0, symName: __ZNSt3__122__compressed_pair_elemINS_15__tree_end_nodeIPNS_16__tree_node_baseIPvEEEELi0ELb0EE5__getB7v160006Ev, symObjAddr: 0xAF28, symBinAddr: 0x10000ED84, symSize: 0x14 }
  - { offsetInCU: 0x19B1C, offset: 0x32C72, size: 0x8, addend: 0x0, symName: __ZNSt3__16__treeINS_12basic_stringIcNS_11char_traitsIcEENS_9allocatorIcEEEENS_4lessIS6_EENS4_IS6_EEE12__node_allocB7v160006Ev, symObjAddr: 0xAF3C, symBinAddr: 0x10000ED98, symSize: 0x28 }
  - { offsetInCU: 0x19B40, offset: 0x32C96, size: 0x8, addend: 0x0, symName: __ZNSt3__116allocator_traitsINS_9allocatorINS_11__tree_nodeINS_12basic_stringIcNS_11char_traitsIcEENS1_IcEEEEPvEEEEE8allocateB7v160006ERSA_m, symObjAddr: 0xAF64, symBinAddr: 0x10000EDC0, symSize: 0x2C }
  - { offsetInCU: 0x19B72, offset: 0x32CC8, size: 0x8, addend: 0x0, symName: __ZNSt3__122__tree_node_destructorINS_9allocatorINS_11__tree_nodeINS_12basic_stringIcNS_11char_traitsIcEENS1_IcEEEEPvEEEEEC1B7v160006ERSA_b, symObjAddr: 0xAF90, symBinAddr: 0x10000EDEC, symSize: 0x48 }
  - { offsetInCU: 0x19BBD, offset: 0x32D13, size: 0x8, addend: 0x0, symName: __ZNSt3__110unique_ptrINS_11__tree_nodeINS_12basic_stringIcNS_11char_traitsIcEENS_9allocatorIcEEEEPvEENS_22__tree_node_destructorINS5_IS9_EEEEEC1B7v160006ILb1EvEEPS9_NS_16__dependent_typeINS_27__unique_ptr_deleter_sfinaeISC_EEXT_EE20__good_rval_ref_typeE, symObjAddr: 0xAFD8, symBinAddr: 0x10000EE34, symSize: 0x3C }
  - { offsetInCU: 0x19C0D, offset: 0x32D63, size: 0x8, addend: 0x0, symName: __ZNSt3__116allocator_traitsINS_9allocatorINS_11__tree_nodeINS_12basic_stringIcNS_11char_traitsIcEENS1_IcEEEEPvEEEEE9constructB7v160006IS7_JRKS7_EvvEEvRSA_PT_DpOT0_, symObjAddr: 0xB014, symBinAddr: 0x10000EE70, symSize: 0x30 }
  - { offsetInCU: 0x19C65, offset: 0x32DBB, size: 0x8, addend: 0x0, symName: __ZNSt3__122__tree_key_value_typesINS_12basic_stringIcNS_11char_traitsIcEENS_9allocatorIcEEEEE9__get_ptrB7v160006ERS6_, symObjAddr: 0xB044, symBinAddr: 0x10000EEA0, symSize: 0x14 }
  - { offsetInCU: 0x19C88, offset: 0x32DDE, size: 0x8, addend: 0x0, symName: __ZNKSt3__110unique_ptrINS_11__tree_nodeINS_12basic_stringIcNS_11char_traitsIcEENS_9allocatorIcEEEEPvEENS_22__tree_node_destructorINS5_IS9_EEEEEptB7v160006Ev, symObjAddr: 0xB058, symBinAddr: 0x10000EEB4, symSize: 0x28 }
  - { offsetInCU: 0x19CAC, offset: 0x32E02, size: 0x8, addend: 0x0, symName: __ZNSt3__110unique_ptrINS_11__tree_nodeINS_12basic_stringIcNS_11char_traitsIcEENS_9allocatorIcEEEEPvEENS_22__tree_node_destructorINS5_IS9_EEEEE11get_deleterB7v160006Ev, symObjAddr: 0xB080, symBinAddr: 0x10000EEDC, symSize: 0x24 }
  - { offsetInCU: 0x19CD0, offset: 0x32E26, size: 0x8, addend: 0x0, symName: __ZNSt3__117__compressed_pairINS_15__tree_end_nodeIPNS_16__tree_node_baseIPvEEEENS_9allocatorINS_11__tree_nodeINS_12basic_stringIcNS_11char_traitsIcEENS7_IcEEEES3_EEEEE6secondB7v160006Ev, symObjAddr: 0xB0A4, symBinAddr: 0x10000EF00, symSize: 0x24 }
  - { offsetInCU: 0x19CF4, offset: 0x32E4A, size: 0x8, addend: 0x0, symName: __ZNSt3__122__compressed_pair_elemINS_9allocatorINS_11__tree_nodeINS_12basic_stringIcNS_11char_traitsIcEENS1_IcEEEEPvEEEELi1ELb1EE5__getB7v160006Ev, symObjAddr: 0xB0C8, symBinAddr: 0x10000EF24, symSize: 0x14 }
  - { offsetInCU: 0x19D18, offset: 0x32E6E, size: 0x8, addend: 0x0, symName: __ZNSt3__19allocatorINS_11__tree_nodeINS_12basic_stringIcNS_11char_traitsIcEENS0_IcEEEEPvEEE8allocateB7v160006Em, symObjAddr: 0xB0DC, symBinAddr: 0x10000EF38, symSize: 0x5C }
  - { offsetInCU: 0x19D54, offset: 0x32EAA, size: 0x8, addend: 0x0, symName: __ZNSt3__116allocator_traitsINS_9allocatorINS_11__tree_nodeINS_12basic_stringIcNS_11char_traitsIcEENS1_IcEEEEPvEEEEE8max_sizeB7v160006ISA_vvEEmRKSA_, symObjAddr: 0xB138, symBinAddr: 0x10000EF94, symSize: 0x28 }
  - { offsetInCU: 0x19D81, offset: 0x32ED7, size: 0x8, addend: 0x0, symName: __ZNSt3__122__tree_node_destructorINS_9allocatorINS_11__tree_nodeINS_12basic_stringIcNS_11char_traitsIcEENS1_IcEEEEPvEEEEEC2B7v160006ERSA_b, symObjAddr: 0xB160, symBinAddr: 0x10000EFBC, symSize: 0x38 }
  - { offsetInCU: 0x19DC7, offset: 0x32F1D, size: 0x8, addend: 0x0, symName: __ZNSt3__110unique_ptrINS_11__tree_nodeINS_12basic_stringIcNS_11char_traitsIcEENS_9allocatorIcEEEEPvEENS_22__tree_node_destructorINS5_IS9_EEEEEC2B7v160006ILb1EvEEPS9_NS_16__dependent_typeINS_27__unique_ptr_deleter_sfinaeISC_EEXT_EE20__good_rval_ref_typeE, symObjAddr: 0xB198, symBinAddr: 0x10000EFF4, symSize: 0x48 }
  - { offsetInCU: 0x19E17, offset: 0x32F6D, size: 0x8, addend: 0x0, symName: __ZNSt3__117__compressed_pairIPNS_11__tree_nodeINS_12basic_stringIcNS_11char_traitsIcEENS_9allocatorIcEEEEPvEENS_22__tree_node_destructorINS5_IS9_EEEEEC1B7v160006IRSA_SD_EEOT_OT0_, symObjAddr: 0xB1E0, symBinAddr: 0x10000F03C, symSize: 0x3C }
  - { offsetInCU: 0x19E6D, offset: 0x32FC3, size: 0x8, addend: 0x0, symName: __ZNSt3__117__compressed_pairIPNS_11__tree_nodeINS_12basic_stringIcNS_11char_traitsIcEENS_9allocatorIcEEEEPvEENS_22__tree_node_destructorINS5_IS9_EEEEEC2B7v160006IRSA_SD_EEOT_OT0_, symObjAddr: 0xB21C, symBinAddr: 0x10000F078, symSize: 0x48 }
  - { offsetInCU: 0x19EC3, offset: 0x33019, size: 0x8, addend: 0x0, symName: __ZNSt3__122__compressed_pair_elemIPNS_11__tree_nodeINS_12basic_stringIcNS_11char_traitsIcEENS_9allocatorIcEEEEPvEELi0ELb0EEC2B7v160006IRSA_vEEOT_, symObjAddr: 0xB264, symBinAddr: 0x10000F0C0, symSize: 0x24 }
  - { offsetInCU: 0x19F04, offset: 0x3305A, size: 0x8, addend: 0x0, symName: __ZNSt3__122__compressed_pair_elemINS_22__tree_node_destructorINS_9allocatorINS_11__tree_nodeINS_12basic_stringIcNS_11char_traitsIcEENS2_IcEEEEPvEEEEEELi1ELb0EEC2B7v160006ISC_vEEOT_, symObjAddr: 0xB288, symBinAddr: 0x10000F0E4, symSize: 0x24 }
  - { offsetInCU: 0x19F45, offset: 0x3309B, size: 0x8, addend: 0x0, symName: __ZNKSt3__117__compressed_pairIPNS_11__tree_nodeINS_12basic_stringIcNS_11char_traitsIcEENS_9allocatorIcEEEEPvEENS_22__tree_node_destructorINS5_IS9_EEEEE5firstB7v160006Ev, symObjAddr: 0xB2E8, symBinAddr: 0x10000F144, symSize: 0x24 }
  - { offsetInCU: 0x19F69, offset: 0x330BF, size: 0x8, addend: 0x0, symName: __ZNKSt3__122__compressed_pair_elemIPNS_11__tree_nodeINS_12basic_stringIcNS_11char_traitsIcEENS_9allocatorIcEEEEPvEELi0ELb0EE5__getB7v160006Ev, symObjAddr: 0xB30C, symBinAddr: 0x10000F168, symSize: 0x14 }
  - { offsetInCU: 0x19F8D, offset: 0x330E3, size: 0x8, addend: 0x0, symName: __ZNSt3__117__compressed_pairIPNS_11__tree_nodeINS_12basic_stringIcNS_11char_traitsIcEENS_9allocatorIcEEEEPvEENS_22__tree_node_destructorINS5_IS9_EEEEE6secondB7v160006Ev, symObjAddr: 0xB320, symBinAddr: 0x10000F17C, symSize: 0x28 }
  - { offsetInCU: 0x19FB1, offset: 0x33107, size: 0x8, addend: 0x0, symName: __ZNSt3__122__compressed_pair_elemINS_22__tree_node_destructorINS_9allocatorINS_11__tree_nodeINS_12basic_stringIcNS_11char_traitsIcEENS2_IcEEEEPvEEEEEELi1ELb0EE5__getB7v160006Ev, symObjAddr: 0xB348, symBinAddr: 0x10000F1A4, symSize: 0x14 }
  - { offsetInCU: 0x19FD5, offset: 0x3312B, size: 0x8, addend: 0x0, symName: __ZNSt3__16__treeINS_12basic_stringIcNS_11char_traitsIcEENS_9allocatorIcEEEENS_4lessIS6_EENS4_IS6_EEE12__begin_nodeB7v160006Ev, symObjAddr: 0xB35C, symBinAddr: 0x10000F1B8, symSize: 0x14 }
  - { offsetInCU: 0x19FF9, offset: 0x3314F, size: 0x8, addend: 0x0, symName: __ZNSt3__16__treeINS_12basic_stringIcNS_11char_traitsIcEENS_9allocatorIcEEEENS_4lessIS6_EENS4_IS6_EEE4sizeB7v160006Ev, symObjAddr: 0xB69C, symBinAddr: 0x10000F4F8, symSize: 0x28 }
  - { offsetInCU: 0x1A01D, offset: 0x33173, size: 0x8, addend: 0x0, symName: __ZNKSt3__116__tree_node_baseIPvE15__parent_unsafeB7v160006Ev, symObjAddr: 0xB6C4, symBinAddr: 0x10000F520, symSize: 0x18 }
  - { offsetInCU: 0x1A041, offset: 0x33197, size: 0x8, addend: 0x0, symName: __ZNSt3__116__tree_node_baseIPvE12__set_parentB7v160006EPS2_, symObjAddr: 0xB8AC, symBinAddr: 0x10000F708, symSize: 0x20 }
  - { offsetInCU: 0x1A074, offset: 0x331CA, size: 0x8, addend: 0x0, symName: __ZNSt3__117__compressed_pairImNS_4lessINS_12basic_stringIcNS_11char_traitsIcEENS_9allocatorIcEEEEEEE5firstB7v160006Ev, symObjAddr: 0xB8CC, symBinAddr: 0x10000F728, symSize: 0x24 }
  - { offsetInCU: 0x1A098, offset: 0x331EE, size: 0x8, addend: 0x0, symName: __ZNSt3__117__compressed_pairIPNS_11__tree_nodeINS_12basic_stringIcNS_11char_traitsIcEENS_9allocatorIcEEEEPvEENS_22__tree_node_destructorINS5_IS9_EEEEE5firstB7v160006Ev, symObjAddr: 0xB8F0, symBinAddr: 0x10000F74C, symSize: 0x24 }
  - { offsetInCU: 0x1A0BC, offset: 0x33212, size: 0x8, addend: 0x0, symName: __ZNSt3__122__compressed_pair_elemIPNS_11__tree_nodeINS_12basic_stringIcNS_11char_traitsIcEENS_9allocatorIcEEEEPvEELi0ELb0EE5__getB7v160006Ev, symObjAddr: 0xB914, symBinAddr: 0x10000F770, symSize: 0x14 }
  - { offsetInCU: 0x1A0E0, offset: 0x33236, size: 0x8, addend: 0x0, symName: __ZNSt3__110unique_ptrINS_11__tree_nodeINS_12basic_stringIcNS_11char_traitsIcEENS_9allocatorIcEEEEPvEENS_22__tree_node_destructorINS5_IS9_EEEEED2B7v160006Ev, symObjAddr: 0xB928, symBinAddr: 0x10000F784, symSize: 0x30 }
  - { offsetInCU: 0x1A108, offset: 0x3325E, size: 0x8, addend: 0x0, symName: __ZNSt3__110unique_ptrINS_11__tree_nodeINS_12basic_stringIcNS_11char_traitsIcEENS_9allocatorIcEEEEPvEENS_22__tree_node_destructorINS5_IS9_EEEEE5resetB7v160006EPS9_, symObjAddr: 0xB958, symBinAddr: 0x10000F7B4, symSize: 0x78 }
  - { offsetInCU: 0x1A14A, offset: 0x332A0, size: 0x8, addend: 0x0, symName: __ZNSt3__122__tree_node_destructorINS_9allocatorINS_11__tree_nodeINS_12basic_stringIcNS_11char_traitsIcEENS1_IcEEEEPvEEEEEclB7v160006EPS9_, symObjAddr: 0xB9D0, symBinAddr: 0x10000F82C, symSize: 0x90 }
  - { offsetInCU: 0x1A17D, offset: 0x332D3, size: 0x8, addend: 0x0, symName: __ZNSt3__116allocator_traitsINS_9allocatorINS_11__tree_nodeINS_12basic_stringIcNS_11char_traitsIcEENS1_IcEEEEPvEEEEE7destroyB7v160006IS7_vvEEvRSA_PT_, symObjAddr: 0xBA60, symBinAddr: 0x10000F8BC, symSize: 0x28 }
  - { offsetInCU: 0x1A1B9, offset: 0x3330F, size: 0x8, addend: 0x0, symName: __ZNSt3__116allocator_traitsINS_9allocatorINS_11__tree_nodeINS_12basic_stringIcNS_11char_traitsIcEENS1_IcEEEEPvEEEEE10deallocateB7v160006ERSA_PS9_m, symObjAddr: 0xBA88, symBinAddr: 0x10000F8E4, symSize: 0x34 }
  - { offsetInCU: 0x1A1FA, offset: 0x33350, size: 0x8, addend: 0x0, symName: __ZNSt3__19allocatorINS_11__tree_nodeINS_12basic_stringIcNS_11char_traitsIcEENS0_IcEEEEPvEEE10deallocateB7v160006EPS8_m, symObjAddr: 0xBABC, symBinAddr: 0x10000F918, symSize: 0x44 }
  - { offsetInCU: 0x1A23A, offset: 0x33390, size: 0x8, addend: 0x0, symName: __ZNSt3__115__tree_iteratorINS_12basic_stringIcNS_11char_traitsIcEENS_9allocatorIcEEEEPNS_11__tree_nodeIS6_PvEElEC2B7v160006ESA_, symObjAddr: 0xBB00, symBinAddr: 0x10000F95C, symSize: 0x20 }
  - { offsetInCU: 0x1A271, offset: 0x333C7, size: 0x8, addend: 0x0, symName: __ZNSt3__14pairINS_15__tree_iteratorINS_12basic_stringIcNS_11char_traitsIcEENS_9allocatorIcEEEEPNS_11__tree_nodeIS7_PvEElEEbEC2B7v160006ISC_RbLS9_0EEEOT_OT0_, symObjAddr: 0xBB20, symBinAddr: 0x10000F97C, symSize: 0x38 }
  - { offsetInCU: 0x1A2CE, offset: 0x33424, size: 0x8, addend: 0x0, symName: __ZNSt3__14pairINS_21__tree_const_iteratorINS_12basic_stringIcNS_11char_traitsIcEENS_9allocatorIcEEEEPNS_11__tree_nodeIS7_PvEElEEbEC2B7v160006INS_15__tree_iteratorIS7_SB_lEEbLS9_0EEEONS0_IT_T0_EE, symObjAddr: 0xBB58, symBinAddr: 0x10000F9B4, symSize: 0x50 }
  - { offsetInCU: 0x1A31E, offset: 0x33474, size: 0x8, addend: 0x0, symName: __ZNSt3__121__tree_const_iteratorINS_12basic_stringIcNS_11char_traitsIcEENS_9allocatorIcEEEEPNS_11__tree_nodeIS6_PvEElEC1B7v160006ENS_15__tree_iteratorIS6_SA_lEE, symObjAddr: 0xBBA8, symBinAddr: 0x10000FA04, symSize: 0x34 }
  - { offsetInCU: 0x1A355, offset: 0x334AB, size: 0x8, addend: 0x0, symName: __ZNSt3__121__tree_const_iteratorINS_12basic_stringIcNS_11char_traitsIcEENS_9allocatorIcEEEEPNS_11__tree_nodeIS6_PvEElEC2B7v160006ENS_15__tree_iteratorIS6_SA_lEE, symObjAddr: 0xBBDC, symBinAddr: 0x10000FA38, symSize: 0x20 }
  - { offsetInCU: 0x1A38C, offset: 0x334E2, size: 0x8, addend: 0x0, symName: __ZNKSt3__16__treeINS_12basic_stringIcNS_11char_traitsIcEENS_9allocatorIcEEEENS_4lessIS6_EENS4_IS6_EEE14__count_uniqueIS6_EEmRKT_, symObjAddr: 0xBBFC, symBinAddr: 0x10000FA58, symSize: 0xC8 }
  - { offsetInCU: 0x1A3D9, offset: 0x3352F, size: 0x8, addend: 0x0, symName: __ZNKSt3__16__treeINS_12basic_stringIcNS_11char_traitsIcEENS_9allocatorIcEEEENS_4lessIS6_EENS4_IS6_EEE10value_compB7v160006Ev, symObjAddr: 0xBCC4, symBinAddr: 0x10000FB20, symSize: 0x28 }
  - { offsetInCU: 0x1A3FD, offset: 0x33553, size: 0x8, addend: 0x0, symName: __ZNKSt3__117__compressed_pairImNS_4lessINS_12basic_stringIcNS_11char_traitsIcEENS_9allocatorIcEEEEEEE6secondB7v160006Ev, symObjAddr: 0xBCEC, symBinAddr: 0x10000FB48, symSize: 0x24 }
  - { offsetInCU: 0x1A421, offset: 0x33577, size: 0x8, addend: 0x0, symName: __ZNKSt3__122__compressed_pair_elemINS_4lessINS_12basic_stringIcNS_11char_traitsIcEENS_9allocatorIcEEEEEELi1ELb1EE5__getB7v160006Ev, symObjAddr: 0xBD10, symBinAddr: 0x10000FB6C, symSize: 0x14 }
  - { offsetInCU: 0x1A445, offset: 0x3359B, size: 0x8, addend: 0x0, symName: __ZNSt3__13setINS_12basic_stringIcNS_11char_traitsIcEENS_9allocatorIcEEEENS_4lessIS6_EENS4_IS6_EEEC2B7v160006Ev, symObjAddr: 0xBD24, symBinAddr: 0x10000FB80, symSize: 0x30 }
  - { offsetInCU: 0x1A46D, offset: 0x335C3, size: 0x8, addend: 0x0, symName: __ZNSt3__16__treeINS_12basic_stringIcNS_11char_traitsIcEENS_9allocatorIcEEEENS_4lessIS6_EENS4_IS6_EEEC1ERKS8_, symObjAddr: 0xBD54, symBinAddr: 0x10000FBB0, symSize: 0x34 }
  - { offsetInCU: 0x1A4A7, offset: 0x335FD, size: 0x8, addend: 0x0, symName: __ZNSt3__16__treeINS_12basic_stringIcNS_11char_traitsIcEENS_9allocatorIcEEEENS_4lessIS6_EENS4_IS6_EEEC2ERKS8_, symObjAddr: 0xBD88, symBinAddr: 0x10000FBE4, symSize: 0x7C }
  - { offsetInCU: 0x1A4E1, offset: 0x33637, size: 0x8, addend: 0x0, symName: __ZNSt3__117__compressed_pairINS_15__tree_end_nodeIPNS_16__tree_node_baseIPvEEEENS_9allocatorINS_11__tree_nodeINS_12basic_stringIcNS_11char_traitsIcEENS7_IcEEEES3_EEEEEC1B7v160006ILb1EvEEv, symObjAddr: 0xBE04, symBinAddr: 0x10000FC60, symSize: 0x2C }
  - { offsetInCU: 0x1A515, offset: 0x3366B, size: 0x8, addend: 0x0, symName: __ZNSt3__117__compressed_pairImNS_4lessINS_12basic_stringIcNS_11char_traitsIcEENS_9allocatorIcEEEEEEEC1B7v160006IiRKS8_EEOT_OT0_, symObjAddr: 0xBE30, symBinAddr: 0x10000FC8C, symSize: 0x3C }
  - { offsetInCU: 0x1A56B, offset: 0x336C1, size: 0x8, addend: 0x0, symName: __ZNSt3__117__compressed_pairINS_15__tree_end_nodeIPNS_16__tree_node_baseIPvEEEENS_9allocatorINS_11__tree_nodeINS_12basic_stringIcNS_11char_traitsIcEENS7_IcEEEES3_EEEEEC2B7v160006ILb1EvEEv, symObjAddr: 0xBE6C, symBinAddr: 0x10000FCC8, symSize: 0x34 }
  - { offsetInCU: 0x1A59F, offset: 0x336F5, size: 0x8, addend: 0x0, symName: __ZNSt3__122__compressed_pair_elemINS_15__tree_end_nodeIPNS_16__tree_node_baseIPvEEEELi0ELb0EEC2B7v160006ENS_16__value_init_tagE, symObjAddr: 0xBEA0, symBinAddr: 0x10000FCFC, symSize: 0x2C }
  - { offsetInCU: 0x1A5D1, offset: 0x33727, size: 0x8, addend: 0x0, symName: __ZNSt3__122__compressed_pair_elemINS_9allocatorINS_11__tree_nodeINS_12basic_stringIcNS_11char_traitsIcEENS1_IcEEEEPvEEEELi1ELb1EEC2B7v160006ENS_16__value_init_tagE, symObjAddr: 0xBECC, symBinAddr: 0x10000FD28, symSize: 0x2C }
  - { offsetInCU: 0x1A603, offset: 0x33759, size: 0x8, addend: 0x0, symName: __ZNSt3__115__tree_end_nodeIPNS_16__tree_node_baseIPvEEEC1B7v160006Ev, symObjAddr: 0xBEF8, symBinAddr: 0x10000FD54, symSize: 0x2C }
  - { offsetInCU: 0x1A62B, offset: 0x33781, size: 0x8, addend: 0x0, symName: __ZNSt3__115__tree_end_nodeIPNS_16__tree_node_baseIPvEEEC2B7v160006Ev, symObjAddr: 0xBF24, symBinAddr: 0x10000FD80, symSize: 0x18 }
  - { offsetInCU: 0x1A653, offset: 0x337A9, size: 0x8, addend: 0x0, symName: __ZNSt3__19allocatorINS_11__tree_nodeINS_12basic_stringIcNS_11char_traitsIcEENS0_IcEEEEPvEEEC2B7v160006Ev, symObjAddr: 0xBF3C, symBinAddr: 0x10000FD98, symSize: 0x2C }
  - { offsetInCU: 0x1A67B, offset: 0x337D1, size: 0x8, addend: 0x0, symName: __ZNSt3__116__non_trivial_ifILb1ENS_9allocatorINS_11__tree_nodeINS_12basic_stringIcNS_11char_traitsIcEENS1_IcEEEEPvEEEEEC2B7v160006Ev, symObjAddr: 0xBF68, symBinAddr: 0x10000FDC4, symSize: 0x14 }
  - { offsetInCU: 0x1A6A3, offset: 0x337F9, size: 0x8, addend: 0x0, symName: __ZNSt3__117__compressed_pairImNS_4lessINS_12basic_stringIcNS_11char_traitsIcEENS_9allocatorIcEEEEEEEC2B7v160006IiRKS8_EEOT_OT0_, symObjAddr: 0xBF7C, symBinAddr: 0x10000FDD8, symSize: 0x44 }
  - { offsetInCU: 0x1A6F9, offset: 0x3384F, size: 0x8, addend: 0x0, symName: __ZNSt3__122__compressed_pair_elemINS_4lessINS_12basic_stringIcNS_11char_traitsIcEENS_9allocatorIcEEEEEELi1ELb1EEC2B7v160006IRKS8_vEEOT_, symObjAddr: 0xBFC0, symBinAddr: 0x10000FE1C, symSize: 0x18 }
  - { offsetInCU: 0x1A73A, offset: 0x33890, size: 0x8, addend: 0x0, symName: __ZNSt3__13setINS_12basic_stringIcNS_11char_traitsIcEENS_9allocatorIcEEEENS_4lessIS6_EENS4_IS6_EEED2B7v160006Ev, symObjAddr: 0xBFD8, symBinAddr: 0x10000FE34, symSize: 0x2C }
  - { offsetInCU: 0x1A762, offset: 0x338B8, size: 0x8, addend: 0x0, symName: __ZNSt3__16__treeINS_12basic_stringIcNS_11char_traitsIcEENS_9allocatorIcEEEENS_4lessIS6_EENS4_IS6_EEED1Ev, symObjAddr: 0xC004, symBinAddr: 0x10000FE60, symSize: 0x2C }
  - { offsetInCU: 0x1A78D, offset: 0x338E3, size: 0x8, addend: 0x0, symName: __ZNSt3__16__treeINS_12basic_stringIcNS_11char_traitsIcEENS_9allocatorIcEEEENS_4lessIS6_EENS4_IS6_EEED2Ev, symObjAddr: 0xC030, symBinAddr: 0x10000FE8C, symSize: 0x38 }
  - { offsetInCU: 0x1A7B8, offset: 0x3390E, size: 0x8, addend: 0x0, symName: __ZNSt3__16__treeINS_12basic_stringIcNS_11char_traitsIcEENS_9allocatorIcEEEENS_4lessIS6_EENS4_IS6_EEE7destroyEPNS_11__tree_nodeIS6_PvEE, symObjAddr: 0xC068, symBinAddr: 0x10000FEC4, symSize: 0xA4 }
  - { offsetInCU: 0x1A802, offset: 0x33958, size: 0x8, addend: 0x0, symName: __ZNSt3__15stackINS_12basic_stringIcNS_11char_traitsIcEENS_9allocatorIcEEEENS_5dequeIS6_NS4_IS6_EEEEEC2B7v160006Ev, symObjAddr: 0xC10C, symBinAddr: 0x10000FF68, symSize: 0x2C }
  - { offsetInCU: 0x1A82A, offset: 0x33980, size: 0x8, addend: 0x0, symName: __ZNSt3__15dequeINS_12basic_stringIcNS_11char_traitsIcEENS_9allocatorIcEEEENS4_IS6_EEEC1B7v160006Ev, symObjAddr: 0xC138, symBinAddr: 0x10000FF94, symSize: 0x2C }
  - { offsetInCU: 0x1A852, offset: 0x339A8, size: 0x8, addend: 0x0, symName: __ZNSt3__15dequeINS_12basic_stringIcNS_11char_traitsIcEENS_9allocatorIcEEEENS4_IS6_EEEC2B7v160006Ev, symObjAddr: 0xC164, symBinAddr: 0x10000FFC0, symSize: 0x50 }
  - { offsetInCU: 0x1A87A, offset: 0x339D0, size: 0x8, addend: 0x0, symName: __ZNSt3__114__split_bufferIPNS_12basic_stringIcNS_11char_traitsIcEENS_9allocatorIcEEEENS4_IS7_EEEC1Ev, symObjAddr: 0xC1B4, symBinAddr: 0x100010010, symSize: 0x2C }
  - { offsetInCU: 0x1A8A5, offset: 0x339FB, size: 0x8, addend: 0x0, symName: __ZNSt3__117__compressed_pairImNS_9allocatorINS_12basic_stringIcNS_11char_traitsIcEENS1_IcEEEEEEEC1B7v160006IiNS_18__default_init_tagEEEOT_OT0_, symObjAddr: 0xC1E0, symBinAddr: 0x10001003C, symSize: 0x3C }
  - { offsetInCU: 0x1A8FB, offset: 0x33A51, size: 0x8, addend: 0x0, symName: __ZNSt3__114__split_bufferIPNS_12basic_stringIcNS_11char_traitsIcEENS_9allocatorIcEEEENS4_IS7_EEEC2Ev, symObjAddr: 0xC21C, symBinAddr: 0x100010078, symSize: 0x50 }
  - { offsetInCU: 0x1A92B, offset: 0x33A81, size: 0x8, addend: 0x0, symName: __ZNSt3__117__compressed_pairIPPNS_12basic_stringIcNS_11char_traitsIcEENS_9allocatorIcEEEENS4_IS7_EEEC1B7v160006IDnNS_18__default_init_tagEEEOT_OT0_, symObjAddr: 0xC26C, symBinAddr: 0x1000100C8, symSize: 0x3C }
  - { offsetInCU: 0x1A981, offset: 0x33AD7, size: 0x8, addend: 0x0, symName: __ZNSt3__117__compressed_pairIPPNS_12basic_stringIcNS_11char_traitsIcEENS_9allocatorIcEEEENS4_IS7_EEEC2B7v160006IDnNS_18__default_init_tagEEEOT_OT0_, symObjAddr: 0xC2A8, symBinAddr: 0x100010104, symSize: 0x40 }
  - { offsetInCU: 0x1A9D7, offset: 0x33B2D, size: 0x8, addend: 0x0, symName: __ZNSt3__122__compressed_pair_elemIPPNS_12basic_stringIcNS_11char_traitsIcEENS_9allocatorIcEEEELi0ELb0EEC2B7v160006IDnvEEOT_, symObjAddr: 0xC2E8, symBinAddr: 0x100010144, symSize: 0x1C }
  - { offsetInCU: 0x1AA18, offset: 0x33B6E, size: 0x8, addend: 0x0, symName: __ZNSt3__122__compressed_pair_elemINS_9allocatorIPNS_12basic_stringIcNS_11char_traitsIcEENS1_IcEEEEEELi1ELb1EEC2B7v160006ENS_18__default_init_tagE, symObjAddr: 0xC304, symBinAddr: 0x100010160, symSize: 0x2C }
  - { offsetInCU: 0x1AA4A, offset: 0x33BA0, size: 0x8, addend: 0x0, symName: __ZNSt3__19allocatorIPNS_12basic_stringIcNS_11char_traitsIcEENS0_IcEEEEEC2B7v160006Ev, symObjAddr: 0xC330, symBinAddr: 0x10001018C, symSize: 0x2C }
  - { offsetInCU: 0x1AA72, offset: 0x33BC8, size: 0x8, addend: 0x0, symName: __ZNSt3__116__non_trivial_ifILb1ENS_9allocatorIPNS_12basic_stringIcNS_11char_traitsIcEENS1_IcEEEEEEEC2B7v160006Ev, symObjAddr: 0xC35C, symBinAddr: 0x1000101B8, symSize: 0x14 }
  - { offsetInCU: 0x1AA9A, offset: 0x33BF0, size: 0x8, addend: 0x0, symName: __ZNSt3__117__compressed_pairImNS_9allocatorINS_12basic_stringIcNS_11char_traitsIcEENS1_IcEEEEEEEC2B7v160006IiNS_18__default_init_tagEEEOT_OT0_, symObjAddr: 0xC370, symBinAddr: 0x1000101CC, symSize: 0x40 }
  - { offsetInCU: 0x1AAF0, offset: 0x33C46, size: 0x8, addend: 0x0, symName: __ZNSt3__122__compressed_pair_elemINS_9allocatorINS_12basic_stringIcNS_11char_traitsIcEENS1_IcEEEEEELi1ELb1EEC2B7v160006ENS_18__default_init_tagE, symObjAddr: 0xC3B0, symBinAddr: 0x10001020C, symSize: 0x2C }
  - { offsetInCU: 0x1AB22, offset: 0x33C78, size: 0x8, addend: 0x0, symName: __ZNSt3__19allocatorINS_12basic_stringIcNS_11char_traitsIcEENS0_IcEEEEEC2B7v160006Ev, symObjAddr: 0xC3DC, symBinAddr: 0x100010238, symSize: 0x2C }
  - { offsetInCU: 0x1AB4A, offset: 0x33CA0, size: 0x8, addend: 0x0, symName: __ZNSt3__116__non_trivial_ifILb1ENS_9allocatorINS_12basic_stringIcNS_11char_traitsIcEENS1_IcEEEEEEEC2B7v160006Ev, symObjAddr: 0xC408, symBinAddr: 0x100010264, symSize: 0x14 }
  - { offsetInCU: 0x1AB72, offset: 0x33CC8, size: 0x8, addend: 0x0, symName: __ZNSt3__15dequeINS_12basic_stringIcNS_11char_traitsIcEENS_9allocatorIcEEEENS4_IS6_EEE9push_backERKS6_, symObjAddr: 0xC41C, symBinAddr: 0x100010278, symSize: 0xA0 }
  - { offsetInCU: 0x1ABB6, offset: 0x33D0C, size: 0x8, addend: 0x0, symName: __ZNKSt3__15dequeINS_12basic_stringIcNS_11char_traitsIcEENS_9allocatorIcEEEENS4_IS6_EEE12__back_spareB7v160006Ev, symObjAddr: 0xC4BC, symBinAddr: 0x100010318, symSize: 0x54 }
  - { offsetInCU: 0x1ABDA, offset: 0x33D30, size: 0x8, addend: 0x0, symName: __ZNSt3__15dequeINS_12basic_stringIcNS_11char_traitsIcEENS_9allocatorIcEEEENS4_IS6_EEE19__add_back_capacityEv, symObjAddr: 0xC510, symBinAddr: 0x10001036C, symSize: 0x314 }
  - { offsetInCU: 0x1AC90, offset: 0x33DE6, size: 0x8, addend: 0x0, symName: __ZNSt3__116allocator_traitsINS_9allocatorINS_12basic_stringIcNS_11char_traitsIcEENS1_IcEEEEEEE9constructB7v160006IS6_JRKS6_EvvEEvRS7_PT_DpOT0_, symObjAddr: 0xC824, symBinAddr: 0x100010680, symSize: 0x30 }
  - { offsetInCU: 0x1ACE8, offset: 0x33E3E, size: 0x8, addend: 0x0, symName: __ZNKSt3__15dequeINS_12basic_stringIcNS_11char_traitsIcEENS_9allocatorIcEEEENS4_IS6_EEE10__capacityB7v160006Ev, symObjAddr: 0xC854, symBinAddr: 0x1000106B0, symSize: 0x64 }
  - { offsetInCU: 0x1AD0C, offset: 0x33E62, size: 0x8, addend: 0x0, symName: __ZNKSt3__15dequeINS_12basic_stringIcNS_11char_traitsIcEENS_9allocatorIcEEEENS4_IS6_EEE13__front_spareB7v160006Ev, symObjAddr: 0xC8B8, symBinAddr: 0x100010714, symSize: 0x18 }
  - { offsetInCU: 0x1AD30, offset: 0x33E86, size: 0x8, addend: 0x0, symName: __ZNSt3__114__split_bufferIPNS_12basic_stringIcNS_11char_traitsIcEENS_9allocatorIcEEEENS4_IS7_EEE9push_backB7v160006ERKS7_, symObjAddr: 0xC8D0, symBinAddr: 0x10001072C, symSize: 0x260 }
  - { offsetInCU: 0x1ADA7, offset: 0x33EFD, size: 0x8, addend: 0x0, symName: __ZNKSt3__114__split_bufferIPNS_12basic_stringIcNS_11char_traitsIcEENS_9allocatorIcEEEENS4_IS7_EEE12__back_spareB7v160006Ev, symObjAddr: 0xCB30, symBinAddr: 0x10001098C, symSize: 0x40 }
  - { offsetInCU: 0x1ADCB, offset: 0x33F21, size: 0x8, addend: 0x0, symName: __ZNSt3__114__split_bufferIPNS_12basic_stringIcNS_11char_traitsIcEENS_9allocatorIcEEEENS4_IS7_EEE9push_backEOS7_, symObjAddr: 0xCB70, symBinAddr: 0x1000109CC, symSize: 0x260 }
  - { offsetInCU: 0x1AE42, offset: 0x33F98, size: 0x8, addend: 0x0, symName: __ZNSt3__116allocator_traitsINS_9allocatorINS_12basic_stringIcNS_11char_traitsIcEENS1_IcEEEEEEE8allocateB7v160006ERS7_m, symObjAddr: 0xCDD0, symBinAddr: 0x100010C2C, symSize: 0x2C }
  - { offsetInCU: 0x1AE74, offset: 0x33FCA, size: 0x8, addend: 0x0, symName: __ZNSt3__114__split_bufferIPNS_12basic_stringIcNS_11char_traitsIcEENS_9allocatorIcEEEENS4_IS7_EEE10push_frontEOS7_, symObjAddr: 0xCDFC, symBinAddr: 0x100010C58, symSize: 0x25C }
  - { offsetInCU: 0x1AEEB, offset: 0x34041, size: 0x8, addend: 0x0, symName: __ZNSt3__114__split_bufferIPNS_12basic_stringIcNS_11char_traitsIcEENS_9allocatorIcEEEERNS4_IS7_EEEC1EmmS9_, symObjAddr: 0xD058, symBinAddr: 0x100010EB4, symSize: 0x44 }
  - { offsetInCU: 0x1AF45, offset: 0x3409B, size: 0x8, addend: 0x0, symName: __ZNSt3__122__allocator_destructorINS_9allocatorINS_12basic_stringIcNS_11char_traitsIcEENS1_IcEEEEEEEC1B7v160006ERS7_m, symObjAddr: 0xD09C, symBinAddr: 0x100010EF8, symSize: 0x3C }
  - { offsetInCU: 0x1B010, offset: 0x34166, size: 0x8, addend: 0x0, symName: __ZNSt3__110unique_ptrIPNS_12basic_stringIcNS_11char_traitsIcEENS_9allocatorIcEEEENS_22__allocator_destructorINS4_IS6_EEEEEC1B7v160006ILb1EvEES7_NS_16__dependent_typeINS_27__unique_ptr_deleter_sfinaeISA_EEXT_EE20__good_rval_ref_typeE, symObjAddr: 0xD0D8, symBinAddr: 0x100010F34, symSize: 0x3C }
  - { offsetInCU: 0x1B060, offset: 0x341B6, size: 0x8, addend: 0x0, symName: __ZNSt3__114__split_bufferIPNS_12basic_stringIcNS_11char_traitsIcEENS_9allocatorIcEEEERNS4_IS7_EEE9push_backEOS7_, symObjAddr: 0xD114, symBinAddr: 0x100010F70, symSize: 0x260 }
  - { offsetInCU: 0x1B0D7, offset: 0x3422D, size: 0x8, addend: 0x0, symName: __ZNKSt3__110unique_ptrIPNS_12basic_stringIcNS_11char_traitsIcEENS_9allocatorIcEEEENS_22__allocator_destructorINS4_IS6_EEEEE3getB7v160006Ev, symObjAddr: 0xD374, symBinAddr: 0x1000111D0, symSize: 0x28 }
  - { offsetInCU: 0x1B0FB, offset: 0x34251, size: 0x8, addend: 0x0, symName: __ZNSt3__110unique_ptrIPNS_12basic_stringIcNS_11char_traitsIcEENS_9allocatorIcEEEENS_22__allocator_destructorINS4_IS6_EEEEE7releaseB7v160006Ev, symObjAddr: 0xD39C, symBinAddr: 0x1000111F8, symSize: 0x44 }
  - { offsetInCU: 0x1B12E, offset: 0x34284, size: 0x8, addend: 0x0, symName: __ZNSt3__114__split_bufferIPNS_12basic_stringIcNS_11char_traitsIcEENS_9allocatorIcEEEERNS4_IS7_EEE10push_frontERKS7_, symObjAddr: 0xD3E0, symBinAddr: 0x10001123C, symSize: 0x25C }
  - { offsetInCU: 0x1B1A5, offset: 0x342FB, size: 0x8, addend: 0x0, symName: __ZNSt3__114__split_bufferIPNS_12basic_stringIcNS_11char_traitsIcEENS_9allocatorIcEEEENS4_IS7_EEE9__end_capB7v160006Ev, symObjAddr: 0xD678, symBinAddr: 0x1000114D4, symSize: 0x28 }
  - { offsetInCU: 0x1B1C9, offset: 0x3431F, size: 0x8, addend: 0x0, symName: __ZNSt3__114__split_bufferIPNS_12basic_stringIcNS_11char_traitsIcEENS_9allocatorIcEEEERNS4_IS7_EEE9__end_capB7v160006Ev, symObjAddr: 0xD6A0, symBinAddr: 0x1000114FC, symSize: 0x28 }
  - { offsetInCU: 0x1B1ED, offset: 0x34343, size: 0x8, addend: 0x0, symName: __ZNSt3__110unique_ptrIPNS_12basic_stringIcNS_11char_traitsIcEENS_9allocatorIcEEEENS_22__allocator_destructorINS4_IS6_EEEEED1B7v160006Ev, symObjAddr: 0xD6C8, symBinAddr: 0x100011524, symSize: 0x2C }
  - { offsetInCU: 0x1B215, offset: 0x3436B, size: 0x8, addend: 0x0, symName: __ZNSt3__114__split_bufferIPNS_12basic_stringIcNS_11char_traitsIcEENS_9allocatorIcEEEERNS4_IS7_EEED1Ev, symObjAddr: 0xD6F4, symBinAddr: 0x100011550, symSize: 0x2C }
  - { offsetInCU: 0x1B240, offset: 0x34396, size: 0x8, addend: 0x0, symName: __ZNSt3__114__split_bufferIPNS_12basic_stringIcNS_11char_traitsIcEENS_9allocatorIcEEEERNS4_IS7_EEE18__construct_at_endINS_13move_iteratorIPS7_EEEENS_9enable_ifIXsr27__is_cpp17_forward_iteratorIT_EE5valueEvE4typeESG_SG_, symObjAddr: 0xD760, symBinAddr: 0x1000115BC, symSize: 0xFC }
  - { offsetInCU: 0x1B29A, offset: 0x343F0, size: 0x8, addend: 0x0, symName: __ZNSt3__113move_iteratorIPPNS_12basic_stringIcNS_11char_traitsIcEENS_9allocatorIcEEEEEC1B7v160006ES8_, symObjAddr: 0xD85C, symBinAddr: 0x1000116B8, symSize: 0x34 }
  - { offsetInCU: 0x1B2D5, offset: 0x3442B, size: 0x8, addend: 0x0, symName: __ZNSt3__116allocator_traitsINS_9allocatorIPNS_12basic_stringIcNS_11char_traitsIcEENS1_IcEEEEEEE9constructB7v160006IS7_JRKS7_EvvEEvRS8_PT_DpOT0_, symObjAddr: 0xD890, symBinAddr: 0x1000116EC, symSize: 0x30 }
  - { offsetInCU: 0x1B350, offset: 0x344A6, size: 0x8, addend: 0x0, symName: __ZNKSt3__114__move_trivialclB7v160006IPNS_12basic_stringIcNS_11char_traitsIcEENS_9allocatorIcEEEES8_Li0EEENS_4pairIPT_PT0_EESB_SB_SD_, symObjAddr: 0xDA38, symBinAddr: 0x100011894, symSize: 0x48 }
  - { offsetInCU: 0x1B3B7, offset: 0x3450D, size: 0x8, addend: 0x0, symName: __ZNSt3__119__unwrap_range_implIPPNS_12basic_stringIcNS_11char_traitsIcEENS_9allocatorIcEEEES8_E8__unwrapB7v160006ES8_S8_, symObjAddr: 0xDB44, symBinAddr: 0x1000119A0, symSize: 0x58 }
  - { offsetInCU: 0x1B3EC, offset: 0x34542, size: 0x8, addend: 0x0, symName: __ZNSt3__14pairIPPNS_12basic_stringIcNS_11char_traitsIcEENS_9allocatorIcEEEES8_EC1B7v160006IS8_S8_LPv0EEEOT_OT0_, symObjAddr: 0xDB9C, symBinAddr: 0x1000119F8, symSize: 0x3C }
  - { offsetInCU: 0x1B449, offset: 0x3459F, size: 0x8, addend: 0x0, symName: __ZNSt3__14pairIPPNS_12basic_stringIcNS_11char_traitsIcEENS_9allocatorIcEEEES8_EC2B7v160006IS8_S8_LPv0EEEOT_OT0_, symObjAddr: 0xDBD8, symBinAddr: 0x100011A34, symSize: 0x34 }
  - { offsetInCU: 0x1B4A6, offset: 0x345FC, size: 0x8, addend: 0x0, symName: __ZNSt3__14pairIPPNS_12basic_stringIcNS_11char_traitsIcEENS_9allocatorIcEEEES8_EC1B7v160006IRS8_S8_LPv0EEEOT_OT0_, symObjAddr: 0xDCC8, symBinAddr: 0x100011B24, symSize: 0x3C }
  - { offsetInCU: 0x1B503, offset: 0x34659, size: 0x8, addend: 0x0, symName: __ZNSt3__14pairIPPNS_12basic_stringIcNS_11char_traitsIcEENS_9allocatorIcEEEES8_EC2B7v160006IRS8_S8_LPv0EEEOT_OT0_, symObjAddr: 0xDD04, symBinAddr: 0x100011B60, symSize: 0x34 }
  - { offsetInCU: 0x1B560, offset: 0x346B6, size: 0x8, addend: 0x0, symName: __ZNSt3__118__unwrap_iter_implIPPNS_12basic_stringIcNS_11char_traitsIcEENS_9allocatorIcEEEELb1EE8__unwrapB7v160006ES8_, symObjAddr: 0xDD38, symBinAddr: 0x100011B94, symSize: 0x24 }
  - { offsetInCU: 0x1B582, offset: 0x346D8, size: 0x8, addend: 0x0, symName: __ZNSt3__119__unwrap_range_implIPPNS_12basic_stringIcNS_11char_traitsIcEENS_9allocatorIcEEEES8_E8__rewrapB7v160006ES8_S8_, symObjAddr: 0xDD5C, symBinAddr: 0x100011BB8, symSize: 0x2C }
  - { offsetInCU: 0x1B5B2, offset: 0x34708, size: 0x8, addend: 0x0, symName: __ZNSt3__118__unwrap_iter_implIPPNS_12basic_stringIcNS_11char_traitsIcEENS_9allocatorIcEEEELb1EE8__rewrapB7v160006ES8_S8_, symObjAddr: 0xDD88, symBinAddr: 0x100011BE4, symSize: 0x50 }
  - { offsetInCU: 0x1B5EC, offset: 0x34742, size: 0x8, addend: 0x0, symName: __ZNSt3__114__split_bufferIPNS_12basic_stringIcNS_11char_traitsIcEENS_9allocatorIcEEEERNS4_IS7_EEE21_ConstructTransactionC1B7v160006EPPS7_m, symObjAddr: 0xDE14, symBinAddr: 0x100011C70, symSize: 0x3C }
  - { offsetInCU: 0x1B635, offset: 0x3478B, size: 0x8, addend: 0x0, symName: __ZNSt3__116allocator_traitsINS_9allocatorIPNS_12basic_stringIcNS_11char_traitsIcEENS1_IcEEEEEEE9constructB7v160006IS7_JS7_EvvEEvRS8_PT_DpOT0_, symObjAddr: 0xDE50, symBinAddr: 0x100011CAC, symSize: 0x30 }
  - { offsetInCU: 0x1B68D, offset: 0x347E3, size: 0x8, addend: 0x0, symName: __ZNSt3__114__split_bufferIPNS_12basic_stringIcNS_11char_traitsIcEENS_9allocatorIcEEEERNS4_IS7_EEE7__allocB7v160006Ev, symObjAddr: 0xDE80, symBinAddr: 0x100011CDC, symSize: 0x28 }
  - { offsetInCU: 0x1B6B1, offset: 0x34807, size: 0x8, addend: 0x0, symName: __ZNKSt3__113move_iteratorIPPNS_12basic_stringIcNS_11char_traitsIcEENS_9allocatorIcEEEEEdeB7v160006Ev, symObjAddr: 0xDEA8, symBinAddr: 0x100011D04, symSize: 0x2C }
  - { offsetInCU: 0x1B6D5, offset: 0x3482B, size: 0x8, addend: 0x0, symName: __ZNSt3__113move_iteratorIPPNS_12basic_stringIcNS_11char_traitsIcEENS_9allocatorIcEEEEEppB7v160006Ev, symObjAddr: 0xDED4, symBinAddr: 0x100011D30, symSize: 0x20 }
  - { offsetInCU: 0x1B6F9, offset: 0x3484F, size: 0x8, addend: 0x0, symName: __ZNSt3__114__split_bufferIPNS_12basic_stringIcNS_11char_traitsIcEENS_9allocatorIcEEEERNS4_IS7_EEE21_ConstructTransactionD1B7v160006Ev, symObjAddr: 0xDEF4, symBinAddr: 0x100011D50, symSize: 0x2C }
  - { offsetInCU: 0x1B721, offset: 0x34877, size: 0x8, addend: 0x0, symName: __ZNKRSt3__113move_iteratorIPPNS_12basic_stringIcNS_11char_traitsIcEENS_9allocatorIcEEEEE4baseB7v160006Ev, symObjAddr: 0xDF9C, symBinAddr: 0x100011DF8, symSize: 0x14 }
  - { offsetInCU: 0x1B745, offset: 0x3489B, size: 0x8, addend: 0x0, symName: __ZNSt3__114__split_bufferIPNS_12basic_stringIcNS_11char_traitsIcEENS_9allocatorIcEEEERNS4_IS7_EEE21_ConstructTransactionC2B7v160006EPPS7_m, symObjAddr: 0xDFB0, symBinAddr: 0x100011E0C, symSize: 0x44 }
  - { offsetInCU: 0x1B789, offset: 0x348DF, size: 0x8, addend: 0x0, symName: __ZNSt3__117__compressed_pairIPPNS_12basic_stringIcNS_11char_traitsIcEENS_9allocatorIcEEEERNS4_IS7_EEE6secondB7v160006Ev, symObjAddr: 0xE020, symBinAddr: 0x100011E7C, symSize: 0x28 }
  - { offsetInCU: 0x1B7AD, offset: 0x34903, size: 0x8, addend: 0x0, symName: __ZNSt3__122__compressed_pair_elemIRNS_9allocatorIPNS_12basic_stringIcNS_11char_traitsIcEENS1_IcEEEEEELi1ELb0EE5__getB7v160006Ev, symObjAddr: 0xE048, symBinAddr: 0x100011EA4, symSize: 0x18 }
  - { offsetInCU: 0x1B7D6, offset: 0x3492C, size: 0x8, addend: 0x0, symName: __ZNKSt3__16ranges11__iter_move4__fnclB7v160006IRKPPNS_12basic_stringIcNS_11char_traitsIcEENS_9allocatorIcEEEEEEDTclsr3stdE4movedeclsr3stdE7forwardIT_Efp_EEEOSE_, symObjAddr: 0xE060, symBinAddr: 0x100011EBC, symSize: 0x1C }
  - { offsetInCU: 0x1B811, offset: 0x34967, size: 0x8, addend: 0x0, symName: __ZNSt3__114__split_bufferIPNS_12basic_stringIcNS_11char_traitsIcEENS_9allocatorIcEEEERNS4_IS7_EEE21_ConstructTransactionD2B7v160006Ev, symObjAddr: 0xE07C, symBinAddr: 0x100011ED8, symSize: 0x20 }
  - { offsetInCU: 0x1B839, offset: 0x3498F, size: 0x8, addend: 0x0, symName: __ZNSt3__113move_iteratorIPPNS_12basic_stringIcNS_11char_traitsIcEENS_9allocatorIcEEEEEC2B7v160006ES8_, symObjAddr: 0xE09C, symBinAddr: 0x100011EF8, symSize: 0x20 }
  - { offsetInCU: 0x1B86F, offset: 0x349C5, size: 0x8, addend: 0x0, symName: __ZNSt3__19allocatorINS_12basic_stringIcNS_11char_traitsIcEENS0_IcEEEEE8allocateB7v160006Em, symObjAddr: 0xE0E8, symBinAddr: 0x100011F44, symSize: 0x5C }
  - { offsetInCU: 0x1B8AB, offset: 0x34A01, size: 0x8, addend: 0x0, symName: __ZNSt3__116allocator_traitsINS_9allocatorINS_12basic_stringIcNS_11char_traitsIcEENS1_IcEEEEEEE8max_sizeB7v160006IS7_vvEEmRKS7_, symObjAddr: 0xE144, symBinAddr: 0x100011FA0, symSize: 0x28 }
  - { offsetInCU: 0x1B8E2, offset: 0x34A38, size: 0x8, addend: 0x0, symName: __ZNKSt3__123__move_backward_trivialclB7v160006IPNS_12basic_stringIcNS_11char_traitsIcEENS_9allocatorIcEEEES8_Li0EEENS_4pairIPT_PT0_EESB_SB_SD_, symObjAddr: 0xE2E8, symBinAddr: 0x100012144, symSize: 0x48 }
  - { offsetInCU: 0x1B949, offset: 0x34A9F, size: 0x8, addend: 0x0, symName: __ZNSt3__14pairIPPNS_12basic_stringIcNS_11char_traitsIcEENS_9allocatorIcEEEES8_EC1B7v160006IRS8_SB_LPv0EEEOT_OT0_, symObjAddr: 0xE3FC, symBinAddr: 0x100012258, symSize: 0x3C }
  - { offsetInCU: 0x1B9A6, offset: 0x34AFC, size: 0x8, addend: 0x0, symName: __ZNSt3__14pairIPPNS_12basic_stringIcNS_11char_traitsIcEENS_9allocatorIcEEEES8_EC2B7v160006IRS8_SB_LPv0EEEOT_OT0_, symObjAddr: 0xE438, symBinAddr: 0x100012294, symSize: 0x34 }
  - { offsetInCU: 0x1BA03, offset: 0x34B59, size: 0x8, addend: 0x0, symName: __ZNSt3__114__split_bufferIPNS_12basic_stringIcNS_11char_traitsIcEENS_9allocatorIcEEEERNS4_IS7_EEEC2EmmS9_, symObjAddr: 0xE46C, symBinAddr: 0x1000122C8, symSize: 0xD4 }
  - { offsetInCU: 0x1BA76, offset: 0x34BCC, size: 0x8, addend: 0x0, symName: __ZNSt3__117__compressed_pairIPPNS_12basic_stringIcNS_11char_traitsIcEENS_9allocatorIcEEEERNS4_IS7_EEEC1B7v160006IDnSA_EEOT_OT0_, symObjAddr: 0xE540, symBinAddr: 0x10001239C, symSize: 0x3C }
  - { offsetInCU: 0x1BACC, offset: 0x34C22, size: 0x8, addend: 0x0, symName: __ZNSt3__117__compressed_pairIPPNS_12basic_stringIcNS_11char_traitsIcEENS_9allocatorIcEEEERNS4_IS7_EEEC2B7v160006IDnSA_EEOT_OT0_, symObjAddr: 0xE5BC, symBinAddr: 0x100012418, symSize: 0x48 }
  - { offsetInCU: 0x1BB22, offset: 0x34C78, size: 0x8, addend: 0x0, symName: __ZNSt3__122__compressed_pair_elemIRNS_9allocatorIPNS_12basic_stringIcNS_11char_traitsIcEENS1_IcEEEEEELi1ELb0EEC2B7v160006IS9_vEEOT_, symObjAddr: 0xE604, symBinAddr: 0x100012460, symSize: 0x20 }
  - { offsetInCU: 0x1BB63, offset: 0x34CB9, size: 0x8, addend: 0x0, symName: __ZNSt3__19allocatorIPNS_12basic_stringIcNS_11char_traitsIcEENS0_IcEEEEE8allocateB7v160006Em, symObjAddr: 0xE624, symBinAddr: 0x100012480, symSize: 0x58 }
  - { offsetInCU: 0x1BB9F, offset: 0x34CF5, size: 0x8, addend: 0x0, symName: __ZNSt3__116allocator_traitsINS_9allocatorIPNS_12basic_stringIcNS_11char_traitsIcEENS1_IcEEEEEEE8max_sizeB7v160006IS8_vvEEmRKS8_, symObjAddr: 0xE67C, symBinAddr: 0x1000124D8, symSize: 0x28 }
  - { offsetInCU: 0x1BBCC, offset: 0x34D22, size: 0x8, addend: 0x0, symName: __ZNSt3__122__allocator_destructorINS_9allocatorINS_12basic_stringIcNS_11char_traitsIcEENS1_IcEEEEEEEC2B7v160006ERS7_m, symObjAddr: 0xE6A4, symBinAddr: 0x100012500, symSize: 0x2C }
  - { offsetInCU: 0x1BC10, offset: 0x34D66, size: 0x8, addend: 0x0, symName: __ZNSt3__110unique_ptrIPNS_12basic_stringIcNS_11char_traitsIcEENS_9allocatorIcEEEENS_22__allocator_destructorINS4_IS6_EEEEEC2B7v160006ILb1EvEES7_NS_16__dependent_typeINS_27__unique_ptr_deleter_sfinaeISA_EEXT_EE20__good_rval_ref_typeE, symObjAddr: 0xE6D0, symBinAddr: 0x10001252C, symSize: 0x48 }
  - { offsetInCU: 0x1BC60, offset: 0x34DB6, size: 0x8, addend: 0x0, symName: __ZNSt3__117__compressed_pairIPNS_12basic_stringIcNS_11char_traitsIcEENS_9allocatorIcEEEENS_22__allocator_destructorINS4_IS6_EEEEEC1B7v160006IRS7_SA_EEOT_OT0_, symObjAddr: 0xE718, symBinAddr: 0x100012574, symSize: 0x3C }
  - { offsetInCU: 0x1BCB6, offset: 0x34E0C, size: 0x8, addend: 0x0, symName: __ZNSt3__117__compressed_pairIPNS_12basic_stringIcNS_11char_traitsIcEENS_9allocatorIcEEEENS_22__allocator_destructorINS4_IS6_EEEEEC2B7v160006IRS7_SA_EEOT_OT0_, symObjAddr: 0xE754, symBinAddr: 0x1000125B0, symSize: 0x48 }
  - { offsetInCU: 0x1BD0C, offset: 0x34E62, size: 0x8, addend: 0x0, symName: __ZNSt3__122__compressed_pair_elemIPNS_12basic_stringIcNS_11char_traitsIcEENS_9allocatorIcEEEELi0ELb0EEC2B7v160006IRS7_vEEOT_, symObjAddr: 0xE79C, symBinAddr: 0x1000125F8, symSize: 0x24 }
  - { offsetInCU: 0x1BD4D, offset: 0x34EA3, size: 0x8, addend: 0x0, symName: __ZNSt3__122__compressed_pair_elemINS_22__allocator_destructorINS_9allocatorINS_12basic_stringIcNS_11char_traitsIcEENS2_IcEEEEEEEELi1ELb0EEC2B7v160006IS9_vEEOT_, symObjAddr: 0xE7C0, symBinAddr: 0x10001261C, symSize: 0x24 }
  - { offsetInCU: 0x1BD8E, offset: 0x34EE4, size: 0x8, addend: 0x0, symName: __ZNKSt3__117__compressed_pairIPNS_12basic_stringIcNS_11char_traitsIcEENS_9allocatorIcEEEENS_22__allocator_destructorINS4_IS6_EEEEE5firstB7v160006Ev, symObjAddr: 0xE7E4, symBinAddr: 0x100012640, symSize: 0x24 }
  - { offsetInCU: 0x1BDB2, offset: 0x34F08, size: 0x8, addend: 0x0, symName: __ZNKSt3__122__compressed_pair_elemIPNS_12basic_stringIcNS_11char_traitsIcEENS_9allocatorIcEEEELi0ELb0EE5__getB7v160006Ev, symObjAddr: 0xE808, symBinAddr: 0x100012664, symSize: 0x14 }
  - { offsetInCU: 0x1BDD6, offset: 0x34F2C, size: 0x8, addend: 0x0, symName: __ZNSt3__117__compressed_pairIPNS_12basic_stringIcNS_11char_traitsIcEENS_9allocatorIcEEEENS_22__allocator_destructorINS4_IS6_EEEEE5firstB7v160006Ev, symObjAddr: 0xE81C, symBinAddr: 0x100012678, symSize: 0x24 }
  - { offsetInCU: 0x1BDFA, offset: 0x34F50, size: 0x8, addend: 0x0, symName: __ZNSt3__122__compressed_pair_elemIPNS_12basic_stringIcNS_11char_traitsIcEENS_9allocatorIcEEEELi0ELb0EE5__getB7v160006Ev, symObjAddr: 0xE840, symBinAddr: 0x10001269C, symSize: 0x14 }
  - { offsetInCU: 0x1BE1E, offset: 0x34F74, size: 0x8, addend: 0x0, symName: __ZNSt3__117__compressed_pairIPPNS_12basic_stringIcNS_11char_traitsIcEENS_9allocatorIcEEEENS4_IS7_EEE5firstB7v160006Ev, symObjAddr: 0xE854, symBinAddr: 0x1000126B0, symSize: 0x24 }
  - { offsetInCU: 0x1BE42, offset: 0x34F98, size: 0x8, addend: 0x0, symName: __ZNSt3__122__compressed_pair_elemIPPNS_12basic_stringIcNS_11char_traitsIcEENS_9allocatorIcEEEELi0ELb0EE5__getB7v160006Ev, symObjAddr: 0xE878, symBinAddr: 0x1000126D4, symSize: 0x14 }
  - { offsetInCU: 0x1BE66, offset: 0x34FBC, size: 0x8, addend: 0x0, symName: __ZNSt3__117__compressed_pairIPPNS_12basic_stringIcNS_11char_traitsIcEENS_9allocatorIcEEEERNS4_IS7_EEE5firstB7v160006Ev, symObjAddr: 0xE88C, symBinAddr: 0x1000126E8, symSize: 0x24 }
  - { offsetInCU: 0x1BE8A, offset: 0x34FE0, size: 0x8, addend: 0x0, symName: __ZNSt3__110unique_ptrIPNS_12basic_stringIcNS_11char_traitsIcEENS_9allocatorIcEEEENS_22__allocator_destructorINS4_IS6_EEEEED2B7v160006Ev, symObjAddr: 0xE8B0, symBinAddr: 0x10001270C, symSize: 0x30 }
  - { offsetInCU: 0x1BEB2, offset: 0x35008, size: 0x8, addend: 0x0, symName: __ZNSt3__110unique_ptrIPNS_12basic_stringIcNS_11char_traitsIcEENS_9allocatorIcEEEENS_22__allocator_destructorINS4_IS6_EEEEE5resetB7v160006ES7_, symObjAddr: 0xE8E0, symBinAddr: 0x10001273C, symSize: 0x78 }
  - { offsetInCU: 0x1BEF4, offset: 0x3504A, size: 0x8, addend: 0x0, symName: __ZNSt3__117__compressed_pairIPNS_12basic_stringIcNS_11char_traitsIcEENS_9allocatorIcEEEENS_22__allocator_destructorINS4_IS6_EEEEE6secondB7v160006Ev, symObjAddr: 0xE958, symBinAddr: 0x1000127B4, symSize: 0x28 }
  - { offsetInCU: 0x1BF18, offset: 0x3506E, size: 0x8, addend: 0x0, symName: __ZNSt3__122__allocator_destructorINS_9allocatorINS_12basic_stringIcNS_11char_traitsIcEENS1_IcEEEEEEEclB7v160006EPS6_, symObjAddr: 0xE980, symBinAddr: 0x1000127DC, symSize: 0x34 }
  - { offsetInCU: 0x1BF4A, offset: 0x350A0, size: 0x8, addend: 0x0, symName: __ZNSt3__122__compressed_pair_elemINS_22__allocator_destructorINS_9allocatorINS_12basic_stringIcNS_11char_traitsIcEENS2_IcEEEEEEEELi1ELb0EE5__getB7v160006Ev, symObjAddr: 0xE9B4, symBinAddr: 0x100012810, symSize: 0x14 }
  - { offsetInCU: 0x1BF6E, offset: 0x350C4, size: 0x8, addend: 0x0, symName: __ZNSt3__114__split_bufferIPNS_12basic_stringIcNS_11char_traitsIcEENS_9allocatorIcEEEERNS4_IS7_EEED2Ev, symObjAddr: 0xE9C8, symBinAddr: 0x100012824, symSize: 0x8C }
  - { offsetInCU: 0x1BF99, offset: 0x350EF, size: 0x8, addend: 0x0, symName: __ZNSt3__114__split_bufferIPNS_12basic_stringIcNS_11char_traitsIcEENS_9allocatorIcEEEERNS4_IS7_EEE5clearB7v160006Ev, symObjAddr: 0xEA54, symBinAddr: 0x1000128B0, symSize: 0x28 }
  - { offsetInCU: 0x1BFBD, offset: 0x35113, size: 0x8, addend: 0x0, symName: __ZNKSt3__114__split_bufferIPNS_12basic_stringIcNS_11char_traitsIcEENS_9allocatorIcEEEERNS4_IS7_EEE8capacityB7v160006Ev, symObjAddr: 0xEA7C, symBinAddr: 0x1000128D8, symSize: 0x40 }
  - { offsetInCU: 0x1BFE1, offset: 0x35137, size: 0x8, addend: 0x0, symName: __ZNSt3__114__split_bufferIPNS_12basic_stringIcNS_11char_traitsIcEENS_9allocatorIcEEEERNS4_IS7_EEE17__destruct_at_endB7v160006EPS7_, symObjAddr: 0xEABC, symBinAddr: 0x100012918, symSize: 0x2C }
  - { offsetInCU: 0x1C013, offset: 0x35169, size: 0x8, addend: 0x0, symName: __ZNSt3__114__split_bufferIPNS_12basic_stringIcNS_11char_traitsIcEENS_9allocatorIcEEEERNS4_IS7_EEE17__destruct_at_endB7v160006EPS7_NS_17integral_constantIbLb0EEE, symObjAddr: 0xEAE8, symBinAddr: 0x100012944, symSize: 0x80 }
  - { offsetInCU: 0x1C051, offset: 0x351A7, size: 0x8, addend: 0x0, symName: __ZNKSt3__114__split_bufferIPNS_12basic_stringIcNS_11char_traitsIcEENS_9allocatorIcEEEERNS4_IS7_EEE9__end_capB7v160006Ev, symObjAddr: 0xEB68, symBinAddr: 0x1000129C4, symSize: 0x28 }
  - { offsetInCU: 0x1C075, offset: 0x351CB, size: 0x8, addend: 0x0, symName: __ZNKSt3__117__compressed_pairIPPNS_12basic_stringIcNS_11char_traitsIcEENS_9allocatorIcEEEERNS4_IS7_EEE5firstB7v160006Ev, symObjAddr: 0xEB90, symBinAddr: 0x1000129EC, symSize: 0x24 }
  - { offsetInCU: 0x1C099, offset: 0x351EF, size: 0x8, addend: 0x0, symName: __ZNKSt3__15dequeINS_12basic_stringIcNS_11char_traitsIcEENS_9allocatorIcEEEENS4_IS6_EEE5emptyB7v160006Ev, symObjAddr: 0xEBB4, symBinAddr: 0x100012A10, symSize: 0x30 }
  - { offsetInCU: 0x1C0BD, offset: 0x35213, size: 0x8, addend: 0x0, symName: __ZNSt3__15dequeINS_12basic_stringIcNS_11char_traitsIcEENS_9allocatorIcEEEENS4_IS6_EEE4backEv, symObjAddr: 0xEBE4, symBinAddr: 0x100012A40, symSize: 0x70 }
  - { offsetInCU: 0x1C0F2, offset: 0x35248, size: 0x8, addend: 0x0, symName: __ZNSt3__15dequeINS_12basic_stringIcNS_11char_traitsIcEENS_9allocatorIcEEEENS4_IS6_EEE8pop_backEv, symObjAddr: 0xEC54, symBinAddr: 0x100012AB0, symSize: 0xC0 }
  - { offsetInCU: 0x1C136, offset: 0x3528C, size: 0x8, addend: 0x0, symName: __ZNSt3__15dequeINS_12basic_stringIcNS_11char_traitsIcEENS_9allocatorIcEEEENS4_IS6_EEE25__maybe_remove_back_spareB7v160006Eb, symObjAddr: 0xED28, symBinAddr: 0x100012B84, symSize: 0xCC }
  - { offsetInCU: 0x1C169, offset: 0x352BF, size: 0x8, addend: 0x0, symName: __ZNKSt3__15dequeINS_12basic_stringIcNS_11char_traitsIcEENS_9allocatorIcEEEENS4_IS6_EEE19__back_spare_blocksB7v160006Ev, symObjAddr: 0xEDF4, symBinAddr: 0x100012C50, symSize: 0x2C }
  - { offsetInCU: 0x1C18D, offset: 0x352E3, size: 0x8, addend: 0x0, symName: __ZNSt3__114__split_bufferIPNS_12basic_stringIcNS_11char_traitsIcEENS_9allocatorIcEEEENS4_IS7_EEE4backB7v160006Ev, symObjAddr: 0xEE20, symBinAddr: 0x100012C7C, symSize: 0x1C }
  - { offsetInCU: 0x1C1B1, offset: 0x35307, size: 0x8, addend: 0x0, symName: __ZNSt3__114__split_bufferIPNS_12basic_stringIcNS_11char_traitsIcEENS_9allocatorIcEEEENS4_IS7_EEE8pop_backB7v160006Ev, symObjAddr: 0xEE3C, symBinAddr: 0x100012C98, symSize: 0x2C }
  - { offsetInCU: 0x1C1D5, offset: 0x3532B, size: 0x8, addend: 0x0, symName: __ZNKSt3__13setINS_12basic_stringIcNS_11char_traitsIcEENS_9allocatorIcEEEENS_4lessIS6_EENS4_IS6_EEE4findB7v160006ERKS6_, symObjAddr: 0xEE68, symBinAddr: 0x100012CC4, symSize: 0x34 }
  - { offsetInCU: 0x1C208, offset: 0x3535E, size: 0x8, addend: 0x0, symName: __ZNKSt3__13setINS_12basic_stringIcNS_11char_traitsIcEENS_9allocatorIcEEEENS_4lessIS6_EENS4_IS6_EEE3endB7v160006Ev, symObjAddr: 0xEE9C, symBinAddr: 0x100012CF8, symSize: 0x2C }
  - { offsetInCU: 0x1C22C, offset: 0x35382, size: 0x8, addend: 0x0, symName: __ZNKSt3__16__treeINS_12basic_stringIcNS_11char_traitsIcEENS_9allocatorIcEEEENS_4lessIS6_EENS4_IS6_EEE4findIS6_EENS_21__tree_const_iteratorIS6_PNS_11__tree_nodeIS6_PvEElEERKT_, symObjAddr: 0xEEC8, symBinAddr: 0x100012D24, symSize: 0xF8 }
  - { offsetInCU: 0x1C279, offset: 0x353CF, size: 0x8, addend: 0x0, symName: __ZNKSt3__16__treeINS_12basic_stringIcNS_11char_traitsIcEENS_9allocatorIcEEEENS_4lessIS6_EENS4_IS6_EEE13__lower_boundIS6_EENS_21__tree_const_iteratorIS6_PNS_11__tree_nodeIS6_PvEElEERKT_SG_PNS_15__tree_end_nodeIPNS_16__tree_node_baseISE_EEEE, symObjAddr: 0xEFC0, symBinAddr: 0x100012E1C, symSize: 0xA4 }
  - { offsetInCU: 0x1C2D5, offset: 0x3542B, size: 0x8, addend: 0x0, symName: __ZNKSt3__16__treeINS_12basic_stringIcNS_11char_traitsIcEENS_9allocatorIcEEEENS_4lessIS6_EENS4_IS6_EEE3endB7v160006Ev, symObjAddr: 0xF064, symBinAddr: 0x100012EC0, symSize: 0x34 }
  - { offsetInCU: 0x1C2F9, offset: 0x3544F, size: 0x8, addend: 0x0, symName: __ZNSt3__121__tree_const_iteratorINS_12basic_stringIcNS_11char_traitsIcEENS_9allocatorIcEEEEPNS_11__tree_nodeIS6_PvEElEC1B7v160006EPNS_15__tree_end_nodeIPNS_16__tree_node_baseIS8_EEEE, symObjAddr: 0xF098, symBinAddr: 0x100012EF4, symSize: 0x34 }
  - { offsetInCU: 0x1C330, offset: 0x35486, size: 0x8, addend: 0x0, symName: __ZNSt3__121__tree_const_iteratorINS_12basic_stringIcNS_11char_traitsIcEENS_9allocatorIcEEEEPNS_11__tree_nodeIS6_PvEElEC2B7v160006EPNS_15__tree_end_nodeIPNS_16__tree_node_baseIS8_EEEE, symObjAddr: 0xF0CC, symBinAddr: 0x100012F28, symSize: 0x20 }
  - { offsetInCU: 0x1C367, offset: 0x354BD, size: 0x8, addend: 0x0, symName: __ZNSt3__15queueINS_12basic_stringIcNS_11char_traitsIcEENS_9allocatorIcEEEENS_5dequeIS6_NS4_IS6_EEEEEC2B7v160006Ev, symObjAddr: 0xF0EC, symBinAddr: 0x100012F48, symSize: 0x2C }
  - { offsetInCU: 0x1C38F, offset: 0x354E5, size: 0x8, addend: 0x0, symName: __ZNSt3__15dequeINS_12basic_stringIcNS_11char_traitsIcEENS_9allocatorIcEEEENS4_IS6_EEE5frontEv, symObjAddr: 0xF118, symBinAddr: 0x100012F74, symSize: 0x58 }
  - { offsetInCU: 0x1C3B5, offset: 0x3550B, size: 0x8, addend: 0x0, symName: __ZNSt3__15dequeINS_12basic_stringIcNS_11char_traitsIcEENS_9allocatorIcEEEENS4_IS6_EEE9pop_frontEv, symObjAddr: 0xF170, symBinAddr: 0x100012FCC, symSize: 0xB4 }
  - { offsetInCU: 0x1C3EA, offset: 0x35540, size: 0x8, addend: 0x0, symName: __ZNSt3__15dequeINS_12basic_stringIcNS_11char_traitsIcEENS_9allocatorIcEEEENS4_IS6_EEE26__maybe_remove_front_spareB7v160006Eb, symObjAddr: 0xF224, symBinAddr: 0x100013080, symSize: 0xDC }
  - { offsetInCU: 0x1C41D, offset: 0x35573, size: 0x8, addend: 0x0, symName: __ZNKSt3__15dequeINS_12basic_stringIcNS_11char_traitsIcEENS_9allocatorIcEEEENS4_IS6_EEE20__front_spare_blocksB7v160006Ev, symObjAddr: 0xF300, symBinAddr: 0x10001315C, symSize: 0x2C }
  - { offsetInCU: 0x1C441, offset: 0x35597, size: 0x8, addend: 0x0, symName: __ZNSt3__16__treeINS_12basic_stringIcNS_11char_traitsIcEENS_9allocatorIcEEEENS_4lessIS6_EENS4_IS6_EEE14__erase_uniqueIS6_EEmRKT_, symObjAddr: 0xF32C, symBinAddr: 0x100013188, symSize: 0xA0 }
  - { offsetInCU: 0x1C48E, offset: 0x355E4, size: 0x8, addend: 0x0, symName: __ZNSt3__16__treeINS_12basic_stringIcNS_11char_traitsIcEENS_9allocatorIcEEEENS_4lessIS6_EENS4_IS6_EEE4findIS6_EENS_15__tree_iteratorIS6_PNS_11__tree_nodeIS6_PvEElEERKT_, symObjAddr: 0xF3CC, symBinAddr: 0x100013228, symSize: 0xF8 }
  - { offsetInCU: 0x1C4DB, offset: 0x35631, size: 0x8, addend: 0x0, symName: __ZNSt3__16__treeINS_12basic_stringIcNS_11char_traitsIcEENS_9allocatorIcEEEENS_4lessIS6_EENS4_IS6_EEE3endB7v160006Ev, symObjAddr: 0xF4F4, symBinAddr: 0x100013350, symSize: 0x34 }
  - { offsetInCU: 0x1C4FF, offset: 0x35655, size: 0x8, addend: 0x0, symName: __ZNSt3__16__treeINS_12basic_stringIcNS_11char_traitsIcEENS_9allocatorIcEEEENS_4lessIS6_EENS4_IS6_EEE5eraseENS_21__tree_const_iteratorIS6_PNS_11__tree_nodeIS6_PvEElEE, symObjAddr: 0xF528, symBinAddr: 0x100013384, symSize: 0x98 }
  - { offsetInCU: 0x1C561, offset: 0x356B7, size: 0x8, addend: 0x0, symName: __ZNSt3__16__treeINS_12basic_stringIcNS_11char_traitsIcEENS_9allocatorIcEEEENS_4lessIS6_EENS4_IS6_EEE13__lower_boundIS6_EENS_15__tree_iteratorIS6_PNS_11__tree_nodeIS6_PvEElEERKT_SG_PNS_15__tree_end_nodeIPNS_16__tree_node_baseISE_EEEE, symObjAddr: 0xF5C0, symBinAddr: 0x10001341C, symSize: 0xA4 }
  - { offsetInCU: 0x1C5BD, offset: 0x35713, size: 0x8, addend: 0x0, symName: __ZNKSt3__115__tree_iteratorINS_12basic_stringIcNS_11char_traitsIcEENS_9allocatorIcEEEEPNS_11__tree_nodeIS6_PvEElEdeB7v160006Ev, symObjAddr: 0xF698, symBinAddr: 0x1000134F4, symSize: 0x28 }
  - { offsetInCU: 0x1C5E1, offset: 0x35737, size: 0x8, addend: 0x0, symName: __ZNSt3__115__tree_iteratorINS_12basic_stringIcNS_11char_traitsIcEENS_9allocatorIcEEEEPNS_11__tree_nodeIS6_PvEElEC1B7v160006EPNS_15__tree_end_nodeIPNS_16__tree_node_baseIS8_EEEE, symObjAddr: 0xF6C0, symBinAddr: 0x10001351C, symSize: 0x34 }
  - { offsetInCU: 0x1C618, offset: 0x3576E, size: 0x8, addend: 0x0, symName: __ZNSt3__115__tree_iteratorINS_12basic_stringIcNS_11char_traitsIcEENS_9allocatorIcEEEEPNS_11__tree_nodeIS6_PvEElEC2B7v160006EPNS_15__tree_end_nodeIPNS_16__tree_node_baseIS8_EEEE, symObjAddr: 0xF6F4, symBinAddr: 0x100013550, symSize: 0x20 }
  - { offsetInCU: 0x1C64F, offset: 0x357A5, size: 0x8, addend: 0x0, symName: __ZNKSt3__115__tree_iteratorINS_12basic_stringIcNS_11char_traitsIcEENS_9allocatorIcEEEEPNS_11__tree_nodeIS6_PvEElE8__get_npB7v160006Ev, symObjAddr: 0xF714, symBinAddr: 0x100013570, symSize: 0x18 }
  - { offsetInCU: 0x1C673, offset: 0x357C9, size: 0x8, addend: 0x0, symName: __ZNKSt3__121__tree_const_iteratorINS_12basic_stringIcNS_11char_traitsIcEENS_9allocatorIcEEEEPNS_11__tree_nodeIS6_PvEElE8__get_npB7v160006Ev, symObjAddr: 0xF72C, symBinAddr: 0x100013588, symSize: 0x18 }
  - { offsetInCU: 0x1C697, offset: 0x357ED, size: 0x8, addend: 0x0, symName: __ZNSt3__16__treeINS_12basic_stringIcNS_11char_traitsIcEENS_9allocatorIcEEEENS_4lessIS6_EENS4_IS6_EEE21__remove_node_pointerEPNS_11__tree_nodeIS6_PvEE, symObjAddr: 0xF744, symBinAddr: 0x1000135A0, symSize: 0xB4 }
  - { offsetInCU: 0x1C6DB, offset: 0x35831, size: 0x8, addend: 0x0, symName: __ZNSt3__115__tree_iteratorINS_12basic_stringIcNS_11char_traitsIcEENS_9allocatorIcEEEEPNS_11__tree_nodeIS6_PvEElEppB7v160006Ev, symObjAddr: 0xF7F8, symBinAddr: 0x100013654, symSize: 0x38 }
  - { offsetInCU: 0x1C6FF, offset: 0x35855, size: 0x8, addend: 0x0, symName: __ZNSt3__16__treeINS_12basic_stringIcNS_11char_traitsIcEENS_9allocatorIcEEEENS_4lessIS6_EENS4_IS6_EEE5beginB7v160006Ev, symObjAddr: 0x10050, symBinAddr: 0x100013EAC, symSize: 0x34 }
  - { offsetInCU: 0x4534, offset: 0x3A040, size: 0x8, addend: 0x0, symName: __ZNSt3__17advanceB7v160006IP5EntryllvEEvRT_T0_, symObjAddr: 0x2CE4, symBinAddr: 0x1000165DC, symSize: 0x50 }
  - { offsetInCU: 0x47BA, offset: 0x3A2C6, size: 0x8, addend: 0x0, symName: __ZNSt3__17advanceB7v160006INS_16reverse_iteratorIP5EntryEEllvEEvRT_T0_, symObjAddr: 0x30DC, symBinAddr: 0x1000169C0, symSize: 0x50 }
  - { offsetInCU: 0x5C6E, offset: 0x3B77A, size: 0x8, addend: 0x0, symName: __ZNSt3__1neB7v160006IP5EntryEEbRKNS_11__wrap_iterIT_EES7_, symObjAddr: 0x7E8, symBinAddr: 0x1000146F8, symSize: 0x34 }
  - { offsetInCU: 0x5CB1, offset: 0x3B7BD, size: 0x8, addend: 0x0, symName: __ZNSt3__1eqB7v160006IP5EntryEEbRKNS_11__wrap_iterIT_EES7_, symObjAddr: 0xF44, symBinAddr: 0x100014D08, symSize: 0x48 }
  - { offsetInCU: 0x5CF4, offset: 0x3B800, size: 0x8, addend: 0x0, symName: __ZNSt3__118__debug_db_erase_cB7v160006INS_6vectorI5EntryNS_9allocatorIS2_EEEEEEvPT_, symObjAddr: 0x1190, symBinAddr: 0x100014F54, symSize: 0x10 }
  - { offsetInCU: 0x5D25, offset: 0x3B831, size: 0x8, addend: 0x0, symName: __ZNSt3__112__to_addressB7v160006I5EntryEEPT_S3_, symObjAddr: 0x12D4, symBinAddr: 0x100015098, symSize: 0x14 }
  - { offsetInCU: 0x5D5A, offset: 0x3B866, size: 0x8, addend: 0x0, symName: __ZNSt3__110destroy_atB7v160006I5EntryLi0EEEvPT_, symObjAddr: 0x139C, symBinAddr: 0x100015160, symSize: 0x24 }
  - { offsetInCU: 0x5D93, offset: 0x3B89F, size: 0x8, addend: 0x0, symName: __ZNSt3__112__destroy_atB7v160006I5EntryLi0EEEvPT_, symObjAddr: 0x13C0, symBinAddr: 0x100015184, symSize: 0x24 }
  - { offsetInCU: 0x5DCC, offset: 0x3B8D8, size: 0x8, addend: 0x0, symName: __ZNSt3__119__debug_db_insert_cB7v160006INS_6vectorI5EntryNS_9allocatorIS2_EEEEEEvPT_, symObjAddr: 0x1868, symBinAddr: 0x100015504, symSize: 0x10 }
  - { offsetInCU: 0x5E24, offset: 0x3B930, size: 0x8, addend: 0x0, symName: __ZNSt3__112construct_atB7v160006I5EntryJRKS1_EPS1_EEPT_S6_DpOT0_, symObjAddr: 0x1BE4, symBinAddr: 0x100015880, symSize: 0x3C }
  - { offsetInCU: 0x5E99, offset: 0x3B9A5, size: 0x8, addend: 0x0, symName: __ZNSt3__119__allocate_at_leastB7v160006INS_9allocatorI5EntryEEEENS_19__allocation_resultINS_16allocator_traitsIT_E7pointerEEERS6_m, symObjAddr: 0x22E0, symBinAddr: 0x100015D2C, symSize: 0x40 }
  - { offsetInCU: 0x5EDC, offset: 0x3B9E8, size: 0x8, addend: 0x0, symName: __ZNSt3__142__uninitialized_allocator_move_if_noexceptB7v160006INS_9allocatorI5EntryEENS_16reverse_iteratorIPS2_EES6_S6_EET2_RT_T0_T1_S7_, symObjAddr: 0x2578, symBinAddr: 0x100015EE0, symSize: 0x12C }
  - { offsetInCU: 0x5F7C, offset: 0x3BA88, size: 0x8, addend: 0x0, symName: __ZNSt3__14swapB7v160006IP5EntryEENS_9enable_ifIXaasr21is_move_constructibleIT_EE5valuesr18is_move_assignableIS4_EE5valueEvE4typeERS4_S7_, symObjAddr: 0x26F0, symBinAddr: 0x100016058, symSize: 0x3C }
  - { offsetInCU: 0x5FCE, offset: 0x3BADA, size: 0x8, addend: 0x0, symName: __ZNSt3__125__debug_db_invalidate_allB7v160006INS_6vectorI5EntryNS_9allocatorIS2_EEEEEEvPT_, symObjAddr: 0x27D8, symBinAddr: 0x100016140, symSize: 0x10 }
  - { offsetInCU: 0x5FFF, offset: 0x3BB0B, size: 0x8, addend: 0x0, symName: __ZNSt3__122__make_exception_guardB7v160006INS_29_AllocatorDestroyRangeReverseINS_9allocatorI5EntryEENS_16reverse_iteratorIPS3_EEEEEENS_28__exception_guard_exceptionsIT_EESA_, symObjAddr: 0x27E8, symBinAddr: 0x100016150, symSize: 0x4C }
  - { offsetInCU: 0x6035, offset: 0x3BB41, size: 0x8, addend: 0x0, symName: __ZNSt3__1neB7v160006IP5EntryS2_EEbRKNS_16reverse_iteratorIT_EERKNS3_IT0_EE, symObjAddr: 0x2878, symBinAddr: 0x1000161E0, symSize: 0x48 }
  - { offsetInCU: 0x6081, offset: 0x3BB8D, size: 0x8, addend: 0x0, symName: __ZNSt3__112__to_addressB7v160006INS_16reverse_iteratorIP5EntryEEvEENS_5decayIDTclsr19__to_address_helperIT_EE6__callclsr3stdE7declvalIRKS6_EEEEE4typeES8_, symObjAddr: 0x28F0, symBinAddr: 0x100016258, symSize: 0x24 }
  - { offsetInCU: 0x60B8, offset: 0x3BBC4, size: 0x8, addend: 0x0, symName: __ZNSt3__112construct_atB7v160006I5EntryJS1_EPS1_EEPT_S4_DpOT0_, symObjAddr: 0x2A40, symBinAddr: 0x1000163A8, symSize: 0x3C }
  - { offsetInCU: 0x612D, offset: 0x3BC39, size: 0x8, addend: 0x0, symName: __ZNSt3__115__debug_db_swapB7v160006INS_12basic_stringIcNS_11char_traitsIcEENS_9allocatorIcEEEEEEvPT_S8_, symObjAddr: 0x2BE4, symBinAddr: 0x100016514, symSize: 0x14 }
  - { offsetInCU: 0x6196, offset: 0x3BCA2, size: 0x8, addend: 0x0, symName: __ZNSt3__14prevB7v160006IP5EntryEENS_9enable_ifIXsr25__is_cpp17_input_iteratorIT_EE5valueES4_E4typeES4_NS_15iterator_traitsIS4_E15difference_typeE, symObjAddr: 0x2C94, symBinAddr: 0x10001658C, symSize: 0x50 }
  - { offsetInCU: 0x61D9, offset: 0x3BCE5, size: 0x8, addend: 0x0, symName: __ZNSt3__19__advanceB7v160006IP5EntryEEvRT_NS_15iterator_traitsIS3_E15difference_typeENS_26random_access_iterator_tagE, symObjAddr: 0x2D48, symBinAddr: 0x10001662C, symSize: 0x28 }
  - { offsetInCU: 0x6222, offset: 0x3BD2E, size: 0x8, addend: 0x0, symName: __ZNSt3__119__allocator_destroyB7v160006INS_9allocatorI5EntryEENS_16reverse_iteratorINS4_IPS2_EEEES7_EEvRT_T0_T1_, symObjAddr: 0x2E74, symBinAddr: 0x100016758, symSize: 0x70 }
  - { offsetInCU: 0x6288, offset: 0x3BD94, size: 0x8, addend: 0x0, symName: __ZNSt3__1neB7v160006INS_16reverse_iteratorIP5EntryEES4_EEbRKNS1_IT_EERKNS1_IT0_EE, symObjAddr: 0x2F20, symBinAddr: 0x100016804, symSize: 0x60 }
  - { offsetInCU: 0x62D4, offset: 0x3BDE0, size: 0x8, addend: 0x0, symName: __ZNSt3__112__to_addressB7v160006INS_16reverse_iteratorINS1_IP5EntryEEEEvEENS_5decayIDTclsr19__to_address_helperIT_EE6__callclsr3stdE7declvalIRKS7_EEEEE4typeES9_, symObjAddr: 0x2F80, symBinAddr: 0x100016864, symSize: 0x24 }
  - { offsetInCU: 0x6335, offset: 0x3BE41, size: 0x8, addend: 0x0, symName: __ZNSt3__14prevB7v160006INS_16reverse_iteratorIP5EntryEEEENS_9enable_ifIXsr25__is_cpp17_input_iteratorIT_EE5valueES6_E4typeES6_NS_15iterator_traitsIS6_E15difference_typeE, symObjAddr: 0x307C, symBinAddr: 0x100016960, symSize: 0x60 }
  - { offsetInCU: 0x6378, offset: 0x3BE84, size: 0x8, addend: 0x0, symName: __ZNSt3__19__advanceB7v160006INS_16reverse_iteratorIP5EntryEEEEvRT_NS_15iterator_traitsIS5_E15difference_typeENS_26random_access_iterator_tagE, symObjAddr: 0x312C, symBinAddr: 0x100016A10, symSize: 0x2C }
  - { offsetInCU: 0x6938, offset: 0x3C444, size: 0x8, addend: 0x0, symName: __ZNSt3__16vectorI5EntryNS_9allocatorIS1_EEE26__swap_out_circular_bufferERNS_14__split_bufferIS1_RS3_EE, symObjAddr: 0x1D38, symBinAddr: 0x1000159D4, symSize: 0x118 }
  - { offsetInCU: 0x8A93, offset: 0x3E59F, size: 0x8, addend: 0x0, symName: __ZN9HashTableC2Em, symObjAddr: 0x0, symBinAddr: 0x100013F10, symSize: 0x164 }
  - { offsetInCU: 0x8ACB, offset: 0x3E5D7, size: 0x8, addend: 0x0, symName: __ZN10LinkedListI5EntryEC1Ev, symObjAddr: 0x164, symBinAddr: 0x100014074, symSize: 0x2C }
  - { offsetInCU: 0x8AF5, offset: 0x3E601, size: 0x8, addend: 0x0, symName: __ZN10LinkedListI5EntryED1Ev, symObjAddr: 0x190, symBinAddr: 0x1000140A0, symSize: 0x2C }
  - { offsetInCU: 0x8B1F, offset: 0x3E62B, size: 0x8, addend: 0x0, symName: __ZN9HashTableC1Em, symObjAddr: 0x1BC, symBinAddr: 0x1000140CC, symSize: 0x34 }
  - { offsetInCU: 0x8B57, offset: 0x3E663, size: 0x8, addend: 0x0, symName: __ZNK9HashTable4hashEi, symObjAddr: 0x1F0, symBinAddr: 0x100014100, symSize: 0x34 }
  - { offsetInCU: 0x8B9B, offset: 0x3E6A7, size: 0x8, addend: 0x0, symName: __ZN9HashTable3putEiNSt3__112basic_stringIcNS0_11char_traitsIcEENS0_9allocatorIcEEEE, symObjAddr: 0x224, symBinAddr: 0x100014134, symSize: 0xE4 }
  - { offsetInCU: 0x8BFC, offset: 0x3E708, size: 0x8, addend: 0x0, symName: __ZN10LinkedListI5EntryE7addLastES0_, symObjAddr: 0x308, symBinAddr: 0x100014218, symSize: 0x144 }
  - { offsetInCU: 0x8C59, offset: 0x3E765, size: 0x8, addend: 0x0, symName: __ZN5EntryC1ERKS_, symObjAddr: 0x44C, symBinAddr: 0x10001435C, symSize: 0x34 }
  - { offsetInCU: 0x8C8C, offset: 0x3E798, size: 0x8, addend: 0x0, symName: __ZN5EntryD1Ev, symObjAddr: 0x480, symBinAddr: 0x100014390, symSize: 0x2C }
  - { offsetInCU: 0x8CB6, offset: 0x3E7C2, size: 0x8, addend: 0x0, symName: __ZNK9HashTable3getEi, symObjAddr: 0x4AC, symBinAddr: 0x1000143BC, symSize: 0x1D8 }
  - { offsetInCU: 0x8D5D, offset: 0x3E869, size: 0x8, addend: 0x0, symName: __ZNSt3__112basic_stringIcNS_11char_traitsIcEENS_9allocatorIcEEEC1B7v160006Ev, symObjAddr: 0x684, symBinAddr: 0x100014594, symSize: 0x2C }
  - { offsetInCU: 0x8D85, offset: 0x3E891, size: 0x8, addend: 0x0, symName: __ZNK10LinkedListI5EntryE7toArrayEv, symObjAddr: 0x6B0, symBinAddr: 0x1000145C0, symSize: 0xD8 }
  - { offsetInCU: 0x8DCA, offset: 0x3E8D6, size: 0x8, addend: 0x0, symName: __ZNSt3__16vectorI5EntryNS_9allocatorIS1_EEE5beginB7v160006Ev, symObjAddr: 0x788, symBinAddr: 0x100014698, symSize: 0x30 }
  - { offsetInCU: 0x8DF0, offset: 0x3E8FC, size: 0x8, addend: 0x0, symName: __ZNSt3__16vectorI5EntryNS_9allocatorIS1_EEE3endB7v160006Ev, symObjAddr: 0x7B8, symBinAddr: 0x1000146C8, symSize: 0x30 }
  - { offsetInCU: 0x8E16, offset: 0x3E922, size: 0x8, addend: 0x0, symName: __ZNKSt3__111__wrap_iterIP5EntryEdeB7v160006Ev, symObjAddr: 0x81C, symBinAddr: 0x10001472C, symSize: 0x18 }
  - { offsetInCU: 0x8E3A, offset: 0x3E946, size: 0x8, addend: 0x0, symName: __ZNSt3__111__wrap_iterIP5EntryEppB7v160006Ev, symObjAddr: 0x834, symBinAddr: 0x100014744, symSize: 0x20 }
  - { offsetInCU: 0x8E5E, offset: 0x3E96A, size: 0x8, addend: 0x0, symName: __ZNSt3__16vectorI5EntryNS_9allocatorIS1_EEED1B7v160006Ev, symObjAddr: 0x854, symBinAddr: 0x100014764, symSize: 0x2C }
  - { offsetInCU: 0x8E86, offset: 0x3E992, size: 0x8, addend: 0x0, symName: __ZNK9HashTable6removeEi, symObjAddr: 0x880, symBinAddr: 0x100014790, symSize: 0x170 }
  - { offsetInCU: 0x8F33, offset: 0x3EA3F, size: 0x8, addend: 0x0, symName: __ZN10LinkedListI5EntryE8removeAtEi, symObjAddr: 0x9F0, symBinAddr: 0x100014900, symSize: 0x268 }
  - { offsetInCU: 0x8FB3, offset: 0x3EABF, size: 0x8, addend: 0x0, symName: __ZN5EntryC2ERKS_, symObjAddr: 0xC58, symBinAddr: 0x100014B68, symSize: 0x48 }
  - { offsetInCU: 0x8FE6, offset: 0x3EAF2, size: 0x8, addend: 0x0, symName: __ZN5EntryD2Ev, symObjAddr: 0xCA0, symBinAddr: 0x100014BB0, symSize: 0x30 }
  - { offsetInCU: 0x9010, offset: 0x3EB1C, size: 0x8, addend: 0x0, symName: __ZNSt3__112basic_stringIcNS_11char_traitsIcEENS_9allocatorIcEEEC2B7v160006Ev, symObjAddr: 0xCD0, symBinAddr: 0x100014BE0, symSize: 0x54 }
  - { offsetInCU: 0x903D, offset: 0x3EB49, size: 0x8, addend: 0x0, symName: __ZNSt3__112basic_stringIcNS_11char_traitsIcEENS_9allocatorIcEEE14__default_initB7v160006Ev, symObjAddr: 0xD7C, symBinAddr: 0x100014C34, symSize: 0x40 }
  - { offsetInCU: 0x9061, offset: 0x3EB6D, size: 0x8, addend: 0x0, symName: __ZNSt3__16vectorI5EntryNS_9allocatorIS1_EEE11__make_iterB7v160006EPS1_, symObjAddr: 0xEB0, symBinAddr: 0x100014C74, symSize: 0x34 }
  - { offsetInCU: 0x9094, offset: 0x3EBA0, size: 0x8, addend: 0x0, symName: __ZNSt3__111__wrap_iterIP5EntryEC1B7v160006EPKvS2_, symObjAddr: 0xEE4, symBinAddr: 0x100014CA8, symSize: 0x3C }
  - { offsetInCU: 0x90D8, offset: 0x3EBE4, size: 0x8, addend: 0x0, symName: __ZNSt3__111__wrap_iterIP5EntryEC2B7v160006EPKvS2_, symObjAddr: 0xF20, symBinAddr: 0x100014CE4, symSize: 0x24 }
  - { offsetInCU: 0x911C, offset: 0x3EC28, size: 0x8, addend: 0x0, symName: __ZNKSt3__111__wrap_iterIP5EntryE4baseB7v160006Ev, symObjAddr: 0xF8C, symBinAddr: 0x100014D50, symSize: 0x18 }
  - { offsetInCU: 0x9140, offset: 0x3EC4C, size: 0x8, addend: 0x0, symName: __ZNSt3__16vectorI5EntryNS_9allocatorIS1_EEED2B7v160006Ev, symObjAddr: 0xFA4, symBinAddr: 0x100014D68, symSize: 0x44 }
  - { offsetInCU: 0x9168, offset: 0x3EC74, size: 0x8, addend: 0x0, symName: __ZNSt3__16vectorI5EntryNS_9allocatorIS1_EEE16__destroy_vectorC1ERS4_, symObjAddr: 0xFE8, symBinAddr: 0x100014DAC, symSize: 0x34 }
  - { offsetInCU: 0x919F, offset: 0x3ECAB, size: 0x8, addend: 0x0, symName: __ZNSt3__16vectorI5EntryNS_9allocatorIS1_EEE16__destroy_vectorclB7v160006Ev, symObjAddr: 0x101C, symBinAddr: 0x100014DE0, symSize: 0x9C }
  - { offsetInCU: 0x91C3, offset: 0x3ECCF, size: 0x8, addend: 0x0, symName: __ZNSt3__16vectorI5EntryNS_9allocatorIS1_EEE16__destroy_vectorC2ERS4_, symObjAddr: 0x10B8, symBinAddr: 0x100014E7C, symSize: 0x20 }
  - { offsetInCU: 0x91FA, offset: 0x3ED06, size: 0x8, addend: 0x0, symName: __ZNKSt3__16vectorI5EntryNS_9allocatorIS1_EEE17__annotate_deleteB7v160006Ev, symObjAddr: 0x10D8, symBinAddr: 0x100014E9C, symSize: 0xB8 }
  - { offsetInCU: 0x921E, offset: 0x3ED2A, size: 0x8, addend: 0x0, symName: __ZNSt3__16vectorI5EntryNS_9allocatorIS1_EEE7__clearB7v160006Ev, symObjAddr: 0x11A0, symBinAddr: 0x100014F64, symSize: 0x28 }
  - { offsetInCU: 0x9242, offset: 0x3ED4E, size: 0x8, addend: 0x0, symName: __ZNSt3__116allocator_traitsINS_9allocatorI5EntryEEE10deallocateB7v160006ERS3_PS2_m, symObjAddr: 0x11C8, symBinAddr: 0x100014F8C, symSize: 0x34 }
  - { offsetInCU: 0x9283, offset: 0x3ED8F, size: 0x8, addend: 0x0, symName: __ZNSt3__16vectorI5EntryNS_9allocatorIS1_EEE7__allocB7v160006Ev, symObjAddr: 0x11FC, symBinAddr: 0x100014FC0, symSize: 0x28 }
  - { offsetInCU: 0x92A7, offset: 0x3EDB3, size: 0x8, addend: 0x0, symName: __ZNKSt3__16vectorI5EntryNS_9allocatorIS1_EEE8capacityB7v160006Ev, symObjAddr: 0x1224, symBinAddr: 0x100014FE8, symSize: 0x40 }
  - { offsetInCU: 0x92CB, offset: 0x3EDD7, size: 0x8, addend: 0x0, symName: __ZNKSt3__16vectorI5EntryNS_9allocatorIS1_EEE31__annotate_contiguous_containerB7v160006EPKvS6_S6_S6_, symObjAddr: 0x1264, symBinAddr: 0x100015028, symSize: 0x20 }
  - { offsetInCU: 0x931F, offset: 0x3EE2B, size: 0x8, addend: 0x0, symName: __ZNKSt3__16vectorI5EntryNS_9allocatorIS1_EEE4dataB7v160006Ev, symObjAddr: 0x1284, symBinAddr: 0x100015048, symSize: 0x28 }
  - { offsetInCU: 0x9343, offset: 0x3EE4F, size: 0x8, addend: 0x0, symName: __ZNKSt3__16vectorI5EntryNS_9allocatorIS1_EEE4sizeB7v160006Ev, symObjAddr: 0x12AC, symBinAddr: 0x100015070, symSize: 0x28 }
  - { offsetInCU: 0x9367, offset: 0x3EE73, size: 0x8, addend: 0x0, symName: __ZNSt3__16vectorI5EntryNS_9allocatorIS1_EEE22__base_destruct_at_endB7v160006EPS1_, symObjAddr: 0x12E8, symBinAddr: 0x1000150AC, symSize: 0x8C }
  - { offsetInCU: 0x93A9, offset: 0x3EEB5, size: 0x8, addend: 0x0, symName: __ZNSt3__116allocator_traitsINS_9allocatorI5EntryEEE7destroyB7v160006IS2_vvEEvRS3_PT_, symObjAddr: 0x1374, symBinAddr: 0x100015138, symSize: 0x28 }
  - { offsetInCU: 0x93E5, offset: 0x3EEF1, size: 0x8, addend: 0x0, symName: __ZNSt3__19allocatorI5EntryE10deallocateB7v160006EPS1_m, symObjAddr: 0x13E4, symBinAddr: 0x1000151A8, symSize: 0x40 }
  - { offsetInCU: 0x9425, offset: 0x3EF31, size: 0x8, addend: 0x0, symName: __ZNSt3__117__compressed_pairIP5EntryNS_9allocatorIS1_EEE6secondB7v160006Ev, symObjAddr: 0x154C, symBinAddr: 0x1000151E8, symSize: 0x24 }
  - { offsetInCU: 0x9449, offset: 0x3EF55, size: 0x8, addend: 0x0, symName: __ZNSt3__122__compressed_pair_elemINS_9allocatorI5EntryEELi1ELb1EE5__getB7v160006Ev, symObjAddr: 0x1570, symBinAddr: 0x10001520C, symSize: 0x14 }
  - { offsetInCU: 0x946D, offset: 0x3EF79, size: 0x8, addend: 0x0, symName: __ZNKSt3__16vectorI5EntryNS_9allocatorIS1_EEE9__end_capB7v160006Ev, symObjAddr: 0x1584, symBinAddr: 0x100015220, symSize: 0x28 }
  - { offsetInCU: 0x9491, offset: 0x3EF9D, size: 0x8, addend: 0x0, symName: __ZNKSt3__117__compressed_pairIP5EntryNS_9allocatorIS1_EEE5firstB7v160006Ev, symObjAddr: 0x15AC, symBinAddr: 0x100015248, symSize: 0x24 }
  - { offsetInCU: 0x94B5, offset: 0x3EFC1, size: 0x8, addend: 0x0, symName: __ZNKSt3__122__compressed_pair_elemIP5EntryLi0ELb0EE5__getB7v160006Ev, symObjAddr: 0x15D0, symBinAddr: 0x10001526C, symSize: 0x14 }
  - { offsetInCU: 0x94D9, offset: 0x3EFE5, size: 0x8, addend: 0x0, symName: __ZN10LinkedListI5EntryEC2Ev, symObjAddr: 0x15E4, symBinAddr: 0x100015280, symSize: 0x18 }
  - { offsetInCU: 0x9504, offset: 0x3F010, size: 0x8, addend: 0x0, symName: __ZN10LinkedListI5EntryED2Ev, symObjAddr: 0x15FC, symBinAddr: 0x100015298, symSize: 0x64 }
  - { offsetInCU: 0x952E, offset: 0x3F03A, size: 0x8, addend: 0x0, symName: __ZN4NodeI5EntryED1Ev, symObjAddr: 0x1660, symBinAddr: 0x1000152FC, symSize: 0x2C }
  - { offsetInCU: 0x9558, offset: 0x3F064, size: 0x8, addend: 0x0, symName: __ZN4NodeI5EntryED2Ev, symObjAddr: 0x168C, symBinAddr: 0x100015328, symSize: 0x30 }
  - { offsetInCU: 0x9582, offset: 0x3F08E, size: 0x8, addend: 0x0, symName: __ZN4NodeI5EntryEC1ES0_PS1_, symObjAddr: 0x16BC, symBinAddr: 0x100015358, symSize: 0x3C }
  - { offsetInCU: 0x95C9, offset: 0x3F0D5, size: 0x8, addend: 0x0, symName: __ZN4NodeI5EntryEC2ES0_PS1_, symObjAddr: 0x16F8, symBinAddr: 0x100015394, symSize: 0x44 }
  - { offsetInCU: 0x9610, offset: 0x3F11C, size: 0x8, addend: 0x0, symName: __ZNSt3__16vectorI5EntryNS_9allocatorIS1_EEEC1B7v160006Ev, symObjAddr: 0x173C, symBinAddr: 0x1000153D8, symSize: 0x2C }
  - { offsetInCU: 0x9638, offset: 0x3F144, size: 0x8, addend: 0x0, symName: __ZNSt3__16vectorI5EntryNS_9allocatorIS1_EEE9push_backB7v160006ERKS1_, symObjAddr: 0x1768, symBinAddr: 0x100015404, symSize: 0x6C }
  - { offsetInCU: 0x966D, offset: 0x3F179, size: 0x8, addend: 0x0, symName: __ZNSt3__16vectorI5EntryNS_9allocatorIS1_EEEC2B7v160006Ev, symObjAddr: 0x17D4, symBinAddr: 0x100015470, symSize: 0x58 }
  - { offsetInCU: 0x969A, offset: 0x3F1A6, size: 0x8, addend: 0x0, symName: __ZNSt3__117__compressed_pairIP5EntryNS_9allocatorIS1_EEEC1B7v160006IDnNS_18__default_init_tagEEEOT_OT0_, symObjAddr: 0x182C, symBinAddr: 0x1000154C8, symSize: 0x3C }
  - { offsetInCU: 0x96F0, offset: 0x3F1FC, size: 0x8, addend: 0x0, symName: __ZNSt3__117__compressed_pairIP5EntryNS_9allocatorIS1_EEEC2B7v160006IDnNS_18__default_init_tagEEEOT_OT0_, symObjAddr: 0x1878, symBinAddr: 0x100015514, symSize: 0x40 }
  - { offsetInCU: 0x9746, offset: 0x3F252, size: 0x8, addend: 0x0, symName: __ZNSt3__122__compressed_pair_elemIP5EntryLi0ELb0EEC2B7v160006IDnvEEOT_, symObjAddr: 0x18B8, symBinAddr: 0x100015554, symSize: 0x1C }
  - { offsetInCU: 0x9787, offset: 0x3F293, size: 0x8, addend: 0x0, symName: __ZNSt3__122__compressed_pair_elemINS_9allocatorI5EntryEELi1ELb1EEC2B7v160006ENS_18__default_init_tagE, symObjAddr: 0x18D4, symBinAddr: 0x100015570, symSize: 0x2C }
  - { offsetInCU: 0x97B9, offset: 0x3F2C5, size: 0x8, addend: 0x0, symName: __ZNSt3__19allocatorI5EntryEC2B7v160006Ev, symObjAddr: 0x1900, symBinAddr: 0x10001559C, symSize: 0x2C }
  - { offsetInCU: 0x97E1, offset: 0x3F2ED, size: 0x8, addend: 0x0, symName: __ZNSt3__116__non_trivial_ifILb1ENS_9allocatorI5EntryEEEC2B7v160006Ev, symObjAddr: 0x192C, symBinAddr: 0x1000155C8, symSize: 0x14 }
  - { offsetInCU: 0x9809, offset: 0x3F315, size: 0x8, addend: 0x0, symName: __ZNSt3__16vectorI5EntryNS_9allocatorIS1_EEE9__end_capB7v160006Ev, symObjAddr: 0x1940, symBinAddr: 0x1000155DC, symSize: 0x28 }
  - { offsetInCU: 0x982D, offset: 0x3F339, size: 0x8, addend: 0x0, symName: __ZNSt3__16vectorI5EntryNS_9allocatorIS1_EEE22__construct_one_at_endB7v160006IJRKS1_EEEvDpOT_, symObjAddr: 0x1968, symBinAddr: 0x100015604, symSize: 0x90 }
  - { offsetInCU: 0x987C, offset: 0x3F388, size: 0x8, addend: 0x0, symName: __ZNSt3__16vectorI5EntryNS_9allocatorIS1_EEE21__push_back_slow_pathIRKS1_EEvOT_, symObjAddr: 0x19F8, symBinAddr: 0x100015694, symSize: 0xD8 }
  - { offsetInCU: 0x98D8, offset: 0x3F3E4, size: 0x8, addend: 0x0, symName: __ZNSt3__117__compressed_pairIP5EntryNS_9allocatorIS1_EEE5firstB7v160006Ev, symObjAddr: 0x1AD0, symBinAddr: 0x10001576C, symSize: 0x24 }
  - { offsetInCU: 0x98FC, offset: 0x3F408, size: 0x8, addend: 0x0, symName: __ZNSt3__122__compressed_pair_elemIP5EntryLi0ELb0EE5__getB7v160006Ev, symObjAddr: 0x1AF4, symBinAddr: 0x100015790, symSize: 0x14 }
  - { offsetInCU: 0x9939, offset: 0x3F445, size: 0x8, addend: 0x0, symName: __ZNSt3__16vectorI5EntryNS_9allocatorIS1_EEE21_ConstructTransactionC1B7v160006ERS4_m, symObjAddr: 0x1B08, symBinAddr: 0x1000157A4, symSize: 0x3C }
  - { offsetInCU: 0x997F, offset: 0x3F48B, size: 0x8, addend: 0x0, symName: __ZNSt3__116allocator_traitsINS_9allocatorI5EntryEEE9constructB7v160006IS2_JRKS2_EvvEEvRS3_PT_DpOT0_, symObjAddr: 0x1B44, symBinAddr: 0x1000157E0, symSize: 0x30 }
  - { offsetInCU: 0x99D7, offset: 0x3F4E3, size: 0x8, addend: 0x0, symName: __ZNSt3__16vectorI5EntryNS_9allocatorIS1_EEE21_ConstructTransactionD1B7v160006Ev, symObjAddr: 0x1B74, symBinAddr: 0x100015810, symSize: 0x2C }
  - { offsetInCU: 0x99FF, offset: 0x3F50B, size: 0x8, addend: 0x0, symName: __ZNSt3__16vectorI5EntryNS_9allocatorIS1_EEE21_ConstructTransactionC2B7v160006ERS4_m, symObjAddr: 0x1BA0, symBinAddr: 0x10001583C, symSize: 0x44 }
  - { offsetInCU: 0x9A45, offset: 0x3F551, size: 0x8, addend: 0x0, symName: __ZNSt3__16vectorI5EntryNS_9allocatorIS1_EEE21_ConstructTransactionD2B7v160006Ev, symObjAddr: 0x1C20, symBinAddr: 0x1000158BC, symSize: 0x20 }
  - { offsetInCU: 0x9A6D, offset: 0x3F579, size: 0x8, addend: 0x0, symName: __ZNKSt3__16vectorI5EntryNS_9allocatorIS1_EEE11__recommendB7v160006Em, symObjAddr: 0x1C40, symBinAddr: 0x1000158DC, symSize: 0xB4 }
  - { offsetInCU: 0x9AC0, offset: 0x3F5CC, size: 0x8, addend: 0x0, symName: __ZNSt3__114__split_bufferI5EntryRNS_9allocatorIS1_EEEC1EmmS4_, symObjAddr: 0x1CF4, symBinAddr: 0x100015990, symSize: 0x44 }
  - { offsetInCU: 0x9B15, offset: 0x3F621, size: 0x8, addend: 0x0, symName: __ZNSt3__114__split_bufferI5EntryRNS_9allocatorIS1_EEED1Ev, symObjAddr: 0x1E50, symBinAddr: 0x100015AEC, symSize: 0x2C }
  - { offsetInCU: 0x9B40, offset: 0x3F64C, size: 0x8, addend: 0x0, symName: __ZNKSt3__16vectorI5EntryNS_9allocatorIS1_EEE8max_sizeEv, symObjAddr: 0x1E7C, symBinAddr: 0x100015B18, symSize: 0x60 }
  - { offsetInCU: 0x9B66, offset: 0x3F672, size: 0x8, addend: 0x0, symName: __ZNKSt3__16vectorI5EntryNS_9allocatorIS1_EEE20__throw_length_errorB7v160006Ev, symObjAddr: 0x1EDC, symBinAddr: 0x100015B78, symSize: 0x1C }
  - { offsetInCU: 0x9B94, offset: 0x3F6A0, size: 0x8, addend: 0x0, symName: __ZNSt3__116allocator_traitsINS_9allocatorI5EntryEEE8max_sizeB7v160006IS3_vvEEmRKS3_, symObjAddr: 0x1F50, symBinAddr: 0x100015B94, symSize: 0x28 }
  - { offsetInCU: 0x9BC1, offset: 0x3F6CD, size: 0x8, addend: 0x0, symName: __ZNKSt3__16vectorI5EntryNS_9allocatorIS1_EEE7__allocB7v160006Ev, symObjAddr: 0x1F78, symBinAddr: 0x100015BBC, symSize: 0x28 }
  - { offsetInCU: 0x9BE5, offset: 0x3F6F1, size: 0x8, addend: 0x0, symName: __ZNKSt3__117__compressed_pairIP5EntryNS_9allocatorIS1_EEE6secondB7v160006Ev, symObjAddr: 0x2058, symBinAddr: 0x100015BE4, symSize: 0x24 }
  - { offsetInCU: 0x9C09, offset: 0x3F715, size: 0x8, addend: 0x0, symName: __ZNKSt3__122__compressed_pair_elemINS_9allocatorI5EntryEELi1ELb1EE5__getB7v160006Ev, symObjAddr: 0x207C, symBinAddr: 0x100015C08, symSize: 0x14 }
  - { offsetInCU: 0x9C2D, offset: 0x3F739, size: 0x8, addend: 0x0, symName: __ZNSt3__114__split_bufferI5EntryRNS_9allocatorIS1_EEEC2EmmS4_, symObjAddr: 0x21D0, symBinAddr: 0x100015C1C, symSize: 0xD4 }
  - { offsetInCU: 0x9CA0, offset: 0x3F7AC, size: 0x8, addend: 0x0, symName: __ZNSt3__117__compressed_pairIP5EntryRNS_9allocatorIS1_EEEC1B7v160006IDnS5_EEOT_OT0_, symObjAddr: 0x22A4, symBinAddr: 0x100015CF0, symSize: 0x3C }
  - { offsetInCU: 0x9CF6, offset: 0x3F802, size: 0x8, addend: 0x0, symName: __ZNSt3__114__split_bufferI5EntryRNS_9allocatorIS1_EEE7__allocB7v160006Ev, symObjAddr: 0x2320, symBinAddr: 0x100015D6C, symSize: 0x28 }
  - { offsetInCU: 0x9D1A, offset: 0x3F826, size: 0x8, addend: 0x0, symName: __ZNSt3__114__split_bufferI5EntryRNS_9allocatorIS1_EEE9__end_capB7v160006Ev, symObjAddr: 0x2348, symBinAddr: 0x100015D94, symSize: 0x28 }
  - { offsetInCU: 0x9D3E, offset: 0x3F84A, size: 0x8, addend: 0x0, symName: __ZNSt3__117__compressed_pairIP5EntryRNS_9allocatorIS1_EEEC2B7v160006IDnS5_EEOT_OT0_, symObjAddr: 0x2370, symBinAddr: 0x100015DBC, symSize: 0x48 }
  - { offsetInCU: 0x9D94, offset: 0x3F8A0, size: 0x8, addend: 0x0, symName: __ZNSt3__122__compressed_pair_elemIRNS_9allocatorI5EntryEELi1ELb0EEC2B7v160006IS4_vEEOT_, symObjAddr: 0x23B8, symBinAddr: 0x100015E04, symSize: 0x20 }
  - { offsetInCU: 0x9DD5, offset: 0x3F8E1, size: 0x8, addend: 0x0, symName: __ZNSt3__19allocatorI5EntryE8allocateB7v160006Em, symObjAddr: 0x23D8, symBinAddr: 0x100015E24, symSize: 0x58 }
  - { offsetInCU: 0x9E07, offset: 0x3F913, size: 0x8, addend: 0x0, symName: __ZNSt3__117__compressed_pairIP5EntryRNS_9allocatorIS1_EEE6secondB7v160006Ev, symObjAddr: 0x2514, symBinAddr: 0x100015E7C, symSize: 0x28 }
  - { offsetInCU: 0x9E2B, offset: 0x3F937, size: 0x8, addend: 0x0, symName: __ZNSt3__122__compressed_pair_elemIRNS_9allocatorI5EntryEELi1ELb0EE5__getB7v160006Ev, symObjAddr: 0x253C, symBinAddr: 0x100015EA4, symSize: 0x18 }
  - { offsetInCU: 0x9E4F, offset: 0x3F95B, size: 0x8, addend: 0x0, symName: __ZNSt3__117__compressed_pairIP5EntryRNS_9allocatorIS1_EEE5firstB7v160006Ev, symObjAddr: 0x2554, symBinAddr: 0x100015EBC, symSize: 0x24 }
  - { offsetInCU: 0x9E73, offset: 0x3F97F, size: 0x8, addend: 0x0, symName: __ZNSt3__116reverse_iteratorIP5EntryEC1B7v160006ES2_, symObjAddr: 0x26A4, symBinAddr: 0x10001600C, symSize: 0x34 }
  - { offsetInCU: 0x9EA9, offset: 0x3F9B5, size: 0x8, addend: 0x0, symName: __ZNKSt3__116reverse_iteratorIP5EntryE4baseB7v160006Ev, symObjAddr: 0x26D8, symBinAddr: 0x100016040, symSize: 0x18 }
  - { offsetInCU: 0x9ECD, offset: 0x3F9D9, size: 0x8, addend: 0x0, symName: __ZNKSt3__16vectorI5EntryNS_9allocatorIS1_EEE14__annotate_newB7v160006Em, symObjAddr: 0x272C, symBinAddr: 0x100016094, symSize: 0xAC }
  - { offsetInCU: 0x9F00, offset: 0x3FA0C, size: 0x8, addend: 0x0, symName: __ZNSt3__129_AllocatorDestroyRangeReverseINS_9allocatorI5EntryEENS_16reverse_iteratorIPS2_EEEC1B7v160006ERS3_RS6_S9_, symObjAddr: 0x2834, symBinAddr: 0x10001619C, symSize: 0x44 }
  - { offsetInCU: 0x9F5A, offset: 0x3FA66, size: 0x8, addend: 0x0, symName: __ZNSt3__116allocator_traitsINS_9allocatorI5EntryEEE9constructB7v160006IS2_JS2_EvvEEvRS3_PT_DpOT0_, symObjAddr: 0x28C0, symBinAddr: 0x100016228, symSize: 0x30 }
  - { offsetInCU: 0x9FB2, offset: 0x3FABE, size: 0x8, addend: 0x0, symName: __ZNKSt3__116reverse_iteratorIP5EntryEdeB7v160006Ev, symObjAddr: 0x2914, symBinAddr: 0x10001627C, symSize: 0x28 }
  - { offsetInCU: 0x9FE5, offset: 0x3FAF1, size: 0x8, addend: 0x0, symName: __ZNSt3__116reverse_iteratorIP5EntryEppB7v160006Ev, symObjAddr: 0x293C, symBinAddr: 0x1000162A4, symSize: 0x20 }
  - { offsetInCU: 0xA009, offset: 0x3FB15, size: 0x8, addend: 0x0, symName: __ZNSt3__128__exception_guard_exceptionsINS_29_AllocatorDestroyRangeReverseINS_9allocatorI5EntryEENS_16reverse_iteratorIPS3_EEEEE10__completeB7v160006Ev, symObjAddr: 0x295C, symBinAddr: 0x1000162C4, symSize: 0x1C }
  - { offsetInCU: 0xA02D, offset: 0x3FB39, size: 0x8, addend: 0x0, symName: __ZNSt3__128__exception_guard_exceptionsINS_29_AllocatorDestroyRangeReverseINS_9allocatorI5EntryEENS_16reverse_iteratorIPS3_EEEEED1B7v160006Ev, symObjAddr: 0x2978, symBinAddr: 0x1000162E0, symSize: 0x2C }
  - { offsetInCU: 0xA055, offset: 0x3FB61, size: 0x8, addend: 0x0, symName: __ZNSt3__128__exception_guard_exceptionsINS_29_AllocatorDestroyRangeReverseINS_9allocatorI5EntryEENS_16reverse_iteratorIPS3_EEEEEC1B7v160006ES8_, symObjAddr: 0x29A4, symBinAddr: 0x10001630C, symSize: 0x34 }
  - { offsetInCU: 0xA08C, offset: 0x3FB98, size: 0x8, addend: 0x0, symName: __ZNSt3__128__exception_guard_exceptionsINS_29_AllocatorDestroyRangeReverseINS_9allocatorI5EntryEENS_16reverse_iteratorIPS3_EEEEEC2B7v160006ES8_, symObjAddr: 0x29D8, symBinAddr: 0x100016340, symSize: 0x30 }
  - { offsetInCU: 0xA0C3, offset: 0x3FBCF, size: 0x8, addend: 0x0, symName: __ZNSt3__129_AllocatorDestroyRangeReverseINS_9allocatorI5EntryEENS_16reverse_iteratorIPS2_EEEC2B7v160006ERS3_RS6_S9_, symObjAddr: 0x2A08, symBinAddr: 0x100016370, symSize: 0x38 }
  - { offsetInCU: 0xA118, offset: 0x3FC24, size: 0x8, addend: 0x0, symName: __ZN5EntryC1EOS_, symObjAddr: 0x2A7C, symBinAddr: 0x1000163E4, symSize: 0x34 }
  - { offsetInCU: 0xA14B, offset: 0x3FC57, size: 0x8, addend: 0x0, symName: __ZN5EntryC2EOS_, symObjAddr: 0x2AB0, symBinAddr: 0x100016418, symSize: 0x48 }
  - { offsetInCU: 0xA17E, offset: 0x3FC8A, size: 0x8, addend: 0x0, symName: __ZNSt3__112basic_stringIcNS_11char_traitsIcEENS_9allocatorIcEEEC1B7v160006EOS5_, symObjAddr: 0x2AF8, symBinAddr: 0x100016460, symSize: 0x34 }
  - { offsetInCU: 0xA1B5, offset: 0x3FCC1, size: 0x8, addend: 0x0, symName: __ZNSt3__112basic_stringIcNS_11char_traitsIcEENS_9allocatorIcEEEC2B7v160006EOS5_, symObjAddr: 0x2B2C, symBinAddr: 0x100016494, symSize: 0x80 }
  - { offsetInCU: 0xA1F1, offset: 0x3FCFD, size: 0x8, addend: 0x0, symName: __ZNSt3__119__to_address_helperINS_16reverse_iteratorIP5EntryEEvE6__callB7v160006ERKS4_, symObjAddr: 0x2C30, symBinAddr: 0x100016528, symSize: 0x38 }
  - { offsetInCU: 0xA213, offset: 0x3FD1F, size: 0x8, addend: 0x0, symName: __ZNKSt3__116reverse_iteratorIP5EntryEptB7v160006Ev, symObjAddr: 0x2C68, symBinAddr: 0x100016560, symSize: 0x2C }
  - { offsetInCU: 0xA237, offset: 0x3FD43, size: 0x8, addend: 0x0, symName: __ZNSt3__128__exception_guard_exceptionsINS_29_AllocatorDestroyRangeReverseINS_9allocatorI5EntryEENS_16reverse_iteratorIPS3_EEEEED2B7v160006Ev, symObjAddr: 0x2D70, symBinAddr: 0x100016654, symSize: 0x50 }
  - { offsetInCU: 0xA25F, offset: 0x3FD6B, size: 0x8, addend: 0x0, symName: __ZNKSt3__129_AllocatorDestroyRangeReverseINS_9allocatorI5EntryEENS_16reverse_iteratorIPS2_EEEclB7v160006Ev, symObjAddr: 0x2DC0, symBinAddr: 0x1000166A4, symSize: 0xB4 }
  - { offsetInCU: 0xA284, offset: 0x3FD90, size: 0x8, addend: 0x0, symName: __ZNSt3__116reverse_iteratorINS0_IP5EntryEEEC1B7v160006ES3_, symObjAddr: 0x2EE4, symBinAddr: 0x1000167C8, symSize: 0x3C }
  - { offsetInCU: 0xA2BA, offset: 0x3FDC6, size: 0x8, addend: 0x0, symName: __ZNSt3__116reverse_iteratorINS0_IP5EntryEEEppB7v160006Ev, symObjAddr: 0x2FA4, symBinAddr: 0x100016888, symSize: 0x30 }
  - { offsetInCU: 0xA2DE, offset: 0x3FDEA, size: 0x8, addend: 0x0, symName: __ZNKSt3__116reverse_iteratorINS0_IP5EntryEEE4baseB7v160006Ev, symObjAddr: 0x2FD4, symBinAddr: 0x1000168B8, symSize: 0x24 }
  - { offsetInCU: 0xA307, offset: 0x3FE13, size: 0x8, addend: 0x0, symName: __ZNSt3__119__to_address_helperINS_16reverse_iteratorINS1_IP5EntryEEEEvE6__callB7v160006ERKS5_, symObjAddr: 0x2FF8, symBinAddr: 0x1000168DC, symSize: 0x38 }
  - { offsetInCU: 0xA329, offset: 0x3FE35, size: 0x8, addend: 0x0, symName: __ZNKSt3__116reverse_iteratorINS0_IP5EntryEEEptB7v160006Ev, symObjAddr: 0x3030, symBinAddr: 0x100016914, symSize: 0x4C }
  - { offsetInCU: 0xA34D, offset: 0x3FE59, size: 0x8, addend: 0x0, symName: __ZNSt3__116reverse_iteratorIP5EntryEpLB7v160006El, symObjAddr: 0x3158, symBinAddr: 0x100016A3C, symSize: 0x30 }
  - { offsetInCU: 0xA37F, offset: 0x3FE8B, size: 0x8, addend: 0x0, symName: __ZNSt3__116reverse_iteratorIP5EntryEmmB7v160006Ev, symObjAddr: 0x3188, symBinAddr: 0x100016A6C, symSize: 0x20 }
  - { offsetInCU: 0xA3A3, offset: 0x3FEAF, size: 0x8, addend: 0x0, symName: __ZNSt3__116reverse_iteratorINS0_IP5EntryEEEC2B7v160006ES3_, symObjAddr: 0x31A8, symBinAddr: 0x100016A8C, symSize: 0x2C }
  - { offsetInCU: 0xA3D9, offset: 0x3FEE5, size: 0x8, addend: 0x0, symName: __ZNSt3__116reverse_iteratorIP5EntryEC2B7v160006ES2_, symObjAddr: 0x31D4, symBinAddr: 0x100016AB8, symSize: 0x28 }
  - { offsetInCU: 0xA40F, offset: 0x3FF1B, size: 0x8, addend: 0x0, symName: __ZNSt3__114__split_bufferI5EntryRNS_9allocatorIS1_EEED2Ev, symObjAddr: 0x31FC, symBinAddr: 0x100016AE0, symSize: 0x8C }
  - { offsetInCU: 0xA43A, offset: 0x3FF46, size: 0x8, addend: 0x0, symName: __ZNSt3__114__split_bufferI5EntryRNS_9allocatorIS1_EEE5clearB7v160006Ev, symObjAddr: 0x3288, symBinAddr: 0x100016B6C, symSize: 0x28 }
  - { offsetInCU: 0xA45E, offset: 0x3FF6A, size: 0x8, addend: 0x0, symName: __ZNKSt3__114__split_bufferI5EntryRNS_9allocatorIS1_EEE8capacityB7v160006Ev, symObjAddr: 0x32B0, symBinAddr: 0x100016B94, symSize: 0x40 }
  - { offsetInCU: 0xA482, offset: 0x3FF8E, size: 0x8, addend: 0x0, symName: __ZNSt3__114__split_bufferI5EntryRNS_9allocatorIS1_EEE17__destruct_at_endB7v160006EPS1_, symObjAddr: 0x32F0, symBinAddr: 0x100016BD4, symSize: 0x2C }
  - { offsetInCU: 0xA4B4, offset: 0x3FFC0, size: 0x8, addend: 0x0, symName: __ZNSt3__114__split_bufferI5EntryRNS_9allocatorIS1_EEE17__destruct_at_endB7v160006EPS1_NS_17integral_constantIbLb0EEE, symObjAddr: 0x331C, symBinAddr: 0x100016C00, symSize: 0x80 }
  - { offsetInCU: 0xA4F2, offset: 0x3FFFE, size: 0x8, addend: 0x0, symName: __ZNKSt3__114__split_bufferI5EntryRNS_9allocatorIS1_EEE9__end_capB7v160006Ev, symObjAddr: 0x339C, symBinAddr: 0x100016C80, symSize: 0x28 }
  - { offsetInCU: 0xA516, offset: 0x40022, size: 0x8, addend: 0x0, symName: __ZNKSt3__117__compressed_pairIP5EntryRNS_9allocatorIS1_EEE5firstB7v160006Ev, symObjAddr: 0x33C4, symBinAddr: 0x100016CA8, symSize: 0x24 }
  - { offsetInCU: 0xA53A, offset: 0x40046, size: 0x8, addend: 0x0, symName: __ZNK10LinkedListI5EntryE11isListEmptyEv, symObjAddr: 0x33E8, symBinAddr: 0x100016CCC, symSize: 0x24 }
  - { offsetInCU: 0xA561, offset: 0x4006D, size: 0x8, addend: 0x0, symName: __ZNSt12out_of_rangeC1B7v160006EPKc, symObjAddr: 0x340C, symBinAddr: 0x100016CF0, symSize: 0x34 }
  - { offsetInCU: 0xA597, offset: 0x400A3, size: 0x8, addend: 0x0, symName: __ZNSt12out_of_rangeC2B7v160006EPKc, symObjAddr: 0x3440, symBinAddr: 0x100016D24, symSize: 0x4C }
  - { offsetInCU: 0x4B4A, offset: 0x44CAE, size: 0x8, addend: 0x0, symName: __ZNSt3__122__make_exception_guardB7v160006INS_6vectorIiNS_9allocatorIiEEE16__destroy_vectorEEENS_28__exception_guard_exceptionsIT_EES7_, symObjAddr: 0xD94, symBinAddr: 0x1000179D4, symSize: 0x40 }
  - { offsetInCU: 0x4B7F, offset: 0x44CE3, size: 0x8, addend: 0x0, symName: __ZNSt3__130__uninitialized_allocator_copyB7v160006INS_9allocatorIiEEiiLPv0EEEPT0_RT_PKS4_S9_S5_, symObjAddr: 0x1848, symBinAddr: 0x100017C3C, symSize: 0x38 }
  - { offsetInCU: 0x4BF9, offset: 0x44D5D, size: 0x8, addend: 0x0, symName: __ZNSt3__14copyB7v160006IPKiPiEET0_T_S5_S4_, symObjAddr: 0x18F0, symBinAddr: 0x100017C74, symSize: 0x40 }
  - { offsetInCU: 0x4C53, offset: 0x44DB7, size: 0x8, addend: 0x0, symName: __ZNSt3__16__copyB7v160006INS_17_ClassicAlgPolicyEPKiS3_PiEENS_4pairIT0_T2_EES6_T1_S7_, symObjAddr: 0x1930, symBinAddr: 0x100017CB4, symSize: 0x44 }
  - { offsetInCU: 0x4CBF, offset: 0x44E23, size: 0x8, addend: 0x0, symName: __ZNSt3__123__dispatch_copy_or_moveB7v160006INS_17_ClassicAlgPolicyENS_11__copy_loopIS1_EENS_14__copy_trivialEPKiS6_PiEENS_4pairIT2_T4_EES9_T3_SA_, symObjAddr: 0x1974, symBinAddr: 0x100017CF8, symSize: 0x44 }
  - { offsetInCU: 0x4D3D, offset: 0x44EA1, size: 0x8, addend: 0x0, symName: __ZNSt3__121__unwrap_and_dispatchB7v160006INS_10__overloadINS_11__copy_loopINS_17_ClassicAlgPolicyEEENS_14__copy_trivialEEEPKiS8_PiLi0EEENS_4pairIT0_T2_EESB_T1_SC_, symObjAddr: 0x19B8, symBinAddr: 0x100017D3C, symSize: 0xB4 }
  - { offsetInCU: 0x4DCE, offset: 0x44F32, size: 0x8, addend: 0x0, symName: __ZNSt3__114__unwrap_rangeB7v160006IPKiS2_EEDaT_T0_, symObjAddr: 0x1A6C, symBinAddr: 0x100017DF0, symSize: 0x3C }
  - { offsetInCU: 0x4F66, offset: 0x450CA, size: 0x8, addend: 0x0, symName: __ZNSt3__113__unwrap_iterB7v160006IPiNS_18__unwrap_iter_implIS1_Lb1EEELi0EEEDTclsrT0_8__unwrapclsr3stdE7declvalIT_EEEES5_, symObjAddr: 0x1AF0, symBinAddr: 0x100017E74, symSize: 0x24 }
  - { offsetInCU: 0x4FAB, offset: 0x4510F, size: 0x8, addend: 0x0, symName: __ZNSt3__19make_pairB7v160006IPKiPiEENS_4pairINS_18__unwrap_ref_decayIT_E4typeENS5_IT0_E4typeEEEOS6_OS9_, symObjAddr: 0x1B14, symBinAddr: 0x100017E98, symSize: 0x38 }
  - { offsetInCU: 0x4FFA, offset: 0x4515E, size: 0x8, addend: 0x0, symName: __ZNSt3__114__rewrap_rangeB7v160006IPKiS2_S2_EET0_S3_T1_, symObjAddr: 0x1B4C, symBinAddr: 0x100017ED0, symSize: 0x2C }
  - { offsetInCU: 0x504F, offset: 0x451B3, size: 0x8, addend: 0x0, symName: __ZNSt3__113__rewrap_iterB7v160006IPiS1_NS_18__unwrap_iter_implIS1_Lb1EEEEET_S4_T0_, symObjAddr: 0x1B78, symBinAddr: 0x100017EFC, symSize: 0x3C }
  - { offsetInCU: 0x51C3, offset: 0x45327, size: 0x8, addend: 0x0, symName: __ZNSt3__113__unwrap_iterB7v160006IPKiNS_18__unwrap_iter_implIS2_Lb1EEELi0EEEDTclsrT0_8__unwrapclsr3stdE7declvalIT_EEEES6_, symObjAddr: 0x1C0C, symBinAddr: 0x100017F90, symSize: 0x24 }
  - { offsetInCU: 0x525C, offset: 0x453C0, size: 0x8, addend: 0x0, symName: __ZNSt3__112__to_addressB7v160006IKiEEPT_S3_, symObjAddr: 0x1C90, symBinAddr: 0x100018014, symSize: 0x14 }
  - { offsetInCU: 0x5291, offset: 0x453F5, size: 0x8, addend: 0x0, symName: __ZNSt3__119__copy_trivial_implB7v160006IKiiEENS_4pairIPT_PT0_EES4_S4_S6_, symObjAddr: 0x1CD8, symBinAddr: 0x10001805C, symSize: 0x84 }
  - { offsetInCU: 0x52FA, offset: 0x4545E, size: 0x8, addend: 0x0, symName: __ZNSt3__19make_pairB7v160006IRPKiPiEENS_4pairINS_18__unwrap_ref_decayIT_E4typeENS6_IT0_E4typeEEEOS7_OSA_, symObjAddr: 0x1D5C, symBinAddr: 0x1000180E0, symSize: 0x38 }
  - { offsetInCU: 0x539D, offset: 0x45501, size: 0x8, addend: 0x0, symName: __ZNSt3__113__rewrap_iterB7v160006IPKiS2_NS_18__unwrap_iter_implIS2_Lb1EEEEET_S5_T0_, symObjAddr: 0x1EC4, symBinAddr: 0x100018248, symSize: 0x3C }
  - { offsetInCU: 0x53F2, offset: 0x45556, size: 0x8, addend: 0x0, symName: __ZNSt3__120__throw_out_of_rangeB7v160006EPKc, symObjAddr: 0x2460, symBinAddr: 0x100018390, symSize: 0x64 }
  - { offsetInCU: 0x76B8, offset: 0x4781C, size: 0x8, addend: 0x0, symName: __ZN4HeapC2Ei, symObjAddr: 0x0, symBinAddr: 0x100016D70, symSize: 0x8C }
  - { offsetInCU: 0x76F0, offset: 0x47854, size: 0x8, addend: 0x0, symName: __ZNSt3__16vectorIiNS_9allocatorIiEEEC1B7v160006ESt16initializer_listIiE, symObjAddr: 0x8C, symBinAddr: 0x100016DFC, symSize: 0x3C }
  - { offsetInCU: 0x772A, offset: 0x4788E, size: 0x8, addend: 0x0, symName: __ZN4HeapC1Ei, symObjAddr: 0xC8, symBinAddr: 0x100016E38, symSize: 0x34 }
  - { offsetInCU: 0x7762, offset: 0x478C6, size: 0x8, addend: 0x0, symName: __ZN4HeapD2Ev, symObjAddr: 0xFC, symBinAddr: 0x100016E6C, symSize: 0x64 }
  - { offsetInCU: 0x778C, offset: 0x478F0, size: 0x8, addend: 0x0, symName: __ZN4HeapD1Ev, symObjAddr: 0x18C, symBinAddr: 0x100016ED0, symSize: 0x2C }
  - { offsetInCU: 0x77B6, offset: 0x4791A, size: 0x8, addend: 0x0, symName: __ZNK4Heap14getParentIndexEi, symObjAddr: 0x1B8, symBinAddr: 0x100016EFC, symSize: 0x3C }
  - { offsetInCU: 0x77E9, offset: 0x4794D, size: 0x8, addend: 0x0, symName: __Z5floorB7v160006IiENSt3__19enable_ifIXsr3std11is_integralIT_EE5valueEdE4typeES2_, symObjAddr: 0x1F4, symBinAddr: 0x100016F38, symSize: 0x24 }
  - { offsetInCU: 0x7822, offset: 0x47986, size: 0x8, addend: 0x0, symName: __ZN4Heap9setParentEii, symObjAddr: 0x218, symBinAddr: 0x100016F5C, symSize: 0x5C }
  - { offsetInCU: 0x7864, offset: 0x479C8, size: 0x8, addend: 0x0, symName: __ZNSt3__16vectorIiNS_9allocatorIiEEE2atEm, symObjAddr: 0x274, symBinAddr: 0x100016FB8, symSize: 0x60 }
  - { offsetInCU: 0x7899, offset: 0x479FD, size: 0x8, addend: 0x0, symName: __ZN4Heap4swapEii, symObjAddr: 0x2D4, symBinAddr: 0x100017018, symSize: 0x84 }
  - { offsetInCU: 0x78DB, offset: 0x47A3F, size: 0x8, addend: 0x0, symName: __ZN4Heap8bubbleUpEi, symObjAddr: 0x358, symBinAddr: 0x10001709C, symSize: 0xD8 }
  - { offsetInCU: 0x791E, offset: 0x47A82, size: 0x8, addend: 0x0, symName: __ZN4Heap6insertEi, symObjAddr: 0x458, symBinAddr: 0x100017174, symSize: 0x44 }
  - { offsetInCU: 0x7952, offset: 0x47AB6, size: 0x8, addend: 0x0, symName: __ZNK4Heap7toArrayEv, symObjAddr: 0x508, symBinAddr: 0x1000171B8, symSize: 0x90 }
  - { offsetInCU: 0x7996, offset: 0x47AFA, size: 0x8, addend: 0x0, symName: __ZNK4Heap17getLeftChildIndexEi, symObjAddr: 0x5CC, symBinAddr: 0x100017248, symSize: 0x24 }
  - { offsetInCU: 0x79CB, offset: 0x47B2F, size: 0x8, addend: 0x0, symName: __ZNK4Heap18getRightChildIndexEi, symObjAddr: 0x5F0, symBinAddr: 0x10001726C, symSize: 0x24 }
  - { offsetInCU: 0x7A00, offset: 0x47B64, size: 0x8, addend: 0x0, symName: __ZNK4Heap20getGreaterChildIndexEi, symObjAddr: 0x614, symBinAddr: 0x100017290, symSize: 0x118 }
  - { offsetInCU: 0x7A34, offset: 0x47B98, size: 0x8, addend: 0x0, symName: __ZNK4Heap13hasRightChildEi, symObjAddr: 0x72C, symBinAddr: 0x1000173A8, symSize: 0x58 }
  - { offsetInCU: 0x7A68, offset: 0x47BCC, size: 0x8, addend: 0x0, symName: __ZNK4Heap12hasLeftChildEi, symObjAddr: 0x784, symBinAddr: 0x100017400, symSize: 0x58 }
  - { offsetInCU: 0x7A9C, offset: 0x47C00, size: 0x8, addend: 0x0, symName: __ZNK4Heap13isValidParentEi, symObjAddr: 0x7DC, symBinAddr: 0x100017458, symSize: 0x154 }
  - { offsetInCU: 0x7ADF, offset: 0x47C43, size: 0x8, addend: 0x0, symName: __ZN4Heap13swapWithChildEii, symObjAddr: 0x930, symBinAddr: 0x1000175AC, symSize: 0xAC }
  - { offsetInCU: 0x7B21, offset: 0x47C85, size: 0x8, addend: 0x0, symName: __ZN4Heap10bubbleDownEi, symObjAddr: 0x9DC, symBinAddr: 0x100017658, symSize: 0xA8 }
  - { offsetInCU: 0x7B64, offset: 0x47CC8, size: 0x8, addend: 0x0, symName: __ZN4Heap6removeEv, symObjAddr: 0xA84, symBinAddr: 0x100017700, symSize: 0xFC }
  - { offsetInCU: 0x7B99, offset: 0x47CFD, size: 0x8, addend: 0x0, symName: __ZNSt3__16vectorIiNS_9allocatorIiEEE5frontB7v160006Ev, symObjAddr: 0xB80, symBinAddr: 0x1000177FC, symSize: 0x18 }
  - { offsetInCU: 0x7BBD, offset: 0x47D21, size: 0x8, addend: 0x0, symName: __ZNSt3__16vectorIiNS_9allocatorIiEEE4backB7v160006Ev, symObjAddr: 0xB98, symBinAddr: 0x100017814, symSize: 0x1C }
  - { offsetInCU: 0x7BE1, offset: 0x47D45, size: 0x8, addend: 0x0, symName: __ZNSt3__16vectorIiNS_9allocatorIiEEE8pop_backEv, symObjAddr: 0xBB4, symBinAddr: 0x100017830, symSize: 0x2C }
  - { offsetInCU: 0x7C07, offset: 0x47D6B, size: 0x8, addend: 0x0, symName: __ZNK4Heap7isEmptyEv, symObjAddr: 0xBE0, symBinAddr: 0x10001785C, symSize: 0x2C }
  - { offsetInCU: 0x7C2D, offset: 0x47D91, size: 0x8, addend: 0x0, symName: __ZNKSt3__16vectorIiNS_9allocatorIiEEE5emptyB7v160006Ev, symObjAddr: 0xC0C, symBinAddr: 0x100017888, symSize: 0x28 }
  - { offsetInCU: 0x7C51, offset: 0x47DB5, size: 0x8, addend: 0x0, symName: __ZNSt3__16vectorIiNS_9allocatorIiEEEC2B7v160006ESt16initializer_listIiE, symObjAddr: 0xC34, symBinAddr: 0x1000178B0, symSize: 0x124 }
  - { offsetInCU: 0x7CA1, offset: 0x47E05, size: 0x8, addend: 0x0, symName: __ZNKSt16initializer_listIiE4sizeB7v160006Ev, symObjAddr: 0xE18, symBinAddr: 0x100017A14, symSize: 0x18 }
  - { offsetInCU: 0x7CC5, offset: 0x47E29, size: 0x8, addend: 0x0, symName: __ZNSt3__16vectorIiNS_9allocatorIiEEE11__vallocateB7v160006Em, symObjAddr: 0xE30, symBinAddr: 0x100017A2C, symSize: 0xAC }
  - { offsetInCU: 0x7D07, offset: 0x47E6B, size: 0x8, addend: 0x0, symName: __ZNSt3__16vectorIiNS_9allocatorIiEEE18__construct_at_endIPKiLi0EEEvT_S7_m, symObjAddr: 0xEDC, symBinAddr: 0x100017AD8, symSize: 0x8C }
  - { offsetInCU: 0x7D79, offset: 0x47EDD, size: 0x8, addend: 0x0, symName: __ZNKSt16initializer_listIiE5beginB7v160006Ev, symObjAddr: 0xF68, symBinAddr: 0x100017B64, symSize: 0x18 }
  - { offsetInCU: 0x7D9D, offset: 0x47F01, size: 0x8, addend: 0x0, symName: __ZNKSt16initializer_listIiE3endB7v160006Ev, symObjAddr: 0xF80, symBinAddr: 0x100017B7C, symSize: 0x20 }
  - { offsetInCU: 0x7DC1, offset: 0x47F25, size: 0x8, addend: 0x0, symName: __ZNSt3__128__exception_guard_exceptionsINS_6vectorIiNS_9allocatorIiEEE16__destroy_vectorEE10__completeB7v160006Ev, symObjAddr: 0xFA0, symBinAddr: 0x100017B9C, symSize: 0x1C }
  - { offsetInCU: 0x7DE5, offset: 0x47F49, size: 0x8, addend: 0x0, symName: __ZNSt3__128__exception_guard_exceptionsINS_6vectorIiNS_9allocatorIiEEE16__destroy_vectorEED1B7v160006Ev, symObjAddr: 0xFBC, symBinAddr: 0x100017BB8, symSize: 0x2C }
  - { offsetInCU: 0x7E0D, offset: 0x47F71, size: 0x8, addend: 0x0, symName: __ZNSt3__128__exception_guard_exceptionsINS_6vectorIiNS_9allocatorIiEEE16__destroy_vectorEEC1B7v160006ES5_, symObjAddr: 0x10B0, symBinAddr: 0x100017BE4, symSize: 0x34 }
  - { offsetInCU: 0x7E43, offset: 0x47FA7, size: 0x8, addend: 0x0, symName: __ZNSt3__128__exception_guard_exceptionsINS_6vectorIiNS_9allocatorIiEEE16__destroy_vectorEEC2B7v160006ES5_, symObjAddr: 0x10E4, symBinAddr: 0x100017C18, symSize: 0x24 }
  - { offsetInCU: 0x7EB5, offset: 0x48019, size: 0x8, addend: 0x0, symName: __ZNKSt3__114__copy_trivialclB7v160006IKiiLi0EEENS_4pairIPT_PT0_EES5_S5_S7_, symObjAddr: 0x1AA8, symBinAddr: 0x100017E2C, symSize: 0x48 }
  - { offsetInCU: 0x7F35, offset: 0x48099, size: 0x8, addend: 0x0, symName: __ZNSt3__119__unwrap_range_implIPKiS2_E8__unwrapB7v160006ES2_S2_, symObjAddr: 0x1BB4, symBinAddr: 0x100017F38, symSize: 0x58 }
  - { offsetInCU: 0x7F6A, offset: 0x480CE, size: 0x8, addend: 0x0, symName: __ZNSt3__14pairIPKiS2_EC1B7v160006IS2_S2_LPv0EEEOT_OT0_, symObjAddr: 0x1C30, symBinAddr: 0x100017FB4, symSize: 0x3C }
  - { offsetInCU: 0x7FC7, offset: 0x4812B, size: 0x8, addend: 0x0, symName: __ZNSt3__118__unwrap_iter_implIPKiLb1EE8__unwrapB7v160006ES2_, symObjAddr: 0x1C6C, symBinAddr: 0x100017FF0, symSize: 0x24 }
  - { offsetInCU: 0x7FE9, offset: 0x4814D, size: 0x8, addend: 0x0, symName: __ZNSt3__14pairIPKiS2_EC2B7v160006IS2_S2_LPv0EEEOT_OT0_, symObjAddr: 0x1CA4, symBinAddr: 0x100018028, symSize: 0x34 }
  - { offsetInCU: 0x8050, offset: 0x481B4, size: 0x8, addend: 0x0, symName: __ZNSt3__14pairIPKiPiEC1B7v160006IRS2_S3_LPv0EEEOT_OT0_, symObjAddr: 0x1D94, symBinAddr: 0x100018118, symSize: 0x3C }
  - { offsetInCU: 0x80AD, offset: 0x48211, size: 0x8, addend: 0x0, symName: __ZNSt3__14pairIPKiPiEC2B7v160006IRS2_S3_LPv0EEEOT_OT0_, symObjAddr: 0x1DD0, symBinAddr: 0x100018154, symSize: 0x34 }
  - { offsetInCU: 0x810A, offset: 0x4826E, size: 0x8, addend: 0x0, symName: __ZNSt3__118__unwrap_iter_implIPiLb1EE8__unwrapB7v160006ES1_, symObjAddr: 0x1E04, symBinAddr: 0x100018188, symSize: 0x24 }
  - { offsetInCU: 0x812C, offset: 0x48290, size: 0x8, addend: 0x0, symName: __ZNSt3__14pairIPKiPiEC1B7v160006IS2_S3_LPv0EEEOT_OT0_, symObjAddr: 0x1E28, symBinAddr: 0x1000181AC, symSize: 0x3C }
  - { offsetInCU: 0x8189, offset: 0x482ED, size: 0x8, addend: 0x0, symName: __ZNSt3__14pairIPKiPiEC2B7v160006IS2_S3_LPv0EEEOT_OT0_, symObjAddr: 0x1E64, symBinAddr: 0x1000181E8, symSize: 0x34 }
  - { offsetInCU: 0x81E6, offset: 0x4834A, size: 0x8, addend: 0x0, symName: __ZNSt3__119__unwrap_range_implIPKiS2_E8__rewrapB7v160006ES2_S2_, symObjAddr: 0x1E98, symBinAddr: 0x10001821C, symSize: 0x2C }
  - { offsetInCU: 0x8216, offset: 0x4837A, size: 0x8, addend: 0x0, symName: __ZNSt3__118__unwrap_iter_implIPKiLb1EE8__rewrapB7v160006ES2_S2_, symObjAddr: 0x1F00, symBinAddr: 0x100018284, symSize: 0x50 }
  - { offsetInCU: 0x8246, offset: 0x483AA, size: 0x8, addend: 0x0, symName: __ZNSt3__118__unwrap_iter_implIPiLb1EE8__rewrapB7v160006ES1_S1_, symObjAddr: 0x1F50, symBinAddr: 0x1000182D4, symSize: 0x50 }
  - { offsetInCU: 0x8276, offset: 0x483DA, size: 0x8, addend: 0x0, symName: __ZNSt3__128__exception_guard_exceptionsINS_6vectorIiNS_9allocatorIiEEE16__destroy_vectorEED2B7v160006Ev, symObjAddr: 0x1FC0, symBinAddr: 0x100018324, symSize: 0x50 }
  - { offsetInCU: 0x829E, offset: 0x48402, size: 0x8, addend: 0x0, symName: __ZNKSt3__16vectorIiNS_9allocatorIiEEE20__throw_out_of_rangeB7v160006Ev, symObjAddr: 0x2444, symBinAddr: 0x100018374, symSize: 0x1C }
  - { offsetInCU: 0x82C7, offset: 0x4842B, size: 0x8, addend: 0x0, symName: __ZNSt3__16vectorIiNS_9allocatorIiEEE17__destruct_at_endB7v160006EPi, symObjAddr: 0x3614, symBinAddr: 0x1000183F4, symSize: 0x60 }
  - { offsetInCU: 0x8309, offset: 0x4846D, size: 0x8, addend: 0x0, symName: __ZNSt3__16vectorIiNS_9allocatorIiEEE27__invalidate_iterators_pastB7v160006EPi, symObjAddr: 0x3674, symBinAddr: 0x100018454, symSize: 0x14 }
  - { offsetInCU: 0x833E, offset: 0x484A2, size: 0x8, addend: 0x0, symName: __ZNKSt3__16vectorIiNS_9allocatorIiEEE17__annotate_shrinkB7v160006Em, symObjAddr: 0x3688, symBinAddr: 0x100018468, symSize: 0xB4 }
  - { offsetInCU: 0x26, offset: 0x48545, size: 0x8, addend: 0x0, symName: __ZN17PriorityQueueHeapC2Ei, symObjAddr: 0x0, symBinAddr: 0x10001851C, symSize: 0x70 }
  - { offsetInCU: 0x199C, offset: 0x49EBB, size: 0x8, addend: 0x0, symName: __ZN17PriorityQueueHeapC2Ei, symObjAddr: 0x0, symBinAddr: 0x10001851C, symSize: 0x70 }
  - { offsetInCU: 0x19D4, offset: 0x49EF3, size: 0x8, addend: 0x0, symName: __ZN17PriorityQueueHeapC1Ei, symObjAddr: 0x70, symBinAddr: 0x10001858C, symSize: 0x34 }
  - { offsetInCU: 0x1A0C, offset: 0x49F2B, size: 0x8, addend: 0x0, symName: __ZN17PriorityQueueHeapD2Ev, symObjAddr: 0xA4, symBinAddr: 0x1000185C0, symSize: 0x64 }
  - { offsetInCU: 0x1A36, offset: 0x49F55, size: 0x8, addend: 0x0, symName: __ZN17PriorityQueueHeapD1Ev, symObjAddr: 0x108, symBinAddr: 0x100018624, symSize: 0x2C }
  - { offsetInCU: 0x1A60, offset: 0x49F7F, size: 0x8, addend: 0x0, symName: __ZN17PriorityQueueHeap7enqueueEi, symObjAddr: 0x134, symBinAddr: 0x100018650, symSize: 0x30 }
  - { offsetInCU: 0x1A94, offset: 0x49FB3, size: 0x8, addend: 0x0, symName: __ZN17PriorityQueueHeap7dequeueEv, symObjAddr: 0x164, symBinAddr: 0x100018680, symSize: 0x28 }
  - { offsetInCU: 0x1ABA, offset: 0x49FD9, size: 0x8, addend: 0x0, symName: __ZNK17PriorityQueueHeap7isEmptyEv, symObjAddr: 0x18C, symBinAddr: 0x1000186A8, symSize: 0x2C }
  - { offsetInCU: 0x8EA7, offset: 0x52EB0, size: 0x8, addend: 0x0, symName: __ZNSt3__17advanceB7v160006IPNS_12basic_stringIcNS_11char_traitsIcEENS_9allocatorIcEEEEllvEEvRT_T0_, symObjAddr: 0x8410, symBinAddr: 0x10001FE28, symSize: 0x50 }
  - { offsetInCU: 0x912D, offset: 0x53136, size: 0x8, addend: 0x0, symName: __ZNSt3__17advanceB7v160006INS_16reverse_iteratorIPNS_12basic_stringIcNS_11char_traitsIcEENS_9allocatorIcEEEEEEllvEEvRT_T0_, symObjAddr: 0x8880, symBinAddr: 0x100020214, symSize: 0x50 }
  - { offsetInCU: 0x919B, offset: 0x531A4, size: 0x8, addend: 0x0, symName: __ZNSt3__16copy_nB7v160006IPKcmPcEENS_9enable_ifIXsr33__is_cpp17_random_access_iteratorIT_EE5valueET1_E4typeES5_T0_S6_, symObjAddr: 0x93F8, symBinAddr: 0x100020C34, symSize: 0x44 }
  - { offsetInCU: 0x9D30, offset: 0x53D39, size: 0x8, addend: 0x0, symName: __ZNSt3__1neB7v160006IPKcEEbRKNS_11__wrap_iterIT_EES7_, symObjAddr: 0x2DC, symBinAddr: 0x1000189B0, symSize: 0x34 }
  - { offsetInCU: 0x9D73, offset: 0x53D7C, size: 0x8, addend: 0x0, symName: __ZNSt3__1neB7v160006IPP4NodeEEbRKNS_11__wrap_iterIT_EES8_, symObjAddr: 0x8AC, symBinAddr: 0x100018F28, symSize: 0x34 }
  - { offsetInCU: 0x9DB6, offset: 0x53DBF, size: 0x8, addend: 0x0, symName: __ZNSt3__1plB7v160006IcNS_11char_traitsIcEENS_9allocatorIcEEEENS_12basic_stringIT_T0_T1_EERKS9_S6_, symObjAddr: 0xFE8, symBinAddr: 0x100019664, symSize: 0x110 }
  - { offsetInCU: 0x9E48, offset: 0x53E51, size: 0x8, addend: 0x0, symName: __ZNSt3__1neB7v160006IPcEEbRKNS_11__wrap_iterIT_EES6_, symObjAddr: 0x1258, symBinAddr: 0x1000198D4, symSize: 0x34 }
  - { offsetInCU: 0x9E8B, offset: 0x53E94, size: 0x8, addend: 0x0, symName: __ZNSt3__119__debug_db_insert_cB7v160006INS_13unordered_mapIcP4NodeNS_4hashIcEENS_8equal_toIcEENS_9allocatorINS_4pairIKcS3_EEEEEEEEvPT_, symObjAddr: 0x16A4, symBinAddr: 0x100019C50, symSize: 0x10 }
  - { offsetInCU: 0x9EBC, offset: 0x53EC5, size: 0x8, addend: 0x0, symName: __ZNSt3__118__debug_db_erase_cB7v160006INS_12__hash_tableINS_17__hash_value_typeIcP4NodeEENS_22__unordered_map_hasherIcS5_NS_4hashIcEENS_8equal_toIcEELb1EEENS_21__unordered_map_equalIcS5_SA_S8_Lb1EEENS_9allocatorIS5_EEEEEEvPT_, symObjAddr: 0x1E8C, symBinAddr: 0x10001A3E4, symSize: 0x10 }
  - { offsetInCU: 0x9F20, offset: 0x53F29, size: 0x8, addend: 0x0, symName: __ZNSt3__110destroy_atB7v160006INS_4pairIKcP4NodeEELi0EEEvPT_, symObjAddr: 0x1FE0, symBinAddr: 0x10001A538, symSize: 0x24 }
  - { offsetInCU: 0x9F59, offset: 0x53F62, size: 0x8, addend: 0x0, symName: __ZNSt3__112__destroy_atB7v160006INS_4pairIKcP4NodeEELi0EEEvPT_, symObjAddr: 0x2004, symBinAddr: 0x10001A55C, symSize: 0x10 }
  - { offsetInCU: 0x9F91, offset: 0x53F9A, size: 0x8, addend: 0x0, symName: __ZNSt3__17launderB7v160006INS_4pairIKcP4NodeEEEEPT_S7_, symObjAddr: 0x2038, symBinAddr: 0x10001A590, symSize: 0x24 }
  - { offsetInCU: 0x9FC8, offset: 0x53FD1, size: 0x8, addend: 0x0, symName: __ZNSt3__19__launderB7v160006INS_4pairIKcP4NodeEEEEPT_S7_, symObjAddr: 0x205C, symBinAddr: 0x10001A5B4, symSize: 0x14 }
  - { offsetInCU: 0xA000, offset: 0x54009, size: 0x8, addend: 0x0, symName: __ZNSt3__1eqB7v160006IPKcEEbRKNS_11__wrap_iterIT_EES7_, symObjAddr: 0x26EC, symBinAddr: 0x10001A930, symSize: 0x48 }
  - { offsetInCU: 0xA043, offset: 0x5404C, size: 0x8, addend: 0x0, symName: __ZNSt3__1neB7v160006ERKNS_21__hash_const_iteratorIPNS_11__hash_nodeINS_17__hash_value_typeIcP4NodeEEPvEEEESB_, symObjAddr: 0x27DC, symBinAddr: 0x10001AA20, symSize: 0x34 }
  - { offsetInCU: 0xA080, offset: 0x54089, size: 0x8, addend: 0x0, symName: __ZNSt3__1eqB7v160006ERKNS_21__hash_const_iteratorIPNS_11__hash_nodeINS_17__hash_value_typeIcP4NodeEEPvEEEESB_, symObjAddr: 0x29FC, symBinAddr: 0x10001AC40, symSize: 0x30 }
  - { offsetInCU: 0xA0BE, offset: 0x540C7, size: 0x8, addend: 0x0, symName: __ZNSt3__17launderB7v160006IKNS_4pairIKcP4NodeEEEEPT_S8_, symObjAddr: 0x2E14, symBinAddr: 0x10001AFAC, symSize: 0x24 }
  - { offsetInCU: 0xA0F5, offset: 0x540FE, size: 0x8, addend: 0x0, symName: __ZNSt3__19__launderB7v160006IKNS_4pairIKcP4NodeEEEEPT_S8_, symObjAddr: 0x2E38, symBinAddr: 0x10001AFD0, symSize: 0x14 }
  - { offsetInCU: 0xA172, offset: 0x5417B, size: 0x8, addend: 0x0, symName: __ZNSt3__112construct_atB7v160006INS_4pairIKcP4NodeEEJS5_EPS5_EEPT_S8_DpOT0_, symObjAddr: 0x3C5C, symBinAddr: 0x10001BC60, symSize: 0x2C }
  - { offsetInCU: 0xA1E7, offset: 0x541F0, size: 0x8, addend: 0x0, symName: __ZNSt3__125__debug_db_invalidate_allB7v160006INS_12__hash_tableINS_17__hash_value_typeIcP4NodeEENS_22__unordered_map_hasherIcS5_NS_4hashIcEENS_8equal_toIcEELb1EEENS_21__unordered_map_equalIcS5_SA_S8_Lb1EEENS_9allocatorIS5_EEEEEEvPT_, symObjAddr: 0x41C4, symBinAddr: 0x10001C148, symSize: 0x10 }
  - { offsetInCU: 0xA27E, offset: 0x54287, size: 0x8, addend: 0x0, symName: __ZNSt3__1neB7v160006ERKNS_25__hash_map_const_iteratorINS_21__hash_const_iteratorIPNS_11__hash_nodeINS_17__hash_value_typeIcP4NodeEEPvEEEEEESD_, symObjAddr: 0x49E8, symBinAddr: 0x10001C8C8, symSize: 0x30 }
  - { offsetInCU: 0xA2BB, offset: 0x542C4, size: 0x8, addend: 0x0, symName: __ZNSt3__119__debug_db_insert_cB7v160006INS_6vectorIP4NodeNS_9allocatorIS3_EEEEEEvPT_, symObjAddr: 0x4B6C, symBinAddr: 0x10001CA4C, symSize: 0x10 }
  - { offsetInCU: 0xA31F, offset: 0x54328, size: 0x8, addend: 0x0, symName: __ZNSt3__112__to_addressB7v160006IP4NodeEEPT_S4_, symObjAddr: 0x4FB0, symBinAddr: 0x10001CE7C, symSize: 0x14 }
  - { offsetInCU: 0xA354, offset: 0x5435D, size: 0x8, addend: 0x0, symName: __ZNSt3__119__allocate_at_leastB7v160006INS_9allocatorIP4NodeEEEENS_19__allocation_resultINS_16allocator_traitsIT_E7pointerEEERS7_m, symObjAddr: 0x5750, symBinAddr: 0x10001D470, symSize: 0x40 }
  - { offsetInCU: 0xA397, offset: 0x543A0, size: 0x8, addend: 0x0, symName: __ZNSt3__142__uninitialized_allocator_move_if_noexceptB7v160006INS_9allocatorIP4NodeEENS_16reverse_iteratorIPS3_EES7_S3_vEET1_RT_T0_SB_S8_, symObjAddr: 0x59BC, symBinAddr: 0x10001D6DC, symSize: 0x78 }
  - { offsetInCU: 0xA416, offset: 0x5441F, size: 0x8, addend: 0x0, symName: __ZNSt3__14swapB7v160006IPP4NodeEENS_9enable_ifIXaasr21is_move_constructibleIT_EE5valuesr18is_move_assignableIS5_EE5valueEvE4typeERS5_S8_, symObjAddr: 0x5A80, symBinAddr: 0x10001D7A0, symSize: 0x3C }
  - { offsetInCU: 0xA468, offset: 0x54471, size: 0x8, addend: 0x0, symName: __ZNSt3__125__debug_db_invalidate_allB7v160006INS_6vectorIP4NodeNS_9allocatorIS3_EEEEEEvPT_, symObjAddr: 0x5B68, symBinAddr: 0x10001D888, symSize: 0x10 }
  - { offsetInCU: 0xA499, offset: 0x544A2, size: 0x8, addend: 0x0, symName: __ZNSt3__14moveB7v160006INS_16reverse_iteratorIPP4NodeEES5_EET0_T_S7_S6_, symObjAddr: 0x5BC0, symBinAddr: 0x10001D8E0, symSize: 0x78 }
  - { offsetInCU: 0xA4F3, offset: 0x544FC, size: 0x8, addend: 0x0, symName: __ZNSt3__16__moveB7v160006INS_17_ClassicAlgPolicyENS_16reverse_iteratorIPP4NodeEES6_S6_EENS_4pairIT0_T2_EES8_T1_S9_, symObjAddr: 0x5C38, symBinAddr: 0x10001D958, symSize: 0x64 }
  - { offsetInCU: 0xA55F, offset: 0x54568, size: 0x8, addend: 0x0, symName: __ZNSt3__123__dispatch_copy_or_moveB7v160006INS_17_ClassicAlgPolicyENS_11__move_loopIS1_EENS_14__move_trivialENS_16reverse_iteratorIPP4NodeEES9_S9_EENS_4pairIT2_T4_EESB_T3_SC_, symObjAddr: 0x5C9C, symBinAddr: 0x10001D9BC, symSize: 0x64 }
  - { offsetInCU: 0xA5DD, offset: 0x545E6, size: 0x8, addend: 0x0, symName: __ZNSt3__121__unwrap_and_dispatchB7v160006INS_10__overloadINS_11__move_loopINS_17_ClassicAlgPolicyEEENS_14__move_trivialEEENS_16reverse_iteratorIPP4NodeEESB_SB_Li0EEENS_4pairIT0_T2_EESD_T1_SE_, symObjAddr: 0x5D00, symBinAddr: 0x10001DA20, symSize: 0x12C }
  - { offsetInCU: 0xA670, offset: 0x54679, size: 0x8, addend: 0x0, symName: __ZNSt3__114__unwrap_rangeB7v160006INS_16reverse_iteratorIPP4NodeEES5_EEDaT_T0_, symObjAddr: 0x5E2C, symBinAddr: 0x10001DB4C, symSize: 0x4C }
  - { offsetInCU: 0xA7E3, offset: 0x547EC, size: 0x8, addend: 0x0, symName: __ZNSt3__113__unwrap_iterB7v160006INS_16reverse_iteratorIPP4NodeEENS_18__unwrap_iter_implIS5_Lb0EEELi0EEEDTclsrT0_8__unwrapclsr3stdE7declvalIT_EEEES9_, symObjAddr: 0x5F18, symBinAddr: 0x10001DC38, symSize: 0x44 }
  - { offsetInCU: 0xA828, offset: 0x54831, size: 0x8, addend: 0x0, symName: __ZNSt3__19make_pairB7v160006INS_16reverse_iteratorIPP4NodeEES5_EENS_4pairINS_18__unwrap_ref_decayIT_E4typeENS7_IT0_E4typeEEEOS8_OSB_, symObjAddr: 0x5F5C, symBinAddr: 0x10001DC7C, symSize: 0x38 }
  - { offsetInCU: 0xA877, offset: 0x54880, size: 0x8, addend: 0x0, symName: __ZNSt3__114__rewrap_rangeB7v160006INS_16reverse_iteratorIPP4NodeEES5_S5_EET0_S6_T1_, symObjAddr: 0x5F94, symBinAddr: 0x10001DCB4, symSize: 0x5C }
  - { offsetInCU: 0xA8CC, offset: 0x548D5, size: 0x8, addend: 0x0, symName: __ZNSt3__113__rewrap_iterB7v160006INS_16reverse_iteratorIPP4NodeEES5_NS_18__unwrap_iter_implIS5_Lb0EEEEET_S8_T0_, symObjAddr: 0x5FF0, symBinAddr: 0x10001DD10, symSize: 0x74 }
  - { offsetInCU: 0xA971, offset: 0x5497A, size: 0x8, addend: 0x0, symName: __ZNSt3__1neB7v160006IPP4NodeS3_EEbRKNS_16reverse_iteratorIT_EERKNS4_IT0_EE, symObjAddr: 0x6158, symBinAddr: 0x10001DE78, symSize: 0x48 }
  - { offsetInCU: 0xAA71, offset: 0x54A7A, size: 0x8, addend: 0x0, symName: __ZNSt3__1eqB7v160006IPP4NodeEEbRKNS_11__wrap_iterIT_EES8_, symObjAddr: 0x6658, symBinAddr: 0x10001E344, symSize: 0x48 }
  - { offsetInCU: 0xAAB4, offset: 0x54ABD, size: 0x8, addend: 0x0, symName: __ZNSt3__118__debug_db_erase_cB7v160006INS_6vectorIP4NodeNS_9allocatorIS3_EEEEEEvPT_, symObjAddr: 0x67EC, symBinAddr: 0x10001E4D8, symSize: 0x10 }
  - { offsetInCU: 0xAAE5, offset: 0x54AEE, size: 0x8, addend: 0x0, symName: __ZNSt3__1eqB7v160006ERKNS_15__hash_iteratorIPNS_11__hash_nodeINS_17__hash_value_typeIcP4NodeEEPvEEEESB_, symObjAddr: 0x6A30, symBinAddr: 0x10001E6E0, symSize: 0x30 }
  - { offsetInCU: 0xAB23, offset: 0x54B2C, size: 0x8, addend: 0x0, symName: __ZNSt3__115__debug_db_swapB7v160006INS_12__hash_tableINS_17__hash_value_typeIcP4NodeEENS_22__unordered_map_hasherIcS5_NS_4hashIcEENS_8equal_toIcEELb1EEENS_21__unordered_map_equalIcS5_SA_S8_Lb1EEENS_9allocatorIS5_EEEEEEvPT_SI_, symObjAddr: 0x7118, symBinAddr: 0x10001EDC8, symSize: 0x14 }
  - { offsetInCU: 0xAB89, offset: 0x54B92, size: 0x8, addend: 0x0, symName: __ZNSt3__119__allocate_at_leastB7v160006INS_9allocatorINS_12basic_stringIcNS_11char_traitsIcEENS1_IcEEEEEEEENS_19__allocation_resultINS_16allocator_traitsIT_E7pointerEEERSA_m, symObjAddr: 0x79F4, symBinAddr: 0x10001F5C0, symSize: 0x40 }
  - { offsetInCU: 0xABCC, offset: 0x54BD5, size: 0x8, addend: 0x0, symName: __ZNSt3__142__uninitialized_allocator_move_if_noexceptB7v160006INS_9allocatorINS_12basic_stringIcNS_11char_traitsIcEENS1_IcEEEEEENS_16reverse_iteratorIPS6_EESA_SA_EET2_RT_T0_T1_SB_, symObjAddr: 0x7C9C, symBinAddr: 0x10001F80C, symSize: 0x12C }
  - { offsetInCU: 0xAC6C, offset: 0x54C75, size: 0x8, addend: 0x0, symName: __ZNSt3__14swapB7v160006IPNS_12basic_stringIcNS_11char_traitsIcEENS_9allocatorIcEEEEEENS_9enable_ifIXaasr21is_move_constructibleIT_EE5valuesr18is_move_assignableIS9_EE5valueEvE4typeERS9_SC_, symObjAddr: 0x7E14, symBinAddr: 0x10001F984, symSize: 0x3C }
  - { offsetInCU: 0xACBE, offset: 0x54CC7, size: 0x8, addend: 0x0, symName: __ZNSt3__125__debug_db_invalidate_allB7v160006INS_6vectorINS_12basic_stringIcNS_11char_traitsIcEENS_9allocatorIcEEEENS5_IS7_EEEEEEvPT_, symObjAddr: 0x7F18, symBinAddr: 0x10001FA88, symSize: 0x10 }
  - { offsetInCU: 0xACEF, offset: 0x54CF8, size: 0x8, addend: 0x0, symName: __ZNSt3__122__make_exception_guardB7v160006INS_29_AllocatorDestroyRangeReverseINS_9allocatorINS_12basic_stringIcNS_11char_traitsIcEENS2_IcEEEEEENS_16reverse_iteratorIPS7_EEEEEENS_28__exception_guard_exceptionsIT_EESE_, symObjAddr: 0x7F70, symBinAddr: 0x10001FAE0, symSize: 0x4C }
  - { offsetInCU: 0xAD25, offset: 0x54D2E, size: 0x8, addend: 0x0, symName: __ZNSt3__1neB7v160006IPNS_12basic_stringIcNS_11char_traitsIcEENS_9allocatorIcEEEES7_EEbRKNS_16reverse_iteratorIT_EERKNS8_IT0_EE, symObjAddr: 0x8000, symBinAddr: 0x10001FB70, symSize: 0x48 }
  - { offsetInCU: 0xAD71, offset: 0x54D7A, size: 0x8, addend: 0x0, symName: __ZNSt3__112__to_addressB7v160006INS_16reverse_iteratorIPNS_12basic_stringIcNS_11char_traitsIcEENS_9allocatorIcEEEEEEvEENS_5decayIDTclsr19__to_address_helperIT_EE6__callclsr3stdE7declvalIRKSB_EEEEE4typeESD_, symObjAddr: 0x8078, symBinAddr: 0x10001FBE8, symSize: 0x24 }
  - { offsetInCU: 0xADA8, offset: 0x54DB1, size: 0x8, addend: 0x0, symName: __ZNSt3__112construct_atB7v160006INS_12basic_stringIcNS_11char_traitsIcEENS_9allocatorIcEEEEJS6_EPS6_EEPT_S9_DpOT0_, symObjAddr: 0x81C8, symBinAddr: 0x10001FD38, symSize: 0x3C }
  - { offsetInCU: 0xAE47, offset: 0x54E50, size: 0x8, addend: 0x0, symName: __ZNSt3__14prevB7v160006IPNS_12basic_stringIcNS_11char_traitsIcEENS_9allocatorIcEEEEEENS_9enable_ifIXsr25__is_cpp17_input_iteratorIT_EE5valueES9_E4typeES9_NS_15iterator_traitsIS9_E15difference_typeE, symObjAddr: 0x83C0, symBinAddr: 0x10001FDD8, symSize: 0x50 }
  - { offsetInCU: 0xAE8A, offset: 0x54E93, size: 0x8, addend: 0x0, symName: __ZNSt3__19__advanceB7v160006IPNS_12basic_stringIcNS_11char_traitsIcEENS_9allocatorIcEEEEEEvRT_NS_15iterator_traitsIS8_E15difference_typeENS_26random_access_iterator_tagE, symObjAddr: 0x8474, symBinAddr: 0x10001FE78, symSize: 0x30 }
  - { offsetInCU: 0xAED3, offset: 0x54EDC, size: 0x8, addend: 0x0, symName: __ZNSt3__119__allocator_destroyB7v160006INS_9allocatorINS_12basic_stringIcNS_11char_traitsIcEENS1_IcEEEEEENS_16reverse_iteratorINS8_IPS6_EEEESB_EEvRT_T0_T1_, symObjAddr: 0x85A8, symBinAddr: 0x10001FFAC, symSize: 0x70 }
  - { offsetInCU: 0xAF39, offset: 0x54F42, size: 0x8, addend: 0x0, symName: __ZNSt3__1neB7v160006INS_16reverse_iteratorIPNS_12basic_stringIcNS_11char_traitsIcEENS_9allocatorIcEEEEEES9_EEbRKNS1_IT_EERKNS1_IT0_EE, symObjAddr: 0x8654, symBinAddr: 0x100020058, symSize: 0x60 }
  - { offsetInCU: 0xAF85, offset: 0x54F8E, size: 0x8, addend: 0x0, symName: __ZNSt3__112__to_addressB7v160006INS_16reverse_iteratorINS1_IPNS_12basic_stringIcNS_11char_traitsIcEENS_9allocatorIcEEEEEEEEvEENS_5decayIDTclsr19__to_address_helperIT_EE6__callclsr3stdE7declvalIRKSC_EEEEE4typeESE_, symObjAddr: 0x86DC, symBinAddr: 0x1000200B8, symSize: 0x24 }
  - { offsetInCU: 0xAFE6, offset: 0x54FEF, size: 0x8, addend: 0x0, symName: __ZNSt3__14prevB7v160006INS_16reverse_iteratorIPNS_12basic_stringIcNS_11char_traitsIcEENS_9allocatorIcEEEEEEEENS_9enable_ifIXsr25__is_cpp17_input_iteratorIT_EE5valueESB_E4typeESB_NS_15iterator_traitsISB_E15difference_typeE, symObjAddr: 0x8820, symBinAddr: 0x1000201B4, symSize: 0x60 }
  - { offsetInCU: 0xB029, offset: 0x55032, size: 0x8, addend: 0x0, symName: __ZNSt3__19__advanceB7v160006INS_16reverse_iteratorIPNS_12basic_stringIcNS_11char_traitsIcEENS_9allocatorIcEEEEEEEEvRT_NS_15iterator_traitsISA_E15difference_typeENS_26random_access_iterator_tagE, symObjAddr: 0x88D0, symBinAddr: 0x100020264, symSize: 0x2C }
  - { offsetInCU: 0xB073, offset: 0x5507C, size: 0x8, addend: 0x0, symName: __ZNSt3__14copyB7v160006IPKcPcEET0_T_S5_S4_, symObjAddr: 0x943C, symBinAddr: 0x100020C78, symSize: 0x40 }
  - { offsetInCU: 0xB0CD, offset: 0x550D6, size: 0x8, addend: 0x0, symName: __ZNSt3__16__copyB7v160006INS_17_ClassicAlgPolicyEPKcS3_PcEENS_4pairIT0_T2_EES6_T1_S7_, symObjAddr: 0x947C, symBinAddr: 0x100020CB8, symSize: 0x44 }
  - { offsetInCU: 0xB139, offset: 0x55142, size: 0x8, addend: 0x0, symName: __ZNSt3__123__dispatch_copy_or_moveB7v160006INS_17_ClassicAlgPolicyENS_11__copy_loopIS1_EENS_14__copy_trivialEPKcS6_PcEENS_4pairIT2_T4_EES9_T3_SA_, symObjAddr: 0x94C0, symBinAddr: 0x100020CFC, symSize: 0x44 }
  - { offsetInCU: 0xB1B7, offset: 0x551C0, size: 0x8, addend: 0x0, symName: __ZNSt3__121__unwrap_and_dispatchB7v160006INS_10__overloadINS_11__copy_loopINS_17_ClassicAlgPolicyEEENS_14__copy_trivialEEEPKcS8_PcLi0EEENS_4pairIT0_T2_EESB_T1_SC_, symObjAddr: 0x9504, symBinAddr: 0x100020D40, symSize: 0xB4 }
  - { offsetInCU: 0xB248, offset: 0x55251, size: 0x8, addend: 0x0, symName: __ZNSt3__114__unwrap_rangeB7v160006IPKcS2_EEDaT_T0_, symObjAddr: 0x95B8, symBinAddr: 0x100020DF4, symSize: 0x3C }
  - { offsetInCU: 0xB3E0, offset: 0x553E9, size: 0x8, addend: 0x0, symName: __ZNSt3__113__unwrap_iterB7v160006IPcNS_18__unwrap_iter_implIS1_Lb1EEELi0EEEDTclsrT0_8__unwrapclsr3stdE7declvalIT_EEEES5_, symObjAddr: 0x963C, symBinAddr: 0x100020E78, symSize: 0x24 }
  - { offsetInCU: 0xB425, offset: 0x5542E, size: 0x8, addend: 0x0, symName: __ZNSt3__19make_pairB7v160006IPKcPcEENS_4pairINS_18__unwrap_ref_decayIT_E4typeENS5_IT0_E4typeEEEOS6_OS9_, symObjAddr: 0x9660, symBinAddr: 0x100020E9C, symSize: 0x38 }
  - { offsetInCU: 0xB474, offset: 0x5547D, size: 0x8, addend: 0x0, symName: __ZNSt3__114__rewrap_rangeB7v160006IPKcS2_S2_EET0_S3_T1_, symObjAddr: 0x9698, symBinAddr: 0x100020ED4, symSize: 0x2C }
  - { offsetInCU: 0xB4C9, offset: 0x554D2, size: 0x8, addend: 0x0, symName: __ZNSt3__113__rewrap_iterB7v160006IPcS1_NS_18__unwrap_iter_implIS1_Lb1EEEEET_S4_T0_, symObjAddr: 0x96C4, symBinAddr: 0x100020F00, symSize: 0x3C }
  - { offsetInCU: 0xB63D, offset: 0x55646, size: 0x8, addend: 0x0, symName: __ZNSt3__113__unwrap_iterB7v160006IPKcNS_18__unwrap_iter_implIS2_Lb1EEELi0EEEDTclsrT0_8__unwrapclsr3stdE7declvalIT_EEEES6_, symObjAddr: 0x9758, symBinAddr: 0x100020F94, symSize: 0x24 }
  - { offsetInCU: 0xB6D6, offset: 0x556DF, size: 0x8, addend: 0x0, symName: __ZNSt3__119__copy_trivial_implB7v160006IKccEENS_4pairIPT_PT0_EES4_S4_S6_, symObjAddr: 0x9810, symBinAddr: 0x10002104C, symSize: 0x7C }
  - { offsetInCU: 0xB73F, offset: 0x55748, size: 0x8, addend: 0x0, symName: __ZNSt3__19make_pairB7v160006IRPKcPcEENS_4pairINS_18__unwrap_ref_decayIT_E4typeENS6_IT0_E4typeEEEOS7_OSA_, symObjAddr: 0x988C, symBinAddr: 0x1000210C8, symSize: 0x38 }
  - { offsetInCU: 0xB7E2, offset: 0x557EB, size: 0x8, addend: 0x0, symName: __ZNSt3__113__rewrap_iterB7v160006IPKcS2_NS_18__unwrap_iter_implIS2_Lb1EEEEET_S5_T0_, symObjAddr: 0x99F4, symBinAddr: 0x100021230, symSize: 0x3C }
  - { offsetInCU: 0xB837, offset: 0x55840, size: 0x8, addend: 0x0, symName: __ZNSt3__16fill_nB7v160006IPcmcEET_S2_T0_RKT1_, symObjAddr: 0x9AC0, symBinAddr: 0x1000212FC, symSize: 0x44 }
  - { offsetInCU: 0xB89A, offset: 0x558A3, size: 0x8, addend: 0x0, symName: __ZNSt3__18__fill_nB7v160006IPcmcEET_S2_T0_RKT1_, symObjAddr: 0x9B04, symBinAddr: 0x100021340, symSize: 0x64 }
  - { offsetInCU: 0xB8FD, offset: 0x55906, size: 0x8, addend: 0x0, symName: __ZNSt3__121__convert_to_integralB7v160006Em, symObjAddr: 0x9B68, symBinAddr: 0x1000213A4, symSize: 0x14 }
  - { offsetInCU: 0xB929, offset: 0x55932, size: 0x8, addend: 0x0, symName: __ZNSt3__1eqB7v160006IPcEEbRKNS_11__wrap_iterIT_EES6_, symObjAddr: 0x9C10, symBinAddr: 0x10002144C, symSize: 0x48 }
  - { offsetInCU: 0xB96C, offset: 0x55975, size: 0x8, addend: 0x0, symName: __ZNSt3__119__debug_db_insert_cB7v160006INS_6vectorINS_12basic_stringIcNS_11char_traitsIcEENS_9allocatorIcEEEENS5_IS7_EEEEEEvPT_, symObjAddr: 0x9D04, symBinAddr: 0x100021540, symSize: 0x10 }
  - { offsetInCU: 0xB99D, offset: 0x559A6, size: 0x8, addend: 0x0, symName: __ZNSt3__118__debug_db_erase_cB7v160006INS_6vectorINS_12basic_stringIcNS_11char_traitsIcEENS_9allocatorIcEEEENS5_IS7_EEEEEEvPT_, symObjAddr: 0x9EF4, symBinAddr: 0x1000216C4, symSize: 0x10 }
  - { offsetInCU: 0xC51F, offset: 0x56528, size: 0x8, addend: 0x0, symName: __ZNSt3__16vectorIP4NodeNS_9allocatorIS2_EEE26__swap_out_circular_bufferERNS_14__split_bufferIS2_RS4_EE, symObjAddr: 0x51D8, symBinAddr: 0x10001D078, symSize: 0x118 }
  - { offsetInCU: 0xC6BE, offset: 0x566C7, size: 0x8, addend: 0x0, symName: __ZNSt3__16vectorINS_12basic_stringIcNS_11char_traitsIcEENS_9allocatorIcEEEENS4_IS6_EEE26__swap_out_circular_bufferERNS_14__split_bufferIS6_RS7_EE, symObjAddr: 0x75F0, symBinAddr: 0x10001F1F8, symSize: 0x118 }
  - { offsetInCU: 0xE62A, offset: 0x58633, size: 0x8, addend: 0x0, symName: __ZN5TriesC2Ev, symObjAddr: 0x0, symBinAddr: 0x1000186D4, symSize: 0x68 }
  - { offsetInCU: 0xE654, offset: 0x5865D, size: 0x8, addend: 0x0, symName: __ZN4NodeC1Ev, symObjAddr: 0x68, symBinAddr: 0x10001873C, symSize: 0x2C }
  - { offsetInCU: 0xE67C, offset: 0x58685, size: 0x8, addend: 0x0, symName: __ZN5TriesC1Ev, symObjAddr: 0x94, symBinAddr: 0x100018768, symSize: 0x2C }
  - { offsetInCU: 0xE6A6, offset: 0x586AF, size: 0x8, addend: 0x0, symName: __ZN5TriesD2Ev, symObjAddr: 0xC0, symBinAddr: 0x100018794, symSize: 0x64 }
  - { offsetInCU: 0xE6D0, offset: 0x586D9, size: 0x8, addend: 0x0, symName: __ZN4NodeD1Ev, symObjAddr: 0x124, symBinAddr: 0x1000187F8, symSize: 0x2C }
  - { offsetInCU: 0xE6FA, offset: 0x58703, size: 0x8, addend: 0x0, symName: __ZN5TriesD1Ev, symObjAddr: 0x150, symBinAddr: 0x100018824, symSize: 0x2C }
  - { offsetInCU: 0xE724, offset: 0x5872D, size: 0x8, addend: 0x0, symName: __ZN5Tries6insertENSt3__112basic_stringIcNS0_11char_traitsIcEENS0_9allocatorIcEEEE, symObjAddr: 0x17C, symBinAddr: 0x100018850, symSize: 0xC0 }
  - { offsetInCU: 0xE7BC, offset: 0x587C5, size: 0x8, addend: 0x0, symName: __ZNKSt3__112basic_stringIcNS_11char_traitsIcEENS_9allocatorIcEEE5beginB7v160006Ev, symObjAddr: 0x23C, symBinAddr: 0x100018910, symSize: 0x4C }
  - { offsetInCU: 0xE7E0, offset: 0x587E9, size: 0x8, addend: 0x0, symName: __ZNKSt3__112basic_stringIcNS_11char_traitsIcEENS_9allocatorIcEEE3endB7v160006Ev, symObjAddr: 0x288, symBinAddr: 0x10001895C, symSize: 0x54 }
  - { offsetInCU: 0xE804, offset: 0x5880D, size: 0x8, addend: 0x0, symName: __ZNKSt3__111__wrap_iterIPKcEdeB7v160006Ev, symObjAddr: 0x310, symBinAddr: 0x1000189E4, symSize: 0x18 }
  - { offsetInCU: 0xE828, offset: 0x58831, size: 0x8, addend: 0x0, symName: __ZN4Node3hasEc, symObjAddr: 0x328, symBinAddr: 0x1000189FC, symSize: 0x40 }
  - { offsetInCU: 0xE85A, offset: 0x58863, size: 0x8, addend: 0x0, symName: __ZN4Node6insertEc, symObjAddr: 0x368, symBinAddr: 0x100018A3C, symSize: 0x98 }
  - { offsetInCU: 0xE88C, offset: 0x58895, size: 0x8, addend: 0x0, symName: __ZN4Node3getEc, symObjAddr: 0x400, symBinAddr: 0x100018AD4, symSize: 0x80 }
  - { offsetInCU: 0xE8BE, offset: 0x588C7, size: 0x8, addend: 0x0, symName: __ZNSt3__111__wrap_iterIPKcEppB7v160006Ev, symObjAddr: 0x480, symBinAddr: 0x100018B54, symSize: 0x20 }
  - { offsetInCU: 0xE8E2, offset: 0x588EB, size: 0x8, addend: 0x0, symName: __ZN4Node9markAsEndEv, symObjAddr: 0x4A0, symBinAddr: 0x100018B74, symSize: 0x1C }
  - { offsetInCU: 0xE906, offset: 0x5890F, size: 0x8, addend: 0x0, symName: __ZNK5Tries8containsENSt3__112basic_stringIcNS0_11char_traitsIcEENS0_9allocatorIcEEEE, symObjAddr: 0x4BC, symBinAddr: 0x100018B90, symSize: 0x134 }
  - { offsetInCU: 0xE99E, offset: 0x589A7, size: 0x8, addend: 0x0, symName: __ZNK5Tries16preOrderTraverseEPK4Node, symObjAddr: 0x614, symBinAddr: 0x100018CC4, symSize: 0xE4 }
  - { offsetInCU: 0xEA14, offset: 0x58A1D, size: 0x8, addend: 0x0, symName: __ZNK4Node11getChildrenEv, symObjAddr: 0x72C, symBinAddr: 0x100018DA8, symSize: 0x120 }
  - { offsetInCU: 0xEA9C, offset: 0x58AA5, size: 0x8, addend: 0x0, symName: __ZNSt3__16vectorIP4NodeNS_9allocatorIS2_EEE5beginB7v160006Ev, symObjAddr: 0x84C, symBinAddr: 0x100018EC8, symSize: 0x30 }
  - { offsetInCU: 0xEAC2, offset: 0x58ACB, size: 0x8, addend: 0x0, symName: __ZNSt3__16vectorIP4NodeNS_9allocatorIS2_EEE3endB7v160006Ev, symObjAddr: 0x87C, symBinAddr: 0x100018EF8, symSize: 0x30 }
  - { offsetInCU: 0xEAE8, offset: 0x58AF1, size: 0x8, addend: 0x0, symName: __ZNKSt3__111__wrap_iterIPP4NodeEdeB7v160006Ev, symObjAddr: 0x8E0, symBinAddr: 0x100018F5C, symSize: 0x18 }
  - { offsetInCU: 0xEB0C, offset: 0x58B15, size: 0x8, addend: 0x0, symName: __ZNSt3__111__wrap_iterIPP4NodeEppB7v160006Ev, symObjAddr: 0x8F8, symBinAddr: 0x100018F74, symSize: 0x20 }
  - { offsetInCU: 0xEB30, offset: 0x58B39, size: 0x8, addend: 0x0, symName: __ZNSt3__16vectorIP4NodeNS_9allocatorIS2_EEED1B7v160006Ev, symObjAddr: 0x918, symBinAddr: 0x100018F94, symSize: 0x2C }
  - { offsetInCU: 0xEB58, offset: 0x58B61, size: 0x8, addend: 0x0, symName: __ZNK5Tries16preOrderTraverseEv, symObjAddr: 0x944, symBinAddr: 0x100018FC0, symSize: 0x28 }
  - { offsetInCU: 0xEB7E, offset: 0x58B87, size: 0x8, addend: 0x0, symName: __ZNK5Tries17postOrderTraverseEPK4Node, symObjAddr: 0x96C, symBinAddr: 0x100018FE8, symSize: 0xE4 }
  - { offsetInCU: 0xEBF4, offset: 0x58BFD, size: 0x8, addend: 0x0, symName: __ZNK5Tries17postOrderTraverseEv, symObjAddr: 0xA50, symBinAddr: 0x1000190CC, symSize: 0x28 }
  - { offsetInCU: 0xEC19, offset: 0x58C22, size: 0x8, addend: 0x0, symName: __Z15isLastCharacterNSt3__112basic_stringIcNS_11char_traitsIcEENS_9allocatorIcEEEEi, symObjAddr: 0xA78, symBinAddr: 0x1000190F4, symSize: 0x40 }
  - { offsetInCU: 0xEC55, offset: 0x58C5E, size: 0x8, addend: 0x0, symName: __ZN5Tries6removeER4NodeNSt3__112basic_stringIcNS2_11char_traitsIcEENS2_9allocatorIcEEEEi, symObjAddr: 0xAB8, symBinAddr: 0x100019134, symSize: 0x1C8 }
  - { offsetInCU: 0xECA6, offset: 0x58CAF, size: 0x8, addend: 0x0, symName: __ZNKSt3__112basic_stringIcNS_11char_traitsIcEENS_9allocatorIcEEEixB7v160006Em, symObjAddr: 0xC80, symBinAddr: 0x1000192FC, symSize: 0x30 }
  - { offsetInCU: 0xECD9, offset: 0x58CE2, size: 0x8, addend: 0x0, symName: __ZNK4Node10isLeafNodeEv, symObjAddr: 0xCB0, symBinAddr: 0x10001932C, symSize: 0x2C }
  - { offsetInCU: 0xECFD, offset: 0x58D06, size: 0x8, addend: 0x0, symName: __ZN4Node11deleteChildEc, symObjAddr: 0xCDC, symBinAddr: 0x100019358, symSize: 0x34 }
  - { offsetInCU: 0xED2F, offset: 0x58D38, size: 0x8, addend: 0x0, symName: __ZN4NodeC1Ec, symObjAddr: 0xD10, symBinAddr: 0x10001938C, symSize: 0x34 }
  - { offsetInCU: 0xED6A, offset: 0x58D73, size: 0x8, addend: 0x0, symName: __ZN4NodeaSEOS_, symObjAddr: 0xD44, symBinAddr: 0x1000193C0, symSize: 0x58 }
  - { offsetInCU: 0xED99, offset: 0x58DA2, size: 0x8, addend: 0x0, symName: __ZN5Tries6removeENSt3__112basic_stringIcNS0_11char_traitsIcEENS0_9allocatorIcEEEE, symObjAddr: 0xD9C, symBinAddr: 0x100019418, symSize: 0x80 }
  - { offsetInCU: 0xEDCE, offset: 0x58DD7, size: 0x8, addend: 0x0, symName: __ZN5Tries17preOrderTraversalEP4NodeNSt3__112basic_stringIcNS2_11char_traitsIcEENS2_9allocatorIcEEEERNS2_6vectorIS8_NS6_IS8_EEEE, symObjAddr: 0xE1C, symBinAddr: 0x100019498, symSize: 0x160 }
  - { offsetInCU: 0xEE64, offset: 0x58E6D, size: 0x8, addend: 0x0, symName: __ZNSt3__16vectorINS_12basic_stringIcNS_11char_traitsIcEENS_9allocatorIcEEEENS4_IS6_EEE9push_backB7v160006ERKS6_, symObjAddr: 0xF7C, symBinAddr: 0x1000195F8, symSize: 0x6C }
  - { offsetInCU: 0xEE99, offset: 0x58EA2, size: 0x8, addend: 0x0, symName: __ZN5Tries21findLastCharacterNodeENSt3__112basic_stringIcNS0_11char_traitsIcEENS0_9allocatorIcEEEE, symObjAddr: 0x10F8, symBinAddr: 0x100019774, symSize: 0xC0 }
  - { offsetInCU: 0xEF31, offset: 0x58F3A, size: 0x8, addend: 0x0, symName: __ZNSt3__112basic_stringIcNS_11char_traitsIcEENS_9allocatorIcEEE5beginB7v160006Ev, symObjAddr: 0x11B8, symBinAddr: 0x100019834, symSize: 0x4C }
  - { offsetInCU: 0xEF55, offset: 0x58F5E, size: 0x8, addend: 0x0, symName: __ZNSt3__112basic_stringIcNS_11char_traitsIcEENS_9allocatorIcEEE3endB7v160006Ev, symObjAddr: 0x1204, symBinAddr: 0x100019880, symSize: 0x54 }
  - { offsetInCU: 0xEF79, offset: 0x58F82, size: 0x8, addend: 0x0, symName: __ZNKSt3__111__wrap_iterIPcEdeB7v160006Ev, symObjAddr: 0x128C, symBinAddr: 0x100019908, symSize: 0x18 }
  - { offsetInCU: 0xEF9D, offset: 0x58FA6, size: 0x8, addend: 0x0, symName: __ZNSt3__111__wrap_iterIPcEppB7v160006Ev, symObjAddr: 0x12A4, symBinAddr: 0x100019920, symSize: 0x20 }
  - { offsetInCU: 0xEFC1, offset: 0x58FCA, size: 0x8, addend: 0x0, symName: __ZN5Tries12autoCompleteENSt3__112basic_stringIcNS0_11char_traitsIcEENS0_9allocatorIcEEEE, symObjAddr: 0x12C4, symBinAddr: 0x100019940, symSize: 0x19C }
  - { offsetInCU: 0xF032, offset: 0x5903B, size: 0x8, addend: 0x0, symName: __ZNSt3__16vectorINS_12basic_stringIcNS_11char_traitsIcEENS_9allocatorIcEEEENS4_IS6_EEEC1B7v160006Ev, symObjAddr: 0x1460, symBinAddr: 0x100019ADC, symSize: 0x2C }
  - { offsetInCU: 0xF05A, offset: 0x59063, size: 0x8, addend: 0x0, symName: __ZNKSt3__16vectorINS_12basic_stringIcNS_11char_traitsIcEENS_9allocatorIcEEEENS4_IS6_EEE4sizeB7v160006Ev, symObjAddr: 0x148C, symBinAddr: 0x100019B08, symSize: 0x28 }
  - { offsetInCU: 0xF07E, offset: 0x59087, size: 0x8, addend: 0x0, symName: __ZNSt3__16vectorINS_12basic_stringIcNS_11char_traitsIcEENS_9allocatorIcEEEENS4_IS6_EEEixB7v160006Em, symObjAddr: 0x1500, symBinAddr: 0x100019B30, symSize: 0x2C }
  - { offsetInCU: 0xF0B3, offset: 0x590BC, size: 0x8, addend: 0x0, symName: __ZNSt3__16vectorINS_12basic_stringIcNS_11char_traitsIcEENS_9allocatorIcEEEENS4_IS6_EEED1B7v160006Ev, symObjAddr: 0x15B0, symBinAddr: 0x100019B5C, symSize: 0x2C }
  - { offsetInCU: 0xF0DB, offset: 0x590E4, size: 0x8, addend: 0x0, symName: __ZN4NodeC2Ev, symObjAddr: 0x15DC, symBinAddr: 0x100019B88, symSize: 0x34 }
  - { offsetInCU: 0xF103, offset: 0x5910C, size: 0x8, addend: 0x0, symName: __ZNSt3__113unordered_mapIcP4NodeNS_4hashIcEENS_8equal_toIcEENS_9allocatorINS_4pairIKcS2_EEEEEC1B7v160006Ev, symObjAddr: 0x1610, symBinAddr: 0x100019BBC, symSize: 0x2C }
  - { offsetInCU: 0xF12B, offset: 0x59134, size: 0x8, addend: 0x0, symName: __ZNSt3__113unordered_mapIcP4NodeNS_4hashIcEENS_8equal_toIcEENS_9allocatorINS_4pairIKcS2_EEEEEC2B7v160006Ev, symObjAddr: 0x163C, symBinAddr: 0x100019BE8, symSize: 0x3C }
  - { offsetInCU: 0xF153, offset: 0x5915C, size: 0x8, addend: 0x0, symName: __ZNSt3__112__hash_tableINS_17__hash_value_typeIcP4NodeEENS_22__unordered_map_hasherIcS4_NS_4hashIcEENS_8equal_toIcEELb1EEENS_21__unordered_map_equalIcS4_S9_S7_Lb1EEENS_9allocatorIS4_EEEC1Ev, symObjAddr: 0x1678, symBinAddr: 0x100019C24, symSize: 0x2C }
  - { offsetInCU: 0xF17E, offset: 0x59187, size: 0x8, addend: 0x0, symName: __ZNSt3__112__hash_tableINS_17__hash_value_typeIcP4NodeEENS_22__unordered_map_hasherIcS4_NS_4hashIcEENS_8equal_toIcEELb1EEENS_21__unordered_map_equalIcS4_S9_S7_Lb1EEENS_9allocatorIS4_EEEC2Ev, symObjAddr: 0x16C0, symBinAddr: 0x100019C60, symSize: 0x7C }
  - { offsetInCU: 0xF1A9, offset: 0x591B2, size: 0x8, addend: 0x0, symName: __ZNSt3__110unique_ptrIA_PNS_16__hash_node_baseIPNS_11__hash_nodeINS_17__hash_value_typeIcP4NodeEEPvEEEENS_25__bucket_list_deallocatorINS_9allocatorISB_EEEEEC1B7v160006ILb1EvEEv, symObjAddr: 0x173C, symBinAddr: 0x100019CDC, symSize: 0x2C }
  - { offsetInCU: 0xF1DD, offset: 0x591E6, size: 0x8, addend: 0x0, symName: __ZNSt3__117__compressed_pairINS_16__hash_node_baseIPNS_11__hash_nodeINS_17__hash_value_typeIcP4NodeEEPvEEEENS_9allocatorIS8_EEEC1B7v160006ILb1EvEEv, symObjAddr: 0x1768, symBinAddr: 0x100019D08, symSize: 0x2C }
  - { offsetInCU: 0xF21B, offset: 0x59224, size: 0x8, addend: 0x0, symName: __ZNSt3__117__compressed_pairImNS_22__unordered_map_hasherIcNS_17__hash_value_typeIcP4NodeEENS_4hashIcEENS_8equal_toIcEELb1EEEEC1B7v160006IiNS_18__default_init_tagEEEOT_OT0_, symObjAddr: 0x1794, symBinAddr: 0x100019D34, symSize: 0x3C }
  - { offsetInCU: 0xF276, offset: 0x5927F, size: 0x8, addend: 0x0, symName: __ZNSt3__117__compressed_pairIfNS_21__unordered_map_equalIcNS_17__hash_value_typeIcP4NodeEENS_8equal_toIcEENS_4hashIcEELb1EEEEC1B7v160006IfNS_18__default_init_tagEEEOT_OT0_, symObjAddr: 0x17D0, symBinAddr: 0x100019D70, symSize: 0x3C }
  - { offsetInCU: 0xF2CC, offset: 0x592D5, size: 0x8, addend: 0x0, symName: __ZNSt3__110unique_ptrIA_PNS_16__hash_node_baseIPNS_11__hash_nodeINS_17__hash_value_typeIcP4NodeEEPvEEEENS_25__bucket_list_deallocatorINS_9allocatorISB_EEEEEC2B7v160006ILb1EvEEv, symObjAddr: 0x180C, symBinAddr: 0x100019DAC, symSize: 0x3C }
  - { offsetInCU: 0xF305, offset: 0x5930E, size: 0x8, addend: 0x0, symName: __ZNSt3__117__compressed_pairIPPNS_16__hash_node_baseIPNS_11__hash_nodeINS_17__hash_value_typeIcP4NodeEEPvEEEENS_25__bucket_list_deallocatorINS_9allocatorISB_EEEEEC1B7v160006INS_16__value_init_tagESJ_EEOT_OT0_, symObjAddr: 0x1848, symBinAddr: 0x100019DE8, symSize: 0x3C }
  - { offsetInCU: 0xF35B, offset: 0x59364, size: 0x8, addend: 0x0, symName: __ZNSt3__117__compressed_pairIPPNS_16__hash_node_baseIPNS_11__hash_nodeINS_17__hash_value_typeIcP4NodeEEPvEEEENS_25__bucket_list_deallocatorINS_9allocatorISB_EEEEEC2B7v160006INS_16__value_init_tagESJ_EEOT_OT0_, symObjAddr: 0x1884, symBinAddr: 0x100019E24, symSize: 0x40 }
  - { offsetInCU: 0xF3B1, offset: 0x593BA, size: 0x8, addend: 0x0, symName: __ZNSt3__122__compressed_pair_elemIPPNS_16__hash_node_baseIPNS_11__hash_nodeINS_17__hash_value_typeIcP4NodeEEPvEEEELi0ELb0EEC2B7v160006ENS_16__value_init_tagE, symObjAddr: 0x18C4, symBinAddr: 0x100019E64, symSize: 0x18 }
  - { offsetInCU: 0xF3E3, offset: 0x593EC, size: 0x8, addend: 0x0, symName: __ZNSt3__122__compressed_pair_elemINS_25__bucket_list_deallocatorINS_9allocatorIPNS_16__hash_node_baseIPNS_11__hash_nodeINS_17__hash_value_typeIcP4NodeEEPvEEEEEEEELi1ELb0EEC2B7v160006ENS_16__value_init_tagE, symObjAddr: 0x18DC, symBinAddr: 0x100019E7C, symSize: 0x2C }
  - { offsetInCU: 0xF415, offset: 0x5941E, size: 0x8, addend: 0x0, symName: __ZNSt3__125__bucket_list_deallocatorINS_9allocatorIPNS_16__hash_node_baseIPNS_11__hash_nodeINS_17__hash_value_typeIcP4NodeEEPvEEEEEEEC1B7v160006Ev, symObjAddr: 0x1908, symBinAddr: 0x100019EA8, symSize: 0x2C }
  - { offsetInCU: 0xF43D, offset: 0x59446, size: 0x8, addend: 0x0, symName: __ZNSt3__125__bucket_list_deallocatorINS_9allocatorIPNS_16__hash_node_baseIPNS_11__hash_nodeINS_17__hash_value_typeIcP4NodeEEPvEEEEEEEC2B7v160006Ev, symObjAddr: 0x1934, symBinAddr: 0x100019ED4, symSize: 0x40 }
  - { offsetInCU: 0xF465, offset: 0x5946E, size: 0x8, addend: 0x0, symName: __ZNSt3__117__compressed_pairImNS_9allocatorIPNS_16__hash_node_baseIPNS_11__hash_nodeINS_17__hash_value_typeIcP4NodeEEPvEEEEEEEC1B7v160006IiNS_18__default_init_tagEEEOT_OT0_, symObjAddr: 0x1974, symBinAddr: 0x100019F14, symSize: 0x3C }
  - { offsetInCU: 0xF4BB, offset: 0x594C4, size: 0x8, addend: 0x0, symName: __ZNSt3__117__compressed_pairImNS_9allocatorIPNS_16__hash_node_baseIPNS_11__hash_nodeINS_17__hash_value_typeIcP4NodeEEPvEEEEEEEC2B7v160006IiNS_18__default_init_tagEEEOT_OT0_, symObjAddr: 0x19B0, symBinAddr: 0x100019F50, symSize: 0x40 }
  - { offsetInCU: 0xF511, offset: 0x5951A, size: 0x8, addend: 0x0, symName: __ZNSt3__122__compressed_pair_elemINS_9allocatorIPNS_16__hash_node_baseIPNS_11__hash_nodeINS_17__hash_value_typeIcP4NodeEEPvEEEEEELi1ELb1EEC2B7v160006ENS_18__default_init_tagE, symObjAddr: 0x1A14, symBinAddr: 0x100019F90, symSize: 0x2C }
  - { offsetInCU: 0xF543, offset: 0x5954C, size: 0x8, addend: 0x0, symName: __ZNSt3__19allocatorIPNS_16__hash_node_baseIPNS_11__hash_nodeINS_17__hash_value_typeIcP4NodeEEPvEEEEEC2B7v160006Ev, symObjAddr: 0x1A40, symBinAddr: 0x100019FBC, symSize: 0x2C }
  - { offsetInCU: 0xF56B, offset: 0x59574, size: 0x8, addend: 0x0, symName: __ZNSt3__116__non_trivial_ifILb1ENS_9allocatorIPNS_16__hash_node_baseIPNS_11__hash_nodeINS_17__hash_value_typeIcP4NodeEEPvEEEEEEEC2B7v160006Ev, symObjAddr: 0x1A6C, symBinAddr: 0x100019FE8, symSize: 0x14 }
  - { offsetInCU: 0xF593, offset: 0x5959C, size: 0x8, addend: 0x0, symName: __ZNSt3__117__compressed_pairINS_16__hash_node_baseIPNS_11__hash_nodeINS_17__hash_value_typeIcP4NodeEEPvEEEENS_9allocatorIS8_EEEC2B7v160006ILb1EvEEv, symObjAddr: 0x1A80, symBinAddr: 0x100019FFC, symSize: 0x34 }
  - { offsetInCU: 0xF5C7, offset: 0x595D0, size: 0x8, addend: 0x0, symName: __ZNSt3__122__compressed_pair_elemINS_16__hash_node_baseIPNS_11__hash_nodeINS_17__hash_value_typeIcP4NodeEEPvEEEELi0ELb0EEC2B7v160006ENS_16__value_init_tagE, symObjAddr: 0x1AB4, symBinAddr: 0x10001A030, symSize: 0x2C }
  - { offsetInCU: 0xF5F9, offset: 0x59602, size: 0x8, addend: 0x0, symName: __ZNSt3__122__compressed_pair_elemINS_9allocatorINS_11__hash_nodeINS_17__hash_value_typeIcP4NodeEEPvEEEELi1ELb1EEC2B7v160006ENS_16__value_init_tagE, symObjAddr: 0x1AE0, symBinAddr: 0x10001A05C, symSize: 0x2C }
  - { offsetInCU: 0xF62B, offset: 0x59634, size: 0x8, addend: 0x0, symName: __ZNSt3__116__hash_node_baseIPNS_11__hash_nodeINS_17__hash_value_typeIcP4NodeEEPvEEEC1B7v160006Ev, symObjAddr: 0x1B0C, symBinAddr: 0x10001A088, symSize: 0x2C }
  - { offsetInCU: 0xF653, offset: 0x5965C, size: 0x8, addend: 0x0, symName: __ZNSt3__116__hash_node_baseIPNS_11__hash_nodeINS_17__hash_value_typeIcP4NodeEEPvEEEC2B7v160006Ev, symObjAddr: 0x1B38, symBinAddr: 0x10001A0B4, symSize: 0x18 }
  - { offsetInCU: 0xF67B, offset: 0x59684, size: 0x8, addend: 0x0, symName: __ZNSt3__19allocatorINS_11__hash_nodeINS_17__hash_value_typeIcP4NodeEEPvEEEC2B7v160006Ev, symObjAddr: 0x1B50, symBinAddr: 0x10001A0CC, symSize: 0x2C }
  - { offsetInCU: 0xF6A3, offset: 0x596AC, size: 0x8, addend: 0x0, symName: __ZNSt3__116__non_trivial_ifILb1ENS_9allocatorINS_11__hash_nodeINS_17__hash_value_typeIcP4NodeEEPvEEEEEC2B7v160006Ev, symObjAddr: 0x1B7C, symBinAddr: 0x10001A0F8, symSize: 0x14 }
  - { offsetInCU: 0xF6CB, offset: 0x596D4, size: 0x8, addend: 0x0, symName: __ZNSt3__117__compressed_pairImNS_22__unordered_map_hasherIcNS_17__hash_value_typeIcP4NodeEENS_4hashIcEENS_8equal_toIcEELb1EEEEC2B7v160006IiNS_18__default_init_tagEEEOT_OT0_, symObjAddr: 0x1B90, symBinAddr: 0x10001A10C, symSize: 0x40 }
  - { offsetInCU: 0xF721, offset: 0x5972A, size: 0x8, addend: 0x0, symName: __ZNSt3__122__compressed_pair_elemINS_22__unordered_map_hasherIcNS_17__hash_value_typeIcP4NodeEENS_4hashIcEENS_8equal_toIcEELb1EEELi1ELb1EEC2B7v160006ENS_18__default_init_tagE, symObjAddr: 0x1BD0, symBinAddr: 0x10001A14C, symSize: 0x2C }
  - { offsetInCU: 0xF753, offset: 0x5975C, size: 0x8, addend: 0x0, symName: __ZNSt3__122__unordered_map_hasherIcNS_17__hash_value_typeIcP4NodeEENS_4hashIcEENS_8equal_toIcEELb1EEC2B7v160006Ev, symObjAddr: 0x1BFC, symBinAddr: 0x10001A178, symSize: 0x14 }
  - { offsetInCU: 0xF77B, offset: 0x59784, size: 0x8, addend: 0x0, symName: __ZNSt3__117__compressed_pairIfNS_21__unordered_map_equalIcNS_17__hash_value_typeIcP4NodeEENS_8equal_toIcEENS_4hashIcEELb1EEEEC2B7v160006IfNS_18__default_init_tagEEEOT_OT0_, symObjAddr: 0x1C10, symBinAddr: 0x10001A18C, symSize: 0x40 }
  - { offsetInCU: 0xF7D1, offset: 0x597DA, size: 0x8, addend: 0x0, symName: __ZNSt3__122__compressed_pair_elemINS_21__unordered_map_equalIcNS_17__hash_value_typeIcP4NodeEENS_8equal_toIcEENS_4hashIcEELb1EEELi1ELb1EEC2B7v160006ENS_18__default_init_tagE, symObjAddr: 0x1C74, symBinAddr: 0x10001A1CC, symSize: 0x2C }
  - { offsetInCU: 0xF803, offset: 0x5980C, size: 0x8, addend: 0x0, symName: __ZNSt3__121__unordered_map_equalIcNS_17__hash_value_typeIcP4NodeEENS_8equal_toIcEENS_4hashIcEELb1EEC2B7v160006Ev, symObjAddr: 0x1CA0, symBinAddr: 0x10001A1F8, symSize: 0x14 }
  - { offsetInCU: 0xF82B, offset: 0x59834, size: 0x8, addend: 0x0, symName: __ZN4NodeD2Ev, symObjAddr: 0x1CB4, symBinAddr: 0x10001A20C, symSize: 0x30 }
  - { offsetInCU: 0xF855, offset: 0x5985E, size: 0x8, addend: 0x0, symName: __ZNSt3__113unordered_mapIcP4NodeNS_4hashIcEENS_8equal_toIcEENS_9allocatorINS_4pairIKcS2_EEEEED1B7v160006Ev, symObjAddr: 0x1CE4, symBinAddr: 0x10001A23C, symSize: 0x2C }
  - { offsetInCU: 0xF87D, offset: 0x59886, size: 0x8, addend: 0x0, symName: __ZNSt3__113unordered_mapIcP4NodeNS_4hashIcEENS_8equal_toIcEENS_9allocatorINS_4pairIKcS2_EEEEED2B7v160006Ev, symObjAddr: 0x1D10, symBinAddr: 0x10001A268, symSize: 0x2C }
  - { offsetInCU: 0xF8A5, offset: 0x598AE, size: 0x8, addend: 0x0, symName: __ZNSt3__112__hash_tableINS_17__hash_value_typeIcP4NodeEENS_22__unordered_map_hasherIcS4_NS_4hashIcEENS_8equal_toIcEELb1EEENS_21__unordered_map_equalIcS4_S9_S7_Lb1EEENS_9allocatorIS4_EEED1Ev, symObjAddr: 0x1D3C, symBinAddr: 0x10001A294, symSize: 0x2C }
  - { offsetInCU: 0xF8D0, offset: 0x598D9, size: 0x8, addend: 0x0, symName: __ZNSt3__112__hash_tableINS_17__hash_value_typeIcP4NodeEENS_22__unordered_map_hasherIcS4_NS_4hashIcEENS_8equal_toIcEELb1EEENS_21__unordered_map_equalIcS4_S9_S7_Lb1EEENS_9allocatorIS4_EEED2Ev, symObjAddr: 0x1D68, symBinAddr: 0x10001A2C0, symSize: 0x58 }
  - { offsetInCU: 0xF8FB, offset: 0x59904, size: 0x8, addend: 0x0, symName: __ZNSt3__112__hash_tableINS_17__hash_value_typeIcP4NodeEENS_22__unordered_map_hasherIcS4_NS_4hashIcEENS_8equal_toIcEELb1EEENS_21__unordered_map_equalIcS4_S9_S7_Lb1EEENS_9allocatorIS4_EEE17__deallocate_nodeEPNS_16__hash_node_baseIPNS_11__hash_nodeIS4_PvEEEE, symObjAddr: 0x1DC0, symBinAddr: 0x10001A318, symSize: 0xA8 }
  - { offsetInCU: 0xF963, offset: 0x5996C, size: 0x8, addend: 0x0, symName: __ZNSt3__117__compressed_pairINS_16__hash_node_baseIPNS_11__hash_nodeINS_17__hash_value_typeIcP4NodeEEPvEEEENS_9allocatorIS8_EEE5firstB7v160006Ev, symObjAddr: 0x1E68, symBinAddr: 0x10001A3C0, symSize: 0x24 }
  - { offsetInCU: 0xF987, offset: 0x59990, size: 0x8, addend: 0x0, symName: __ZNSt3__110unique_ptrIA_PNS_16__hash_node_baseIPNS_11__hash_nodeINS_17__hash_value_typeIcP4NodeEEPvEEEENS_25__bucket_list_deallocatorINS_9allocatorISB_EEEEED1B7v160006Ev, symObjAddr: 0x1E9C, symBinAddr: 0x10001A3F4, symSize: 0x2C }
  - { offsetInCU: 0xF9AF, offset: 0x599B8, size: 0x8, addend: 0x0, symName: __ZNSt3__112__hash_tableINS_17__hash_value_typeIcP4NodeEENS_22__unordered_map_hasherIcS4_NS_4hashIcEENS_8equal_toIcEELb1EEENS_21__unordered_map_equalIcS4_S9_S7_Lb1EEENS_9allocatorIS4_EEE12__node_allocB7v160006Ev, symObjAddr: 0x1EC8, symBinAddr: 0x10001A420, symSize: 0x28 }
  - { offsetInCU: 0xF9D3, offset: 0x599DC, size: 0x8, addend: 0x0, symName: __ZNSt3__116__hash_node_baseIPNS_11__hash_nodeINS_17__hash_value_typeIcP4NodeEEPvEEE8__upcastB7v160006Ev, symObjAddr: 0x1EF0, symBinAddr: 0x10001A448, symSize: 0x24 }
  - { offsetInCU: 0xF9F7, offset: 0x59A00, size: 0x8, addend: 0x0, symName: __ZNSt3__116allocator_traitsINS_9allocatorINS_11__hash_nodeINS_17__hash_value_typeIcP4NodeEEPvEEEEE7destroyB7v160006INS_4pairIKcS5_EEvvEEvRS9_PT_, symObjAddr: 0x1F14, symBinAddr: 0x10001A46C, symSize: 0x28 }
  - { offsetInCU: 0xFA33, offset: 0x59A3C, size: 0x8, addend: 0x0, symName: __ZNSt3__122__hash_key_value_typesINS_17__hash_value_typeIcP4NodeEEE9__get_ptrB7v160006ERS4_, symObjAddr: 0x1F3C, symBinAddr: 0x10001A494, symSize: 0x24 }
  - { offsetInCU: 0xFA55, offset: 0x59A5E, size: 0x8, addend: 0x0, symName: __ZNSt3__116allocator_traitsINS_9allocatorINS_11__hash_nodeINS_17__hash_value_typeIcP4NodeEEPvEEEEE10deallocateB7v160006ERS9_PS8_m, symObjAddr: 0x1F60, symBinAddr: 0x10001A4B8, symSize: 0x34 }
  - { offsetInCU: 0xFA96, offset: 0x59A9F, size: 0x8, addend: 0x0, symName: __ZNSt3__117__compressed_pairINS_16__hash_node_baseIPNS_11__hash_nodeINS_17__hash_value_typeIcP4NodeEEPvEEEENS_9allocatorIS8_EEE6secondB7v160006Ev, symObjAddr: 0x1F94, symBinAddr: 0x10001A4EC, symSize: 0x24 }
  - { offsetInCU: 0xFABA, offset: 0x59AC3, size: 0x8, addend: 0x0, symName: __ZNSt3__122__compressed_pair_elemINS_9allocatorINS_11__hash_nodeINS_17__hash_value_typeIcP4NodeEEPvEEEELi1ELb1EE5__getB7v160006Ev, symObjAddr: 0x1FB8, symBinAddr: 0x10001A510, symSize: 0x14 }
  - { offsetInCU: 0xFADE, offset: 0x59AE7, size: 0x8, addend: 0x0, symName: __ZNSt3__114pointer_traitsIPNS_16__hash_node_baseIPNS_11__hash_nodeINS_17__hash_value_typeIcP4NodeEEPvEEEEE10pointer_toB7v160006ERSA_, symObjAddr: 0x1FCC, symBinAddr: 0x10001A524, symSize: 0x14 }
  - { offsetInCU: 0xFB00, offset: 0x59B09, size: 0x8, addend: 0x0, symName: __ZNSt3__117__hash_value_typeIcP4NodeE11__get_valueB7v160006Ev, symObjAddr: 0x2014, symBinAddr: 0x10001A56C, symSize: 0x24 }
  - { offsetInCU: 0xFB24, offset: 0x59B2D, size: 0x8, addend: 0x0, symName: __ZNSt3__19allocatorINS_11__hash_nodeINS_17__hash_value_typeIcP4NodeEEPvEEE10deallocateB7v160006EPS7_m, symObjAddr: 0x2070, symBinAddr: 0x10001A5C8, symSize: 0x40 }
  - { offsetInCU: 0xFB64, offset: 0x59B6D, size: 0x8, addend: 0x0, symName: __ZNSt3__122__compressed_pair_elemINS_16__hash_node_baseIPNS_11__hash_nodeINS_17__hash_value_typeIcP4NodeEEPvEEEELi0ELb0EE5__getB7v160006Ev, symObjAddr: 0x21D8, symBinAddr: 0x10001A608, symSize: 0x14 }
  - { offsetInCU: 0xFB88, offset: 0x59B91, size: 0x8, addend: 0x0, symName: __ZNSt3__110unique_ptrIA_PNS_16__hash_node_baseIPNS_11__hash_nodeINS_17__hash_value_typeIcP4NodeEEPvEEEENS_25__bucket_list_deallocatorINS_9allocatorISB_EEEEED2B7v160006Ev, symObjAddr: 0x21EC, symBinAddr: 0x10001A61C, symSize: 0x30 }
  - { offsetInCU: 0xFBB0, offset: 0x59BB9, size: 0x8, addend: 0x0, symName: __ZNSt3__110unique_ptrIA_PNS_16__hash_node_baseIPNS_11__hash_nodeINS_17__hash_value_typeIcP4NodeEEPvEEEENS_25__bucket_list_deallocatorINS_9allocatorISB_EEEEE5resetB7v160006EDn, symObjAddr: 0x221C, symBinAddr: 0x10001A64C, symSize: 0x6C }
  - { offsetInCU: 0xFBEF, offset: 0x59BF8, size: 0x8, addend: 0x0, symName: __ZNSt3__117__compressed_pairIPPNS_16__hash_node_baseIPNS_11__hash_nodeINS_17__hash_value_typeIcP4NodeEEPvEEEENS_25__bucket_list_deallocatorINS_9allocatorISB_EEEEE5firstB7v160006Ev, symObjAddr: 0x2288, symBinAddr: 0x10001A6B8, symSize: 0x24 }
  - { offsetInCU: 0xFC13, offset: 0x59C1C, size: 0x8, addend: 0x0, symName: __ZNSt3__117__compressed_pairIPPNS_16__hash_node_baseIPNS_11__hash_nodeINS_17__hash_value_typeIcP4NodeEEPvEEEENS_25__bucket_list_deallocatorINS_9allocatorISB_EEEEE6secondB7v160006Ev, symObjAddr: 0x22AC, symBinAddr: 0x10001A6DC, symSize: 0x28 }
  - { offsetInCU: 0xFC37, offset: 0x59C40, size: 0x8, addend: 0x0, symName: __ZNSt3__125__bucket_list_deallocatorINS_9allocatorIPNS_16__hash_node_baseIPNS_11__hash_nodeINS_17__hash_value_typeIcP4NodeEEPvEEEEEEEclB7v160006EPSC_, symObjAddr: 0x22D4, symBinAddr: 0x10001A704, symSize: 0x58 }
  - { offsetInCU: 0xFC6A, offset: 0x59C73, size: 0x8, addend: 0x0, symName: __ZNSt3__122__compressed_pair_elemIPPNS_16__hash_node_baseIPNS_11__hash_nodeINS_17__hash_value_typeIcP4NodeEEPvEEEELi0ELb0EE5__getB7v160006Ev, symObjAddr: 0x232C, symBinAddr: 0x10001A75C, symSize: 0x14 }
  - { offsetInCU: 0xFC8E, offset: 0x59C97, size: 0x8, addend: 0x0, symName: __ZNSt3__122__compressed_pair_elemINS_25__bucket_list_deallocatorINS_9allocatorIPNS_16__hash_node_baseIPNS_11__hash_nodeINS_17__hash_value_typeIcP4NodeEEPvEEEEEEEELi1ELb0EE5__getB7v160006Ev, symObjAddr: 0x2340, symBinAddr: 0x10001A770, symSize: 0x14 }
  - { offsetInCU: 0xFCB2, offset: 0x59CBB, size: 0x8, addend: 0x0, symName: __ZNSt3__116allocator_traitsINS_9allocatorIPNS_16__hash_node_baseIPNS_11__hash_nodeINS_17__hash_value_typeIcP4NodeEEPvEEEEEEE10deallocateB7v160006ERSD_PSC_m, symObjAddr: 0x2354, symBinAddr: 0x10001A784, symSize: 0x34 }
  - { offsetInCU: 0xFCF3, offset: 0x59CFC, size: 0x8, addend: 0x0, symName: __ZNSt3__125__bucket_list_deallocatorINS_9allocatorIPNS_16__hash_node_baseIPNS_11__hash_nodeINS_17__hash_value_typeIcP4NodeEEPvEEEEEEE7__allocB7v160006Ev, symObjAddr: 0x2388, symBinAddr: 0x10001A7B8, symSize: 0x24 }
  - { offsetInCU: 0xFD17, offset: 0x59D20, size: 0x8, addend: 0x0, symName: __ZNSt3__125__bucket_list_deallocatorINS_9allocatorIPNS_16__hash_node_baseIPNS_11__hash_nodeINS_17__hash_value_typeIcP4NodeEEPvEEEEEEE4sizeB7v160006Ev, symObjAddr: 0x23AC, symBinAddr: 0x10001A7DC, symSize: 0x24 }
  - { offsetInCU: 0xFD3B, offset: 0x59D44, size: 0x8, addend: 0x0, symName: __ZNSt3__19allocatorIPNS_16__hash_node_baseIPNS_11__hash_nodeINS_17__hash_value_typeIcP4NodeEEPvEEEEE10deallocateB7v160006EPSB_m, symObjAddr: 0x23D0, symBinAddr: 0x10001A800, symSize: 0x40 }
  - { offsetInCU: 0xFD7B, offset: 0x59D84, size: 0x8, addend: 0x0, symName: __ZNSt3__117__compressed_pairImNS_9allocatorIPNS_16__hash_node_baseIPNS_11__hash_nodeINS_17__hash_value_typeIcP4NodeEEPvEEEEEEE6secondB7v160006Ev, symObjAddr: 0x2410, symBinAddr: 0x10001A840, symSize: 0x24 }
  - { offsetInCU: 0xFD9F, offset: 0x59DA8, size: 0x8, addend: 0x0, symName: __ZNSt3__122__compressed_pair_elemINS_9allocatorIPNS_16__hash_node_baseIPNS_11__hash_nodeINS_17__hash_value_typeIcP4NodeEEPvEEEEEELi1ELb1EE5__getB7v160006Ev, symObjAddr: 0x2434, symBinAddr: 0x10001A864, symSize: 0x14 }
  - { offsetInCU: 0xFDC3, offset: 0x59DCC, size: 0x8, addend: 0x0, symName: __ZNSt3__117__compressed_pairImNS_9allocatorIPNS_16__hash_node_baseIPNS_11__hash_nodeINS_17__hash_value_typeIcP4NodeEEPvEEEEEEE5firstB7v160006Ev, symObjAddr: 0x2448, symBinAddr: 0x10001A878, symSize: 0x24 }
  - { offsetInCU: 0xFDE7, offset: 0x59DF0, size: 0x8, addend: 0x0, symName: __ZNKSt3__112basic_stringIcNS_11char_traitsIcEENS_9allocatorIcEEE21__make_const_iteratorB7v160006EPKc, symObjAddr: 0x2480, symBinAddr: 0x10001A89C, symSize: 0x34 }
  - { offsetInCU: 0xFE1A, offset: 0x59E23, size: 0x8, addend: 0x0, symName: __ZNSt3__111__wrap_iterIPKcEC1B7v160006EPKvS2_, symObjAddr: 0x2508, symBinAddr: 0x10001A8D0, symSize: 0x3C }
  - { offsetInCU: 0xFE5E, offset: 0x59E67, size: 0x8, addend: 0x0, symName: __ZNSt3__111__wrap_iterIPKcEC2B7v160006EPKvS2_, symObjAddr: 0x2544, symBinAddr: 0x10001A90C, symSize: 0x24 }
  - { offsetInCU: 0xFEA2, offset: 0x59EAB, size: 0x8, addend: 0x0, symName: __ZNKSt3__111__wrap_iterIPKcE4baseB7v160006Ev, symObjAddr: 0x2734, symBinAddr: 0x10001A978, symSize: 0x18 }
  - { offsetInCU: 0xFEC6, offset: 0x59ECF, size: 0x8, addend: 0x0, symName: __ZNKSt3__113unordered_mapIcP4NodeNS_4hashIcEENS_8equal_toIcEENS_9allocatorINS_4pairIKcS2_EEEEE5countB7v160006ERS9_, symObjAddr: 0x274C, symBinAddr: 0x10001A990, symSize: 0x2C }
  - { offsetInCU: 0xFEF9, offset: 0x59F02, size: 0x8, addend: 0x0, symName: __ZNKSt3__112__hash_tableINS_17__hash_value_typeIcP4NodeEENS_22__unordered_map_hasherIcS4_NS_4hashIcEENS_8equal_toIcEELb1EEENS_21__unordered_map_equalIcS4_S9_S7_Lb1EEENS_9allocatorIS4_EEE14__count_uniqueIcEEmRKT_, symObjAddr: 0x2778, symBinAddr: 0x10001A9BC, symSize: 0x64 }
  - { offsetInCU: 0xFF37, offset: 0x59F40, size: 0x8, addend: 0x0, symName: __ZNKSt3__112__hash_tableINS_17__hash_value_typeIcP4NodeEENS_22__unordered_map_hasherIcS4_NS_4hashIcEENS_8equal_toIcEELb1EEENS_21__unordered_map_equalIcS4_S9_S7_Lb1EEENS_9allocatorIS4_EEE4findIcEENS_21__hash_const_iteratorIPNS_11__hash_nodeIS4_PvEEEERKT_, symObjAddr: 0x2810, symBinAddr: 0x10001AA54, symSize: 0x1BC }
  - { offsetInCU: 0xFFC0, offset: 0x59FC9, size: 0x8, addend: 0x0, symName: __ZNKSt3__112__hash_tableINS_17__hash_value_typeIcP4NodeEENS_22__unordered_map_hasherIcS4_NS_4hashIcEENS_8equal_toIcEELb1EEENS_21__unordered_map_equalIcS4_S9_S7_Lb1EEENS_9allocatorIS4_EEE3endEv, symObjAddr: 0x29CC, symBinAddr: 0x10001AC10, symSize: 0x30 }
  - { offsetInCU: 0xFFE6, offset: 0x59FEF, size: 0x8, addend: 0x0, symName: __ZNKSt3__112__hash_tableINS_17__hash_value_typeIcP4NodeEENS_22__unordered_map_hasherIcS4_NS_4hashIcEENS_8equal_toIcEELb1EEENS_21__unordered_map_equalIcS4_S9_S7_Lb1EEENS_9allocatorIS4_EEE13hash_functionB7v160006Ev, symObjAddr: 0x2A2C, symBinAddr: 0x10001AC70, symSize: 0x28 }
  - { offsetInCU: 0x1000A, offset: 0x5A013, size: 0x8, addend: 0x0, symName: __ZNKSt3__122__unordered_map_hasherIcNS_17__hash_value_typeIcP4NodeEENS_4hashIcEENS_8equal_toIcEELb1EEclB7v160006ERKc, symObjAddr: 0x2A54, symBinAddr: 0x10001AC98, symSize: 0x30 }
  - { offsetInCU: 0x1003D, offset: 0x5A046, size: 0x8, addend: 0x0, symName: __ZNKSt3__112__hash_tableINS_17__hash_value_typeIcP4NodeEENS_22__unordered_map_hasherIcS4_NS_4hashIcEENS_8equal_toIcEELb1EEENS_21__unordered_map_equalIcS4_S9_S7_Lb1EEENS_9allocatorIS4_EEE12bucket_countB7v160006Ev, symObjAddr: 0x2A84, symBinAddr: 0x10001ACC8, symSize: 0x28 }
  - { offsetInCU: 0x10061, offset: 0x5A06A, size: 0x8, addend: 0x0, symName: __ZNKSt3__110unique_ptrIA_PNS_16__hash_node_baseIPNS_11__hash_nodeINS_17__hash_value_typeIcP4NodeEEPvEEEENS_25__bucket_list_deallocatorINS_9allocatorISB_EEEEEixB7v160006Em, symObjAddr: 0x2B44, symBinAddr: 0x10001ACF0, symSize: 0x34 }
  - { offsetInCU: 0x10094, offset: 0x5A09D, size: 0x8, addend: 0x0, symName: __ZNKSt3__116__hash_node_baseIPNS_11__hash_nodeINS_17__hash_value_typeIcP4NodeEEPvEEE6__hashB7v160006Ev, symObjAddr: 0x2B78, symBinAddr: 0x10001AD24, symSize: 0x18 }
  - { offsetInCU: 0x100B8, offset: 0x5A0C1, size: 0x8, addend: 0x0, symName: __ZNKSt3__112__hash_tableINS_17__hash_value_typeIcP4NodeEENS_22__unordered_map_hasherIcS4_NS_4hashIcEENS_8equal_toIcEELb1EEENS_21__unordered_map_equalIcS4_S9_S7_Lb1EEENS_9allocatorIS4_EEE6key_eqB7v160006Ev, symObjAddr: 0x2B90, symBinAddr: 0x10001AD3C, symSize: 0x28 }
  - { offsetInCU: 0x100DC, offset: 0x5A0E5, size: 0x8, addend: 0x0, symName: __ZNKSt3__121__unordered_map_equalIcNS_17__hash_value_typeIcP4NodeEENS_8equal_toIcEENS_4hashIcEELb1EEclB7v160006ERKS4_RKc, symObjAddr: 0x2BB8, symBinAddr: 0x10001AD64, symSize: 0x48 }
  - { offsetInCU: 0x1011E, offset: 0x5A127, size: 0x8, addend: 0x0, symName: __ZNSt3__121__hash_const_iteratorIPNS_11__hash_nodeINS_17__hash_value_typeIcP4NodeEEPvEEEC1B7v160006EPNS_16__hash_node_baseIS8_EEPKv, symObjAddr: 0x2C00, symBinAddr: 0x10001ADAC, symSize: 0x3C }
  - { offsetInCU: 0x10164, offset: 0x5A16D, size: 0x8, addend: 0x0, symName: __ZNKSt3__117__compressed_pairImNS_22__unordered_map_hasherIcNS_17__hash_value_typeIcP4NodeEENS_4hashIcEENS_8equal_toIcEELb1EEEE6secondB7v160006Ev, symObjAddr: 0x2C3C, symBinAddr: 0x10001ADE8, symSize: 0x24 }
  - { offsetInCU: 0x10188, offset: 0x5A191, size: 0x8, addend: 0x0, symName: __ZNKSt3__122__compressed_pair_elemINS_22__unordered_map_hasherIcNS_17__hash_value_typeIcP4NodeEENS_4hashIcEENS_8equal_toIcEELb1EEELi1ELb1EE5__getB7v160006Ev, symObjAddr: 0x2C60, symBinAddr: 0x10001AE0C, symSize: 0x14 }
  - { offsetInCU: 0x101AC, offset: 0x5A1B5, size: 0x8, addend: 0x0, symName: __ZNKSt3__14hashIcEclB7v160006Ec, symObjAddr: 0x2C74, symBinAddr: 0x10001AE20, symSize: 0x18 }
  - { offsetInCU: 0x101DF, offset: 0x5A1E8, size: 0x8, addend: 0x0, symName: __ZNKSt3__110unique_ptrIA_PNS_16__hash_node_baseIPNS_11__hash_nodeINS_17__hash_value_typeIcP4NodeEEPvEEEENS_25__bucket_list_deallocatorINS_9allocatorISB_EEEEE11get_deleterB7v160006Ev, symObjAddr: 0x2C8C, symBinAddr: 0x10001AE38, symSize: 0x24 }
  - { offsetInCU: 0x10203, offset: 0x5A20C, size: 0x8, addend: 0x0, symName: __ZNKSt3__125__bucket_list_deallocatorINS_9allocatorIPNS_16__hash_node_baseIPNS_11__hash_nodeINS_17__hash_value_typeIcP4NodeEEPvEEEEEEE4sizeB7v160006Ev, symObjAddr: 0x2CB0, symBinAddr: 0x10001AE5C, symSize: 0x28 }
  - { offsetInCU: 0x10227, offset: 0x5A230, size: 0x8, addend: 0x0, symName: __ZNKSt3__117__compressed_pairIPPNS_16__hash_node_baseIPNS_11__hash_nodeINS_17__hash_value_typeIcP4NodeEEPvEEEENS_25__bucket_list_deallocatorINS_9allocatorISB_EEEEE6secondB7v160006Ev, symObjAddr: 0x2CD8, symBinAddr: 0x10001AE84, symSize: 0x28 }
  - { offsetInCU: 0x1024B, offset: 0x5A254, size: 0x8, addend: 0x0, symName: __ZNKSt3__122__compressed_pair_elemINS_25__bucket_list_deallocatorINS_9allocatorIPNS_16__hash_node_baseIPNS_11__hash_nodeINS_17__hash_value_typeIcP4NodeEEPvEEEEEEEELi1ELb0EE5__getB7v160006Ev, symObjAddr: 0x2D00, symBinAddr: 0x10001AEAC, symSize: 0x14 }
  - { offsetInCU: 0x1026F, offset: 0x5A278, size: 0x8, addend: 0x0, symName: __ZNKSt3__117__compressed_pairImNS_9allocatorIPNS_16__hash_node_baseIPNS_11__hash_nodeINS_17__hash_value_typeIcP4NodeEEPvEEEEEEE5firstB7v160006Ev, symObjAddr: 0x2D14, symBinAddr: 0x10001AEC0, symSize: 0x24 }
  - { offsetInCU: 0x10293, offset: 0x5A29C, size: 0x8, addend: 0x0, symName: __ZNKSt3__117__compressed_pairIPPNS_16__hash_node_baseIPNS_11__hash_nodeINS_17__hash_value_typeIcP4NodeEEPvEEEENS_25__bucket_list_deallocatorINS_9allocatorISB_EEEEE5firstB7v160006Ev, symObjAddr: 0x2D4C, symBinAddr: 0x10001AEE4, symSize: 0x24 }
  - { offsetInCU: 0x102B7, offset: 0x5A2C0, size: 0x8, addend: 0x0, symName: __ZNKSt3__122__compressed_pair_elemIPPNS_16__hash_node_baseIPNS_11__hash_nodeINS_17__hash_value_typeIcP4NodeEEPvEEEELi0ELb0EE5__getB7v160006Ev, symObjAddr: 0x2D70, symBinAddr: 0x10001AF08, symSize: 0x14 }
  - { offsetInCU: 0x102DB, offset: 0x5A2E4, size: 0x8, addend: 0x0, symName: __ZNKSt3__117__compressed_pairIfNS_21__unordered_map_equalIcNS_17__hash_value_typeIcP4NodeEENS_8equal_toIcEENS_4hashIcEELb1EEEE6secondB7v160006Ev, symObjAddr: 0x2D84, symBinAddr: 0x10001AF1C, symSize: 0x24 }
  - { offsetInCU: 0x102FF, offset: 0x5A308, size: 0x8, addend: 0x0, symName: __ZNKSt3__122__compressed_pair_elemINS_21__unordered_map_equalIcNS_17__hash_value_typeIcP4NodeEENS_8equal_toIcEENS_4hashIcEELb1EEELi1ELb1EE5__getB7v160006Ev, symObjAddr: 0x2DA8, symBinAddr: 0x10001AF40, symSize: 0x14 }
  - { offsetInCU: 0x10323, offset: 0x5A32C, size: 0x8, addend: 0x0, symName: __ZNKSt3__18equal_toIcEclB7v160006ERKcS3_, symObjAddr: 0x2DBC, symBinAddr: 0x10001AF54, symSize: 0x34 }
  - { offsetInCU: 0x10365, offset: 0x5A36E, size: 0x8, addend: 0x0, symName: __ZNKSt3__117__hash_value_typeIcP4NodeE11__get_valueB7v160006Ev, symObjAddr: 0x2DF0, symBinAddr: 0x10001AF88, symSize: 0x24 }
  - { offsetInCU: 0x10389, offset: 0x5A392, size: 0x8, addend: 0x0, symName: __ZNSt3__121__hash_const_iteratorIPNS_11__hash_nodeINS_17__hash_value_typeIcP4NodeEEPvEEEC2B7v160006EPNS_16__hash_node_baseIS8_EEPKv, symObjAddr: 0x2E4C, symBinAddr: 0x10001AFE4, symSize: 0x24 }
  - { offsetInCU: 0x103CF, offset: 0x5A3D8, size: 0x8, addend: 0x0, symName: __ZNSt3__113unordered_mapIcP4NodeNS_4hashIcEENS_8equal_toIcEENS_9allocatorINS_4pairIKcS2_EEEEE6insertB7v160006EOSA_, symObjAddr: 0x2E70, symBinAddr: 0x10001B008, symSize: 0x4C }
  - { offsetInCU: 0x10407, offset: 0x5A410, size: 0x8, addend: 0x0, symName: __ZNSt3__14pairIKcP4NodeEC1B7v160006IRS1_S3_LPv0EEEOT_OT0_, symObjAddr: 0x2EBC, symBinAddr: 0x10001B054, symSize: 0x3C }
  - { offsetInCU: 0x10464, offset: 0x5A46D, size: 0x8, addend: 0x0, symName: __ZNSt3__112__hash_tableINS_17__hash_value_typeIcP4NodeEENS_22__unordered_map_hasherIcS4_NS_4hashIcEENS_8equal_toIcEELb1EEENS_21__unordered_map_equalIcS4_S9_S7_Lb1EEENS_9allocatorIS4_EEE15__insert_uniqueB7v160006EONS_4pairIKcS3_EE, symObjAddr: 0x2EF8, symBinAddr: 0x10001B090, symSize: 0x50 }
  - { offsetInCU: 0x10497, offset: 0x5A4A0, size: 0x8, addend: 0x0, symName: __ZNSt3__14pairINS_19__hash_map_iteratorINS_15__hash_iteratorIPNS_11__hash_nodeINS_17__hash_value_typeIcP4NodeEEPvEEEEEEbEC1B7v160006ISB_bLS8_0EEEONS0_IT_T0_EE, symObjAddr: 0x2F48, symBinAddr: 0x10001B0E0, symSize: 0x34 }
  - { offsetInCU: 0x104E7, offset: 0x5A4F0, size: 0x8, addend: 0x0, symName: __ZNSt3__112__hash_tableINS_17__hash_value_typeIcP4NodeEENS_22__unordered_map_hasherIcS4_NS_4hashIcEENS_8equal_toIcEELb1EEENS_21__unordered_map_equalIcS4_S9_S7_Lb1EEENS_9allocatorIS4_EEE25__emplace_unique_key_argsIcJNS_4pairIKcS3_EEEEENSH_INS_15__hash_iteratorIPNS_11__hash_nodeIS4_PvEEEEbEERKT_DpOT0_, symObjAddr: 0x2F7C, symBinAddr: 0x10001B114, symSize: 0x490 }
  - { offsetInCU: 0x105C7, offset: 0x5A5D0, size: 0x8, addend: 0x0, symName: __ZNSt3__122__hash_key_value_typesINS_17__hash_value_typeIcP4NodeEEE9__get_keyB7v160006ERKNS_4pairIKcS3_EE, symObjAddr: 0x340C, symBinAddr: 0x10001B5A4, symSize: 0x14 }
  - { offsetInCU: 0x105E9, offset: 0x5A5F2, size: 0x8, addend: 0x0, symName: __ZNSt3__112__hash_tableINS_17__hash_value_typeIcP4NodeEENS_22__unordered_map_hasherIcS4_NS_4hashIcEENS_8equal_toIcEELb1EEENS_21__unordered_map_equalIcS4_S9_S7_Lb1EEENS_9allocatorIS4_EEE13hash_functionB7v160006Ev, symObjAddr: 0x3420, symBinAddr: 0x10001B5B8, symSize: 0x28 }
  - { offsetInCU: 0x1060D, offset: 0x5A616, size: 0x8, addend: 0x0, symName: __ZNSt3__112__hash_tableINS_17__hash_value_typeIcP4NodeEENS_22__unordered_map_hasherIcS4_NS_4hashIcEENS_8equal_toIcEELb1EEENS_21__unordered_map_equalIcS4_S9_S7_Lb1EEENS_9allocatorIS4_EEE6key_eqB7v160006Ev, symObjAddr: 0x3448, symBinAddr: 0x10001B5E0, symSize: 0x28 }
  - { offsetInCU: 0x10631, offset: 0x5A63A, size: 0x8, addend: 0x0, symName: __ZNSt3__112__hash_tableINS_17__hash_value_typeIcP4NodeEENS_22__unordered_map_hasherIcS4_NS_4hashIcEENS_8equal_toIcEELb1EEENS_21__unordered_map_equalIcS4_S9_S7_Lb1EEENS_9allocatorIS4_EEE21__construct_node_hashINS_4pairIKcS3_EEJEEENS_10unique_ptrINS_11__hash_nodeIS4_PvEENS_22__hash_node_destructorINSD_ISN_EEEEEEmOT_DpOT0_, symObjAddr: 0x3470, symBinAddr: 0x10001B608, symSize: 0x140 }
  - { offsetInCU: 0x106A3, offset: 0x5A6AC, size: 0x8, addend: 0x0, symName: __ZNSt3__112__hash_tableINS_17__hash_value_typeIcP4NodeEENS_22__unordered_map_hasherIcS4_NS_4hashIcEENS_8equal_toIcEELb1EEENS_21__unordered_map_equalIcS4_S9_S7_Lb1EEENS_9allocatorIS4_EEE4sizeB7v160006Ev, symObjAddr: 0x35B0, symBinAddr: 0x10001B748, symSize: 0x28 }
  - { offsetInCU: 0x106C7, offset: 0x5A6D0, size: 0x8, addend: 0x0, symName: __ZNSt3__112__hash_tableINS_17__hash_value_typeIcP4NodeEENS_22__unordered_map_hasherIcS4_NS_4hashIcEENS_8equal_toIcEELb1EEENS_21__unordered_map_equalIcS4_S9_S7_Lb1EEENS_9allocatorIS4_EEE15max_load_factorB7v160006Ev, symObjAddr: 0x35D8, symBinAddr: 0x10001B770, symSize: 0x28 }
  - { offsetInCU: 0x106EB, offset: 0x5A6F4, size: 0x8, addend: 0x0, symName: __ZNSt3__112__hash_tableINS_17__hash_value_typeIcP4NodeEENS_22__unordered_map_hasherIcS4_NS_4hashIcEENS_8equal_toIcEELb1EEENS_21__unordered_map_equalIcS4_S9_S7_Lb1EEENS_9allocatorIS4_EEE15__rehash_uniqueB7v160006Em, symObjAddr: 0x3600, symBinAddr: 0x10001B798, symSize: 0x2C }
  - { offsetInCU: 0x1071E, offset: 0x5A727, size: 0x8, addend: 0x0, symName: __ZNSt3__116__hash_node_baseIPNS_11__hash_nodeINS_17__hash_value_typeIcP4NodeEEPvEEE5__ptrB7v160006Ev, symObjAddr: 0x36C0, symBinAddr: 0x10001B7C4, symSize: 0x24 }
  - { offsetInCU: 0x10742, offset: 0x5A74B, size: 0x8, addend: 0x0, symName: __ZNKSt3__110unique_ptrINS_11__hash_nodeINS_17__hash_value_typeIcP4NodeEEPvEENS_22__hash_node_destructorINS_9allocatorIS7_EEEEEptB7v160006Ev, symObjAddr: 0x36E4, symBinAddr: 0x10001B7E8, symSize: 0x28 }
  - { offsetInCU: 0x10766, offset: 0x5A76F, size: 0x8, addend: 0x0, symName: __ZNKSt3__110unique_ptrINS_11__hash_nodeINS_17__hash_value_typeIcP4NodeEEPvEENS_22__hash_node_destructorINS_9allocatorIS7_EEEEE3getB7v160006Ev, symObjAddr: 0x370C, symBinAddr: 0x10001B810, symSize: 0x28 }
  - { offsetInCU: 0x1078A, offset: 0x5A793, size: 0x8, addend: 0x0, symName: __ZNSt3__110unique_ptrINS_11__hash_nodeINS_17__hash_value_typeIcP4NodeEEPvEENS_22__hash_node_destructorINS_9allocatorIS7_EEEEE7releaseB7v160006Ev, symObjAddr: 0x3734, symBinAddr: 0x10001B838, symSize: 0x44 }
  - { offsetInCU: 0x107BD, offset: 0x5A7C6, size: 0x8, addend: 0x0, symName: __ZNSt3__110unique_ptrINS_11__hash_nodeINS_17__hash_value_typeIcP4NodeEEPvEENS_22__hash_node_destructorINS_9allocatorIS7_EEEEED1B7v160006Ev, symObjAddr: 0x3778, symBinAddr: 0x10001B87C, symSize: 0x2C }
  - { offsetInCU: 0x107E5, offset: 0x5A7EE, size: 0x8, addend: 0x0, symName: __ZNSt3__115__hash_iteratorIPNS_11__hash_nodeINS_17__hash_value_typeIcP4NodeEEPvEEEC1B7v160006EPNS_16__hash_node_baseIS8_EEPKv, symObjAddr: 0x37A4, symBinAddr: 0x10001B8A8, symSize: 0x3C }
  - { offsetInCU: 0x10835, offset: 0x5A83E, size: 0x8, addend: 0x0, symName: __ZNSt3__14pairINS_15__hash_iteratorIPNS_11__hash_nodeINS_17__hash_value_typeIcP4NodeEEPvEEEEbEC1B7v160006ISA_RbLS7_0EEEOT_OT0_, symObjAddr: 0x37E0, symBinAddr: 0x10001B8E4, symSize: 0x3C }
  - { offsetInCU: 0x10892, offset: 0x5A89B, size: 0x8, addend: 0x0, symName: __ZNSt3__117__compressed_pairImNS_22__unordered_map_hasherIcNS_17__hash_value_typeIcP4NodeEENS_4hashIcEENS_8equal_toIcEELb1EEEE6secondB7v160006Ev, symObjAddr: 0x381C, symBinAddr: 0x10001B920, symSize: 0x24 }
  - { offsetInCU: 0x108B6, offset: 0x5A8BF, size: 0x8, addend: 0x0, symName: __ZNSt3__122__compressed_pair_elemINS_22__unordered_map_hasherIcNS_17__hash_value_typeIcP4NodeEENS_4hashIcEENS_8equal_toIcEELb1EEELi1ELb1EE5__getB7v160006Ev, symObjAddr: 0x3840, symBinAddr: 0x10001B944, symSize: 0x14 }
  - { offsetInCU: 0x108DA, offset: 0x5A8E3, size: 0x8, addend: 0x0, symName: __ZNSt3__117__compressed_pairIfNS_21__unordered_map_equalIcNS_17__hash_value_typeIcP4NodeEENS_8equal_toIcEENS_4hashIcEELb1EEEE6secondB7v160006Ev, symObjAddr: 0x3854, symBinAddr: 0x10001B958, symSize: 0x24 }
  - { offsetInCU: 0x108FE, offset: 0x5A907, size: 0x8, addend: 0x0, symName: __ZNSt3__122__compressed_pair_elemINS_21__unordered_map_equalIcNS_17__hash_value_typeIcP4NodeEENS_8equal_toIcEENS_4hashIcEELb1EEELi1ELb1EE5__getB7v160006Ev, symObjAddr: 0x3878, symBinAddr: 0x10001B97C, symSize: 0x14 }
  - { offsetInCU: 0x10922, offset: 0x5A92B, size: 0x8, addend: 0x0, symName: __ZNSt3__116allocator_traitsINS_9allocatorINS_11__hash_nodeINS_17__hash_value_typeIcP4NodeEEPvEEEEE8allocateB7v160006ERS9_m, symObjAddr: 0x388C, symBinAddr: 0x10001B990, symSize: 0x2C }
  - { offsetInCU: 0x10954, offset: 0x5A95D, size: 0x8, addend: 0x0, symName: __ZNSt3__122__hash_node_destructorINS_9allocatorINS_11__hash_nodeINS_17__hash_value_typeIcP4NodeEEPvEEEEEC1B7v160006ERS9_b, symObjAddr: 0x38B8, symBinAddr: 0x10001B9BC, symSize: 0x48 }
  - { offsetInCU: 0x1099F, offset: 0x5A9A8, size: 0x8, addend: 0x0, symName: __ZNSt3__110unique_ptrINS_11__hash_nodeINS_17__hash_value_typeIcP4NodeEEPvEENS_22__hash_node_destructorINS_9allocatorIS7_EEEEEC1B7v160006ILb1EvEEPS7_NS_16__dependent_typeINS_27__unique_ptr_deleter_sfinaeISB_EEXT_EE20__good_rval_ref_typeE, symObjAddr: 0x3900, symBinAddr: 0x10001BA04, symSize: 0x3C }
  - { offsetInCU: 0x109EF, offset: 0x5A9F8, size: 0x8, addend: 0x0, symName: __ZNSt3__116allocator_traitsINS_9allocatorINS_11__hash_nodeINS_17__hash_value_typeIcP4NodeEEPvEEEEE9constructB7v160006INS_4pairIKcS5_EEJSE_EvvEEvRS9_PT_DpOT0_, symObjAddr: 0x393C, symBinAddr: 0x10001BA40, symSize: 0x30 }
  - { offsetInCU: 0x10A47, offset: 0x5AA50, size: 0x8, addend: 0x0, symName: __ZNSt3__110unique_ptrINS_11__hash_nodeINS_17__hash_value_typeIcP4NodeEEPvEENS_22__hash_node_destructorINS_9allocatorIS7_EEEEE11get_deleterB7v160006Ev, symObjAddr: 0x396C, symBinAddr: 0x10001BA70, symSize: 0x24 }
  - { offsetInCU: 0x10A6B, offset: 0x5AA74, size: 0x8, addend: 0x0, symName: __ZNSt3__19allocatorINS_11__hash_nodeINS_17__hash_value_typeIcP4NodeEEPvEEE8allocateB7v160006Em, symObjAddr: 0x3990, symBinAddr: 0x10001BA94, symSize: 0x58 }
  - { offsetInCU: 0x10AA7, offset: 0x5AAB0, size: 0x8, addend: 0x0, symName: __ZNSt3__116allocator_traitsINS_9allocatorINS_11__hash_nodeINS_17__hash_value_typeIcP4NodeEEPvEEEEE8max_sizeB7v160006IS9_vvEEmRKS9_, symObjAddr: 0x39E8, symBinAddr: 0x10001BAEC, symSize: 0x28 }
  - { offsetInCU: 0x10AD4, offset: 0x5AADD, size: 0x8, addend: 0x0, symName: __ZNSt3__122__hash_node_destructorINS_9allocatorINS_11__hash_nodeINS_17__hash_value_typeIcP4NodeEEPvEEEEEC2B7v160006ERS9_b, symObjAddr: 0x3B10, symBinAddr: 0x10001BB14, symSize: 0x38 }
  - { offsetInCU: 0x10B1A, offset: 0x5AB23, size: 0x8, addend: 0x0, symName: __ZNSt3__110unique_ptrINS_11__hash_nodeINS_17__hash_value_typeIcP4NodeEEPvEENS_22__hash_node_destructorINS_9allocatorIS7_EEEEEC2B7v160006ILb1EvEEPS7_NS_16__dependent_typeINS_27__unique_ptr_deleter_sfinaeISB_EEXT_EE20__good_rval_ref_typeE, symObjAddr: 0x3B48, symBinAddr: 0x10001BB4C, symSize: 0x48 }
  - { offsetInCU: 0x10B6A, offset: 0x5AB73, size: 0x8, addend: 0x0, symName: __ZNSt3__117__compressed_pairIPNS_11__hash_nodeINS_17__hash_value_typeIcP4NodeEEPvEENS_22__hash_node_destructorINS_9allocatorIS7_EEEEEC1B7v160006IRS8_SC_EEOT_OT0_, symObjAddr: 0x3B90, symBinAddr: 0x10001BB94, symSize: 0x3C }
  - { offsetInCU: 0x10BC0, offset: 0x5ABC9, size: 0x8, addend: 0x0, symName: __ZNSt3__117__compressed_pairIPNS_11__hash_nodeINS_17__hash_value_typeIcP4NodeEEPvEENS_22__hash_node_destructorINS_9allocatorIS7_EEEEEC2B7v160006IRS8_SC_EEOT_OT0_, symObjAddr: 0x3BCC, symBinAddr: 0x10001BBD0, symSize: 0x48 }
  - { offsetInCU: 0x10C16, offset: 0x5AC1F, size: 0x8, addend: 0x0, symName: __ZNSt3__122__compressed_pair_elemIPNS_11__hash_nodeINS_17__hash_value_typeIcP4NodeEEPvEELi0ELb0EEC2B7v160006IRS8_vEEOT_, symObjAddr: 0x3C14, symBinAddr: 0x10001BC18, symSize: 0x24 }
  - { offsetInCU: 0x10C57, offset: 0x5AC60, size: 0x8, addend: 0x0, symName: __ZNSt3__122__compressed_pair_elemINS_22__hash_node_destructorINS_9allocatorINS_11__hash_nodeINS_17__hash_value_typeIcP4NodeEEPvEEEEEELi1ELb0EEC2B7v160006ISB_vEEOT_, symObjAddr: 0x3C38, symBinAddr: 0x10001BC3C, symSize: 0x24 }
  - { offsetInCU: 0x10C98, offset: 0x5ACA1, size: 0x8, addend: 0x0, symName: __ZNSt3__117__compressed_pairIPNS_11__hash_nodeINS_17__hash_value_typeIcP4NodeEEPvEENS_22__hash_node_destructorINS_9allocatorIS7_EEEEE6secondB7v160006Ev, symObjAddr: 0x3C88, symBinAddr: 0x10001BC8C, symSize: 0x28 }
  - { offsetInCU: 0x10CBC, offset: 0x5ACC5, size: 0x8, addend: 0x0, symName: __ZNSt3__122__compressed_pair_elemINS_22__hash_node_destructorINS_9allocatorINS_11__hash_nodeINS_17__hash_value_typeIcP4NodeEEPvEEEEEELi1ELb0EE5__getB7v160006Ev, symObjAddr: 0x3CB0, symBinAddr: 0x10001BCB4, symSize: 0x14 }
  - { offsetInCU: 0x10CE0, offset: 0x5ACE9, size: 0x8, addend: 0x0, symName: __ZNSt3__117__compressed_pairImNS_22__unordered_map_hasherIcNS_17__hash_value_typeIcP4NodeEENS_4hashIcEENS_8equal_toIcEELb1EEEE5firstB7v160006Ev, symObjAddr: 0x3CC4, symBinAddr: 0x10001BCC8, symSize: 0x24 }
  - { offsetInCU: 0x10D04, offset: 0x5AD0D, size: 0x8, addend: 0x0, symName: __ZNSt3__117__compressed_pairIfNS_21__unordered_map_equalIcNS_17__hash_value_typeIcP4NodeEENS_8equal_toIcEENS_4hashIcEELb1EEEE5firstB7v160006Ev, symObjAddr: 0x3CE8, symBinAddr: 0x10001BCEC, symSize: 0x24 }
  - { offsetInCU: 0x10D28, offset: 0x5AD31, size: 0x8, addend: 0x0, symName: __ZNSt3__112__hash_tableINS_17__hash_value_typeIcP4NodeEENS_22__unordered_map_hasherIcS4_NS_4hashIcEENS_8equal_toIcEELb1EEENS_21__unordered_map_equalIcS4_S9_S7_Lb1EEENS_9allocatorIS4_EEE8__rehashILb1EEEvm, symObjAddr: 0x3D20, symBinAddr: 0x10001BD10, symSize: 0x1A8 }
  - { offsetInCU: 0x10D76, offset: 0x5AD7F, size: 0x8, addend: 0x0, symName: __ZNSt3__112__hash_tableINS_17__hash_value_typeIcP4NodeEENS_22__unordered_map_hasherIcS4_NS_4hashIcEENS_8equal_toIcEELb1EEENS_21__unordered_map_equalIcS4_S9_S7_Lb1EEENS_9allocatorIS4_EEE11__do_rehashILb1EEEvm, symObjAddr: 0x3EC8, symBinAddr: 0x10001BEB8, symSize: 0x290 }
  - { offsetInCU: 0x10E5B, offset: 0x5AE64, size: 0x8, addend: 0x0, symName: __ZNSt3__110unique_ptrIA_PNS_16__hash_node_baseIPNS_11__hash_nodeINS_17__hash_value_typeIcP4NodeEEPvEEEENS_25__bucket_list_deallocatorINS_9allocatorISB_EEEEE11get_deleterB7v160006Ev, symObjAddr: 0x41D4, symBinAddr: 0x10001C158, symSize: 0x24 }
  - { offsetInCU: 0x10E7F, offset: 0x5AE88, size: 0x8, addend: 0x0, symName: __ZNSt3__110unique_ptrIA_PNS_16__hash_node_baseIPNS_11__hash_nodeINS_17__hash_value_typeIcP4NodeEEPvEEEENS_25__bucket_list_deallocatorINS_9allocatorISB_EEEEE5resetB7v160006IPSB_EENS_9enable_ifIXsr28_CheckArrayPointerConversionIT_EE5valueEvE4typeESL_, symObjAddr: 0x41F8, symBinAddr: 0x10001C17C, symSize: 0x78 }
  - { offsetInCU: 0x10ECA, offset: 0x5AED3, size: 0x8, addend: 0x0, symName: __ZNSt3__116allocator_traitsINS_9allocatorIPNS_16__hash_node_baseIPNS_11__hash_nodeINS_17__hash_value_typeIcP4NodeEEPvEEEEEEE8allocateB7v160006ERSD_m, symObjAddr: 0x4270, symBinAddr: 0x10001C1F4, symSize: 0x2C }
  - { offsetInCU: 0x10EFC, offset: 0x5AF05, size: 0x8, addend: 0x0, symName: __ZNSt3__19allocatorIPNS_16__hash_node_baseIPNS_11__hash_nodeINS_17__hash_value_typeIcP4NodeEEPvEEEEE8allocateB7v160006Em, symObjAddr: 0x429C, symBinAddr: 0x10001C220, symSize: 0x58 }
  - { offsetInCU: 0x10F38, offset: 0x5AF41, size: 0x8, addend: 0x0, symName: __ZNSt3__116allocator_traitsINS_9allocatorIPNS_16__hash_node_baseIPNS_11__hash_nodeINS_17__hash_value_typeIcP4NodeEEPvEEEEEEE8max_sizeB7v160006ISD_vvEEmRKSD_, symObjAddr: 0x42F4, symBinAddr: 0x10001C278, symSize: 0x28 }
  - { offsetInCU: 0x10F65, offset: 0x5AF6E, size: 0x8, addend: 0x0, symName: __ZNKSt3__117__compressed_pairIPNS_11__hash_nodeINS_17__hash_value_typeIcP4NodeEEPvEENS_22__hash_node_destructorINS_9allocatorIS7_EEEEE5firstB7v160006Ev, symObjAddr: 0x43C0, symBinAddr: 0x10001C2A0, symSize: 0x24 }
  - { offsetInCU: 0x10F89, offset: 0x5AF92, size: 0x8, addend: 0x0, symName: __ZNKSt3__122__compressed_pair_elemIPNS_11__hash_nodeINS_17__hash_value_typeIcP4NodeEEPvEELi0ELb0EE5__getB7v160006Ev, symObjAddr: 0x43E4, symBinAddr: 0x10001C2C4, symSize: 0x14 }
  - { offsetInCU: 0x10FAD, offset: 0x5AFB6, size: 0x8, addend: 0x0, symName: __ZNSt3__117__compressed_pairIPNS_11__hash_nodeINS_17__hash_value_typeIcP4NodeEEPvEENS_22__hash_node_destructorINS_9allocatorIS7_EEEEE5firstB7v160006Ev, symObjAddr: 0x43F8, symBinAddr: 0x10001C2D8, symSize: 0x24 }
  - { offsetInCU: 0x10FD1, offset: 0x5AFDA, size: 0x8, addend: 0x0, symName: __ZNSt3__122__compressed_pair_elemIPNS_11__hash_nodeINS_17__hash_value_typeIcP4NodeEEPvEELi0ELb0EE5__getB7v160006Ev, symObjAddr: 0x441C, symBinAddr: 0x10001C2FC, symSize: 0x14 }
  - { offsetInCU: 0x10FF5, offset: 0x5AFFE, size: 0x8, addend: 0x0, symName: __ZNSt3__110unique_ptrINS_11__hash_nodeINS_17__hash_value_typeIcP4NodeEEPvEENS_22__hash_node_destructorINS_9allocatorIS7_EEEEED2B7v160006Ev, symObjAddr: 0x4430, symBinAddr: 0x10001C310, symSize: 0x30 }
  - { offsetInCU: 0x1101D, offset: 0x5B026, size: 0x8, addend: 0x0, symName: __ZNSt3__110unique_ptrINS_11__hash_nodeINS_17__hash_value_typeIcP4NodeEEPvEENS_22__hash_node_destructorINS_9allocatorIS7_EEEEE5resetB7v160006EPS7_, symObjAddr: 0x4460, symBinAddr: 0x10001C340, symSize: 0x78 }
  - { offsetInCU: 0x1105F, offset: 0x5B068, size: 0x8, addend: 0x0, symName: __ZNSt3__122__hash_node_destructorINS_9allocatorINS_11__hash_nodeINS_17__hash_value_typeIcP4NodeEEPvEEEEEclB7v160006EPS8_, symObjAddr: 0x44D8, symBinAddr: 0x10001C3B8, symSize: 0x98 }
  - { offsetInCU: 0x11092, offset: 0x5B09B, size: 0x8, addend: 0x0, symName: __ZNSt3__115__hash_iteratorIPNS_11__hash_nodeINS_17__hash_value_typeIcP4NodeEEPvEEEC2B7v160006EPNS_16__hash_node_baseIS8_EEPKv, symObjAddr: 0x4570, symBinAddr: 0x10001C450, symSize: 0x24 }
  - { offsetInCU: 0x110D8, offset: 0x5B0E1, size: 0x8, addend: 0x0, symName: __ZNSt3__14pairINS_15__hash_iteratorIPNS_11__hash_nodeINS_17__hash_value_typeIcP4NodeEEPvEEEEbEC2B7v160006ISA_RbLS7_0EEEOT_OT0_, symObjAddr: 0x4594, symBinAddr: 0x10001C474, symSize: 0x38 }
  - { offsetInCU: 0x11135, offset: 0x5B13E, size: 0x8, addend: 0x0, symName: __ZNSt3__14pairINS_19__hash_map_iteratorINS_15__hash_iteratorIPNS_11__hash_nodeINS_17__hash_value_typeIcP4NodeEEPvEEEEEEbEC2B7v160006ISB_bLS8_0EEEONS0_IT_T0_EE, symObjAddr: 0x45CC, symBinAddr: 0x10001C4AC, symSize: 0x50 }
  - { offsetInCU: 0x11185, offset: 0x5B18E, size: 0x8, addend: 0x0, symName: __ZNSt3__119__hash_map_iteratorINS_15__hash_iteratorIPNS_11__hash_nodeINS_17__hash_value_typeIcP4NodeEEPvEEEEEC1B7v160006ESA_, symObjAddr: 0x461C, symBinAddr: 0x10001C4FC, symSize: 0x34 }
  - { offsetInCU: 0x111BC, offset: 0x5B1C5, size: 0x8, addend: 0x0, symName: __ZNSt3__119__hash_map_iteratorINS_15__hash_iteratorIPNS_11__hash_nodeINS_17__hash_value_typeIcP4NodeEEPvEEEEEC2B7v160006ESA_, symObjAddr: 0x4650, symBinAddr: 0x10001C530, symSize: 0x20 }
  - { offsetInCU: 0x111F3, offset: 0x5B1FC, size: 0x8, addend: 0x0, symName: __ZNSt3__14pairIKcP4NodeEC2B7v160006IRS1_S3_LPv0EEEOT_OT0_, symObjAddr: 0x4670, symBinAddr: 0x10001C550, symSize: 0x34 }
  - { offsetInCU: 0x11250, offset: 0x5B259, size: 0x8, addend: 0x0, symName: __ZNSt3__113unordered_mapIcP4NodeNS_4hashIcEENS_8equal_toIcEENS_9allocatorINS_4pairIKcS2_EEEEE4findB7v160006ERS9_, symObjAddr: 0x46A4, symBinAddr: 0x10001C584, symSize: 0x40 }
  - { offsetInCU: 0x11283, offset: 0x5B28C, size: 0x8, addend: 0x0, symName: __ZNKSt3__119__hash_map_iteratorINS_15__hash_iteratorIPNS_11__hash_nodeINS_17__hash_value_typeIcP4NodeEEPvEEEEEptB7v160006Ev, symObjAddr: 0x46E4, symBinAddr: 0x10001C5C4, symSize: 0x2C }
  - { offsetInCU: 0x112A7, offset: 0x5B2B0, size: 0x8, addend: 0x0, symName: __ZNSt3__112__hash_tableINS_17__hash_value_typeIcP4NodeEENS_22__unordered_map_hasherIcS4_NS_4hashIcEENS_8equal_toIcEELb1EEENS_21__unordered_map_equalIcS4_S9_S7_Lb1EEENS_9allocatorIS4_EEE4findIcEENS_15__hash_iteratorIPNS_11__hash_nodeIS4_PvEEEERKT_, symObjAddr: 0x4710, symBinAddr: 0x10001C5F0, symSize: 0x1B4 }
  - { offsetInCU: 0x11330, offset: 0x5B339, size: 0x8, addend: 0x0, symName: __ZNSt3__112__hash_tableINS_17__hash_value_typeIcP4NodeEENS_22__unordered_map_hasherIcS4_NS_4hashIcEENS_8equal_toIcEELb1EEENS_21__unordered_map_equalIcS4_S9_S7_Lb1EEENS_9allocatorIS4_EEE3endEv, symObjAddr: 0x48C4, symBinAddr: 0x10001C7A4, symSize: 0x30 }
  - { offsetInCU: 0x11356, offset: 0x5B35F, size: 0x8, addend: 0x0, symName: __ZNSt3__114pointer_traitsIPNS_4pairIKcP4NodeEEE10pointer_toB7v160006ERS5_, symObjAddr: 0x48F4, symBinAddr: 0x10001C7D4, symSize: 0x14 }
  - { offsetInCU: 0x11378, offset: 0x5B381, size: 0x8, addend: 0x0, symName: __ZNKSt3__115__hash_iteratorIPNS_11__hash_nodeINS_17__hash_value_typeIcP4NodeEEPvEEEptB7v160006Ev, symObjAddr: 0x4908, symBinAddr: 0x10001C7E8, symSize: 0x30 }
  - { offsetInCU: 0x1139C, offset: 0x5B3A5, size: 0x8, addend: 0x0, symName: __ZNSt3__114pointer_traitsIPNS_17__hash_value_typeIcP4NodeEEE10pointer_toB7v160006ERS4_, symObjAddr: 0x4938, symBinAddr: 0x10001C818, symSize: 0x14 }
  - { offsetInCU: 0x113BE, offset: 0x5B3C7, size: 0x8, addend: 0x0, symName: __ZNSt3__16vectorIP4NodeNS_9allocatorIS2_EEEC1B7v160006Ev, symObjAddr: 0x494C, symBinAddr: 0x10001C82C, symSize: 0x2C }
  - { offsetInCU: 0x113E6, offset: 0x5B3EF, size: 0x8, addend: 0x0, symName: __ZNKSt3__113unordered_mapIcP4NodeNS_4hashIcEENS_8equal_toIcEENS_9allocatorINS_4pairIKcS2_EEEEE5beginB7v160006Ev, symObjAddr: 0x4978, symBinAddr: 0x10001C858, symSize: 0x38 }
  - { offsetInCU: 0x1140A, offset: 0x5B413, size: 0x8, addend: 0x0, symName: __ZNKSt3__113unordered_mapIcP4NodeNS_4hashIcEENS_8equal_toIcEENS_9allocatorINS_4pairIKcS2_EEEEE3endB7v160006Ev, symObjAddr: 0x49B0, symBinAddr: 0x10001C890, symSize: 0x38 }
  - { offsetInCU: 0x1142E, offset: 0x5B437, size: 0x8, addend: 0x0, symName: __ZNKSt3__125__hash_map_const_iteratorINS_21__hash_const_iteratorIPNS_11__hash_nodeINS_17__hash_value_typeIcP4NodeEEPvEEEEEdeB7v160006Ev, symObjAddr: 0x4A18, symBinAddr: 0x10001C8F8, symSize: 0x28 }
  - { offsetInCU: 0x11452, offset: 0x5B45B, size: 0x8, addend: 0x0, symName: __ZNSt3__16vectorIP4NodeNS_9allocatorIS2_EEE9push_backB7v160006ERKS2_, symObjAddr: 0x4A40, symBinAddr: 0x10001C920, symSize: 0x6C }
  - { offsetInCU: 0x11487, offset: 0x5B490, size: 0x8, addend: 0x0, symName: __ZNSt3__125__hash_map_const_iteratorINS_21__hash_const_iteratorIPNS_11__hash_nodeINS_17__hash_value_typeIcP4NodeEEPvEEEEEppB7v160006Ev, symObjAddr: 0x4AAC, symBinAddr: 0x10001C98C, symSize: 0x2C }
  - { offsetInCU: 0x114AB, offset: 0x5B4B4, size: 0x8, addend: 0x0, symName: __ZNSt3__16vectorIP4NodeNS_9allocatorIS2_EEEC2B7v160006Ev, symObjAddr: 0x4AD8, symBinAddr: 0x10001C9B8, symSize: 0x58 }
  - { offsetInCU: 0x114D8, offset: 0x5B4E1, size: 0x8, addend: 0x0, symName: __ZNSt3__117__compressed_pairIPP4NodeNS_9allocatorIS2_EEEC1B7v160006IDnNS_18__default_init_tagEEEOT_OT0_, symObjAddr: 0x4B30, symBinAddr: 0x10001CA10, symSize: 0x3C }
  - { offsetInCU: 0x1152E, offset: 0x5B537, size: 0x8, addend: 0x0, symName: __ZNSt3__117__compressed_pairIPP4NodeNS_9allocatorIS2_EEEC2B7v160006IDnNS_18__default_init_tagEEEOT_OT0_, symObjAddr: 0x4B7C, symBinAddr: 0x10001CA5C, symSize: 0x40 }
  - { offsetInCU: 0x11584, offset: 0x5B58D, size: 0x8, addend: 0x0, symName: __ZNSt3__122__compressed_pair_elemIPP4NodeLi0ELb0EEC2B7v160006IDnvEEOT_, symObjAddr: 0x4BBC, symBinAddr: 0x10001CA9C, symSize: 0x1C }
  - { offsetInCU: 0x115C5, offset: 0x5B5CE, size: 0x8, addend: 0x0, symName: __ZNSt3__122__compressed_pair_elemINS_9allocatorIP4NodeEELi1ELb1EEC2B7v160006ENS_18__default_init_tagE, symObjAddr: 0x4BD8, symBinAddr: 0x10001CAB8, symSize: 0x2C }
  - { offsetInCU: 0x115F7, offset: 0x5B600, size: 0x8, addend: 0x0, symName: __ZNSt3__19allocatorIP4NodeEC2B7v160006Ev, symObjAddr: 0x4C04, symBinAddr: 0x10001CAE4, symSize: 0x2C }
  - { offsetInCU: 0x1161F, offset: 0x5B628, size: 0x8, addend: 0x0, symName: __ZNKSt3__112__hash_tableINS_17__hash_value_typeIcP4NodeEENS_22__unordered_map_hasherIcS4_NS_4hashIcEENS_8equal_toIcEELb1EEENS_21__unordered_map_equalIcS4_S9_S7_Lb1EEENS_9allocatorIS4_EEE5beginEv, symObjAddr: 0x4C44, symBinAddr: 0x10001CB10, symSize: 0x40 }
  - { offsetInCU: 0x11645, offset: 0x5B64E, size: 0x8, addend: 0x0, symName: __ZNSt3__125__hash_map_const_iteratorINS_21__hash_const_iteratorIPNS_11__hash_nodeINS_17__hash_value_typeIcP4NodeEEPvEEEEEC1B7v160006ESA_, symObjAddr: 0x4C84, symBinAddr: 0x10001CB50, symSize: 0x34 }
  - { offsetInCU: 0x1167C, offset: 0x5B685, size: 0x8, addend: 0x0, symName: __ZNKSt3__117__compressed_pairINS_16__hash_node_baseIPNS_11__hash_nodeINS_17__hash_value_typeIcP4NodeEEPvEEEENS_9allocatorIS8_EEE5firstB7v160006Ev, symObjAddr: 0x4CB8, symBinAddr: 0x10001CB84, symSize: 0x24 }
  - { offsetInCU: 0x116A0, offset: 0x5B6A9, size: 0x8, addend: 0x0, symName: __ZNKSt3__122__compressed_pair_elemINS_16__hash_node_baseIPNS_11__hash_nodeINS_17__hash_value_typeIcP4NodeEEPvEEEELi0ELb0EE5__getB7v160006Ev, symObjAddr: 0x4CDC, symBinAddr: 0x10001CBA8, symSize: 0x14 }
  - { offsetInCU: 0x116C4, offset: 0x5B6CD, size: 0x8, addend: 0x0, symName: __ZNSt3__125__hash_map_const_iteratorINS_21__hash_const_iteratorIPNS_11__hash_nodeINS_17__hash_value_typeIcP4NodeEEPvEEEEEC2B7v160006ESA_, symObjAddr: 0x4CF0, symBinAddr: 0x10001CBBC, symSize: 0x20 }
  - { offsetInCU: 0x116FB, offset: 0x5B704, size: 0x8, addend: 0x0, symName: __ZNKSt3__121__hash_const_iteratorIPNS_11__hash_nodeINS_17__hash_value_typeIcP4NodeEEPvEEEptB7v160006Ev, symObjAddr: 0x4D10, symBinAddr: 0x10001CBDC, symSize: 0x30 }
  - { offsetInCU: 0x1171F, offset: 0x5B728, size: 0x8, addend: 0x0, symName: __ZNSt3__114pointer_traitsIPKNS_17__hash_value_typeIcP4NodeEEE10pointer_toB7v160006ERS5_, symObjAddr: 0x4D40, symBinAddr: 0x10001CC0C, symSize: 0x14 }
  - { offsetInCU: 0x11741, offset: 0x5B74A, size: 0x8, addend: 0x0, symName: __ZNSt3__16vectorIP4NodeNS_9allocatorIS2_EEE9__end_capB7v160006Ev, symObjAddr: 0x4D54, symBinAddr: 0x10001CC20, symSize: 0x28 }
  - { offsetInCU: 0x1176A, offset: 0x5B773, size: 0x8, addend: 0x0, symName: __ZNSt3__16vectorIP4NodeNS_9allocatorIS2_EEE22__construct_one_at_endB7v160006IJRKS2_EEEvDpOT_, symObjAddr: 0x4D7C, symBinAddr: 0x10001CC48, symSize: 0x90 }
  - { offsetInCU: 0x117B9, offset: 0x5B7C2, size: 0x8, addend: 0x0, symName: __ZNSt3__16vectorIP4NodeNS_9allocatorIS2_EEE21__push_back_slow_pathIRKS2_EEvOT_, symObjAddr: 0x4E0C, symBinAddr: 0x10001CCD8, symSize: 0xD8 }
  - { offsetInCU: 0x11815, offset: 0x5B81E, size: 0x8, addend: 0x0, symName: __ZNSt3__117__compressed_pairIPP4NodeNS_9allocatorIS2_EEE5firstB7v160006Ev, symObjAddr: 0x4EE4, symBinAddr: 0x10001CDB0, symSize: 0x24 }
  - { offsetInCU: 0x11839, offset: 0x5B842, size: 0x8, addend: 0x0, symName: __ZNSt3__122__compressed_pair_elemIPP4NodeLi0ELb0EE5__getB7v160006Ev, symObjAddr: 0x4F08, symBinAddr: 0x10001CDD4, symSize: 0x14 }
  - { offsetInCU: 0x11876, offset: 0x5B87F, size: 0x8, addend: 0x0, symName: __ZNSt3__16vectorIP4NodeNS_9allocatorIS2_EEE21_ConstructTransactionC1B7v160006ERS5_m, symObjAddr: 0x4F1C, symBinAddr: 0x10001CDE8, symSize: 0x3C }
  - { offsetInCU: 0x118BC, offset: 0x5B8C5, size: 0x8, addend: 0x0, symName: __ZNSt3__116allocator_traitsINS_9allocatorIP4NodeEEE9constructB7v160006IS3_JRKS3_EvvEEvRS4_PT_DpOT0_, symObjAddr: 0x4F58, symBinAddr: 0x10001CE24, symSize: 0x30 }
  - { offsetInCU: 0x11914, offset: 0x5B91D, size: 0x8, addend: 0x0, symName: __ZNSt3__16vectorIP4NodeNS_9allocatorIS2_EEE7__allocB7v160006Ev, symObjAddr: 0x4F88, symBinAddr: 0x10001CE54, symSize: 0x28 }
  - { offsetInCU: 0x11938, offset: 0x5B941, size: 0x8, addend: 0x0, symName: __ZNSt3__16vectorIP4NodeNS_9allocatorIS2_EEE21_ConstructTransactionD1B7v160006Ev, symObjAddr: 0x4FC4, symBinAddr: 0x10001CE90, symSize: 0x2C }
  - { offsetInCU: 0x11960, offset: 0x5B969, size: 0x8, addend: 0x0, symName: __ZNSt3__16vectorIP4NodeNS_9allocatorIS2_EEE21_ConstructTransactionC2B7v160006ERS5_m, symObjAddr: 0x4FF0, symBinAddr: 0x10001CEBC, symSize: 0x44 }
  - { offsetInCU: 0x119A6, offset: 0x5B9AF, size: 0x8, addend: 0x0, symName: __ZNSt3__117__compressed_pairIPP4NodeNS_9allocatorIS2_EEE6secondB7v160006Ev, symObjAddr: 0x5060, symBinAddr: 0x10001CF00, symSize: 0x24 }
  - { offsetInCU: 0x119CA, offset: 0x5B9D3, size: 0x8, addend: 0x0, symName: __ZNSt3__122__compressed_pair_elemINS_9allocatorIP4NodeEELi1ELb1EE5__getB7v160006Ev, symObjAddr: 0x5084, symBinAddr: 0x10001CF24, symSize: 0x14 }
  - { offsetInCU: 0x119EE, offset: 0x5B9F7, size: 0x8, addend: 0x0, symName: __ZNSt3__16vectorIP4NodeNS_9allocatorIS2_EEE21_ConstructTransactionD2B7v160006Ev, symObjAddr: 0x5098, symBinAddr: 0x10001CF38, symSize: 0x20 }
  - { offsetInCU: 0x11A16, offset: 0x5BA1F, size: 0x8, addend: 0x0, symName: __ZNKSt3__16vectorIP4NodeNS_9allocatorIS2_EEE11__recommendB7v160006Em, symObjAddr: 0x50B8, symBinAddr: 0x10001CF58, symSize: 0xB4 }
  - { offsetInCU: 0x11A69, offset: 0x5BA72, size: 0x8, addend: 0x0, symName: __ZNKSt3__16vectorIP4NodeNS_9allocatorIS2_EEE4sizeB7v160006Ev, symObjAddr: 0x516C, symBinAddr: 0x10001D00C, symSize: 0x28 }
  - { offsetInCU: 0x11A8D, offset: 0x5BA96, size: 0x8, addend: 0x0, symName: __ZNSt3__114__split_bufferIP4NodeRNS_9allocatorIS2_EEEC1EmmS5_, symObjAddr: 0x5194, symBinAddr: 0x10001D034, symSize: 0x44 }
  - { offsetInCU: 0x11AE2, offset: 0x5BAEB, size: 0x8, addend: 0x0, symName: __ZNSt3__114__split_bufferIP4NodeRNS_9allocatorIS2_EEED1Ev, symObjAddr: 0x52F0, symBinAddr: 0x10001D190, symSize: 0x2C }
  - { offsetInCU: 0x11B0D, offset: 0x5BB16, size: 0x8, addend: 0x0, symName: __ZNKSt3__16vectorIP4NodeNS_9allocatorIS2_EEE8max_sizeEv, symObjAddr: 0x531C, symBinAddr: 0x10001D1BC, symSize: 0x60 }
  - { offsetInCU: 0x11B33, offset: 0x5BB3C, size: 0x8, addend: 0x0, symName: __ZNKSt3__16vectorIP4NodeNS_9allocatorIS2_EEE20__throw_length_errorB7v160006Ev, symObjAddr: 0x537C, symBinAddr: 0x10001D21C, symSize: 0x1C }
  - { offsetInCU: 0x11B57, offset: 0x5BB60, size: 0x8, addend: 0x0, symName: __ZNKSt3__16vectorIP4NodeNS_9allocatorIS2_EEE8capacityB7v160006Ev, symObjAddr: 0x5398, symBinAddr: 0x10001D238, symSize: 0x40 }
  - { offsetInCU: 0x11B85, offset: 0x5BB8E, size: 0x8, addend: 0x0, symName: __ZNSt3__116allocator_traitsINS_9allocatorIP4NodeEEE8max_sizeB7v160006IS4_vvEEmRKS4_, symObjAddr: 0x5404, symBinAddr: 0x10001D278, symSize: 0x28 }
  - { offsetInCU: 0x11BB2, offset: 0x5BBBB, size: 0x8, addend: 0x0, symName: __ZNKSt3__16vectorIP4NodeNS_9allocatorIS2_EEE7__allocB7v160006Ev, symObjAddr: 0x542C, symBinAddr: 0x10001D2A0, symSize: 0x28 }
  - { offsetInCU: 0x11BD6, offset: 0x5BBDF, size: 0x8, addend: 0x0, symName: __ZNKSt3__117__compressed_pairIPP4NodeNS_9allocatorIS2_EEE6secondB7v160006Ev, symObjAddr: 0x54BC, symBinAddr: 0x10001D2C8, symSize: 0x24 }
  - { offsetInCU: 0x11BFA, offset: 0x5BC03, size: 0x8, addend: 0x0, symName: __ZNKSt3__122__compressed_pair_elemINS_9allocatorIP4NodeEELi1ELb1EE5__getB7v160006Ev, symObjAddr: 0x54E0, symBinAddr: 0x10001D2EC, symSize: 0x14 }
  - { offsetInCU: 0x11C1E, offset: 0x5BC27, size: 0x8, addend: 0x0, symName: __ZNKSt3__16vectorIP4NodeNS_9allocatorIS2_EEE9__end_capB7v160006Ev, symObjAddr: 0x55E0, symBinAddr: 0x10001D300, symSize: 0x28 }
  - { offsetInCU: 0x11C42, offset: 0x5BC4B, size: 0x8, addend: 0x0, symName: __ZNKSt3__117__compressed_pairIPP4NodeNS_9allocatorIS2_EEE5firstB7v160006Ev, symObjAddr: 0x5608, symBinAddr: 0x10001D328, symSize: 0x24 }
  - { offsetInCU: 0x11C66, offset: 0x5BC6F, size: 0x8, addend: 0x0, symName: __ZNKSt3__122__compressed_pair_elemIPP4NodeLi0ELb0EE5__getB7v160006Ev, symObjAddr: 0x562C, symBinAddr: 0x10001D34C, symSize: 0x14 }
  - { offsetInCU: 0x11C8A, offset: 0x5BC93, size: 0x8, addend: 0x0, symName: __ZNSt3__114__split_bufferIP4NodeRNS_9allocatorIS2_EEEC2EmmS5_, symObjAddr: 0x5640, symBinAddr: 0x10001D360, symSize: 0xD4 }
  - { offsetInCU: 0x11CFD, offset: 0x5BD06, size: 0x8, addend: 0x0, symName: __ZNSt3__117__compressed_pairIPP4NodeRNS_9allocatorIS2_EEEC1B7v160006IDnS6_EEOT_OT0_, symObjAddr: 0x5714, symBinAddr: 0x10001D434, symSize: 0x3C }
  - { offsetInCU: 0x11D53, offset: 0x5BD5C, size: 0x8, addend: 0x0, symName: __ZNSt3__114__split_bufferIP4NodeRNS_9allocatorIS2_EEE7__allocB7v160006Ev, symObjAddr: 0x5790, symBinAddr: 0x10001D4B0, symSize: 0x28 }
  - { offsetInCU: 0x11D77, offset: 0x5BD80, size: 0x8, addend: 0x0, symName: __ZNSt3__114__split_bufferIP4NodeRNS_9allocatorIS2_EEE9__end_capB7v160006Ev, symObjAddr: 0x57B8, symBinAddr: 0x10001D4D8, symSize: 0x28 }
  - { offsetInCU: 0x11D9B, offset: 0x5BDA4, size: 0x8, addend: 0x0, symName: __ZNSt3__117__compressed_pairIPP4NodeRNS_9allocatorIS2_EEEC2B7v160006IDnS6_EEOT_OT0_, symObjAddr: 0x57E0, symBinAddr: 0x10001D500, symSize: 0x48 }
  - { offsetInCU: 0x11DF1, offset: 0x5BDFA, size: 0x8, addend: 0x0, symName: __ZNSt3__122__compressed_pair_elemIRNS_9allocatorIP4NodeEELi1ELb0EEC2B7v160006IS5_vEEOT_, symObjAddr: 0x5828, symBinAddr: 0x10001D548, symSize: 0x20 }
  - { offsetInCU: 0x11E32, offset: 0x5BE3B, size: 0x8, addend: 0x0, symName: __ZNSt3__19allocatorIP4NodeE8allocateB7v160006Em, symObjAddr: 0x5848, symBinAddr: 0x10001D568, symSize: 0x58 }
  - { offsetInCU: 0x11E64, offset: 0x5BE6D, size: 0x8, addend: 0x0, symName: __ZNSt3__117__compressed_pairIPP4NodeRNS_9allocatorIS2_EEE6secondB7v160006Ev, symObjAddr: 0x58A0, symBinAddr: 0x10001D5C0, symSize: 0x28 }
  - { offsetInCU: 0x11E88, offset: 0x5BE91, size: 0x8, addend: 0x0, symName: __ZNSt3__122__compressed_pair_elemIRNS_9allocatorIP4NodeEELi1ELb0EE5__getB7v160006Ev, symObjAddr: 0x58C8, symBinAddr: 0x10001D5E8, symSize: 0x18 }
  - { offsetInCU: 0x11EAC, offset: 0x5BEB5, size: 0x8, addend: 0x0, symName: __ZNSt3__117__compressed_pairIPP4NodeRNS_9allocatorIS2_EEE5firstB7v160006Ev, symObjAddr: 0x58E0, symBinAddr: 0x10001D600, symSize: 0x24 }
  - { offsetInCU: 0x11ED0, offset: 0x5BED9, size: 0x8, addend: 0x0, symName: __ZNKSt3__16vectorIP4NodeNS_9allocatorIS2_EEE17__annotate_deleteB7v160006Ev, symObjAddr: 0x5904, symBinAddr: 0x10001D624, symSize: 0xB8 }
  - { offsetInCU: 0x11EF4, offset: 0x5BEFD, size: 0x8, addend: 0x0, symName: __ZNSt3__116reverse_iteratorIPP4NodeEC1B7v160006ES3_, symObjAddr: 0x5A34, symBinAddr: 0x10001D754, symSize: 0x34 }
  - { offsetInCU: 0x11F2A, offset: 0x5BF33, size: 0x8, addend: 0x0, symName: __ZNKSt3__116reverse_iteratorIPP4NodeE4baseB7v160006Ev, symObjAddr: 0x5A68, symBinAddr: 0x10001D788, symSize: 0x18 }
  - { offsetInCU: 0x11F4E, offset: 0x5BF57, size: 0x8, addend: 0x0, symName: __ZNKSt3__16vectorIP4NodeNS_9allocatorIS2_EEE14__annotate_newB7v160006Em, symObjAddr: 0x5ABC, symBinAddr: 0x10001D7DC, symSize: 0xAC }
  - { offsetInCU: 0x11F81, offset: 0x5BF8A, size: 0x8, addend: 0x0, symName: __ZNKSt3__16vectorIP4NodeNS_9allocatorIS2_EEE31__annotate_contiguous_containerB7v160006EPKvS7_S7_S7_, symObjAddr: 0x5B78, symBinAddr: 0x10001D898, symSize: 0x20 }
  - { offsetInCU: 0x11FD5, offset: 0x5BFDE, size: 0x8, addend: 0x0, symName: __ZNKSt3__16vectorIP4NodeNS_9allocatorIS2_EEE4dataB7v160006Ev, symObjAddr: 0x5B98, symBinAddr: 0x10001D8B8, symSize: 0x28 }
  - { offsetInCU: 0x1201C, offset: 0x5C025, size: 0x8, addend: 0x0, symName: __ZNKSt3__111__move_loopINS_17_ClassicAlgPolicyEEclB7v160006INS_16reverse_iteratorIPP4NodeEES8_S8_EENS_4pairIT_T1_EESA_T0_SB_, symObjAddr: 0x5E78, symBinAddr: 0x10001DB98, symSize: 0xA0 }
  - { offsetInCU: 0x12085, offset: 0x5C08E, size: 0x8, addend: 0x0, symName: __ZNSt3__119__unwrap_range_implINS_16reverse_iteratorIPP4NodeEES5_E8__unwrapB7v160006ES5_S5_, symObjAddr: 0x6064, symBinAddr: 0x10001DD84, symSize: 0x84 }
  - { offsetInCU: 0x120BA, offset: 0x5C0C3, size: 0x8, addend: 0x0, symName: __ZNSt3__14pairINS_16reverse_iteratorIPP4NodeEES5_EC1B7v160006IS5_S5_LPv0EEEOT_OT0_, symObjAddr: 0x60E8, symBinAddr: 0x10001DE08, symSize: 0x3C }
  - { offsetInCU: 0x12117, offset: 0x5C120, size: 0x8, addend: 0x0, symName: __ZNSt3__14pairINS_16reverse_iteratorIPP4NodeEES5_EC2B7v160006IS5_S5_LPv0EEEOT_OT0_, symObjAddr: 0x6124, symBinAddr: 0x10001DE44, symSize: 0x34 }
  - { offsetInCU: 0x12174, offset: 0x5C17D, size: 0x8, addend: 0x0, symName: __ZNSt3__18_IterOpsINS_17_ClassicAlgPolicyEE11__iter_moveB7v160006IRNS_16reverse_iteratorIPP4NodeEEEENS_9enable_ifIXsr12is_referenceIDTdeclsr3stdE7declvalIRT_EEEEE5valueEDTclsr3stdE4movedeclsr3stdE7declvalISC_EEEEE4typeEOSB_, symObjAddr: 0x61A0, symBinAddr: 0x10001DEC0, symSize: 0x28 }
  - { offsetInCU: 0x1219F, offset: 0x5C1A8, size: 0x8, addend: 0x0, symName: __ZNKSt3__116reverse_iteratorIPP4NodeEdeB7v160006Ev, symObjAddr: 0x61C8, symBinAddr: 0x10001DEE8, symSize: 0x28 }
  - { offsetInCU: 0x121D2, offset: 0x5C1DB, size: 0x8, addend: 0x0, symName: __ZNSt3__116reverse_iteratorIPP4NodeEppB7v160006Ev, symObjAddr: 0x61F0, symBinAddr: 0x10001DF10, symSize: 0x20 }
  - { offsetInCU: 0x121F6, offset: 0x5C1FF, size: 0x8, addend: 0x0, symName: __ZNSt3__18_IterOpsINS_17_ClassicAlgPolicyEE25__validate_iter_referenceB7v160006IRNS_16reverse_iteratorIPP4NodeEEEEvv, symObjAddr: 0x6210, symBinAddr: 0x10001DF30, symSize: 0x4 }
  - { offsetInCU: 0x12213, offset: 0x5C21C, size: 0x8, addend: 0x0, symName: __ZNSt3__118__unwrap_iter_implINS_16reverse_iteratorIPP4NodeEELb0EE8__unwrapB7v160006ES5_, symObjAddr: 0x6214, symBinAddr: 0x10001DF34, symSize: 0x24 }
  - { offsetInCU: 0x12235, offset: 0x5C23E, size: 0x8, addend: 0x0, symName: __ZNSt3__119__unwrap_range_implINS_16reverse_iteratorIPP4NodeEES5_E8__rewrapB7v160006ES5_S5_, symObjAddr: 0x6238, symBinAddr: 0x10001DF58, symSize: 0x5C }
  - { offsetInCU: 0x12265, offset: 0x5C26E, size: 0x8, addend: 0x0, symName: __ZNSt3__118__unwrap_iter_implINS_16reverse_iteratorIPP4NodeEELb0EE8__rewrapB7v160006ES5_S5_, symObjAddr: 0x6294, symBinAddr: 0x10001DFB4, symSize: 0x2C }
  - { offsetInCU: 0x12291, offset: 0x5C29A, size: 0x8, addend: 0x0, symName: __ZNSt3__116reverse_iteratorIPP4NodeEC2B7v160006ES3_, symObjAddr: 0x62C0, symBinAddr: 0x10001DFE0, symSize: 0x28 }
  - { offsetInCU: 0x122C7, offset: 0x5C2D0, size: 0x8, addend: 0x0, symName: __ZNSt3__114__split_bufferIP4NodeRNS_9allocatorIS2_EEED2Ev, symObjAddr: 0x62E8, symBinAddr: 0x10001E008, symSize: 0x8C }
  - { offsetInCU: 0x122F2, offset: 0x5C2FB, size: 0x8, addend: 0x0, symName: __ZNSt3__114__split_bufferIP4NodeRNS_9allocatorIS2_EEE5clearB7v160006Ev, symObjAddr: 0x6374, symBinAddr: 0x10001E094, symSize: 0x28 }
  - { offsetInCU: 0x12316, offset: 0x5C31F, size: 0x8, addend: 0x0, symName: __ZNSt3__116allocator_traitsINS_9allocatorIP4NodeEEE10deallocateB7v160006ERS4_PS3_m, symObjAddr: 0x639C, symBinAddr: 0x10001E0BC, symSize: 0x34 }
  - { offsetInCU: 0x12357, offset: 0x5C360, size: 0x8, addend: 0x0, symName: __ZNKSt3__114__split_bufferIP4NodeRNS_9allocatorIS2_EEE8capacityB7v160006Ev, symObjAddr: 0x63D0, symBinAddr: 0x10001E0F0, symSize: 0x40 }
  - { offsetInCU: 0x1237B, offset: 0x5C384, size: 0x8, addend: 0x0, symName: __ZNSt3__114__split_bufferIP4NodeRNS_9allocatorIS2_EEE17__destruct_at_endB7v160006EPS2_, symObjAddr: 0x6410, symBinAddr: 0x10001E130, symSize: 0x2C }
  - { offsetInCU: 0x123AD, offset: 0x5C3B6, size: 0x8, addend: 0x0, symName: __ZNSt3__114__split_bufferIP4NodeRNS_9allocatorIS2_EEE17__destruct_at_endB7v160006EPS2_NS_17integral_constantIbLb0EEE, symObjAddr: 0x643C, symBinAddr: 0x10001E15C, symSize: 0x80 }
  - { offsetInCU: 0x123EB, offset: 0x5C3F4, size: 0x8, addend: 0x0, symName: __ZNSt3__116allocator_traitsINS_9allocatorIP4NodeEEE7destroyB7v160006IS3_vvEEvRS4_PT_, symObjAddr: 0x64BC, symBinAddr: 0x10001E1DC, symSize: 0x28 }
  - { offsetInCU: 0x12427, offset: 0x5C430, size: 0x8, addend: 0x0, symName: __ZNSt3__19allocatorIP4NodeE10deallocateB7v160006EPS2_m, symObjAddr: 0x6518, symBinAddr: 0x10001E204, symSize: 0x40 }
  - { offsetInCU: 0x12467, offset: 0x5C470, size: 0x8, addend: 0x0, symName: __ZNKSt3__114__split_bufferIP4NodeRNS_9allocatorIS2_EEE9__end_capB7v160006Ev, symObjAddr: 0x6558, symBinAddr: 0x10001E244, symSize: 0x28 }
  - { offsetInCU: 0x1248B, offset: 0x5C494, size: 0x8, addend: 0x0, symName: __ZNKSt3__117__compressed_pairIPP4NodeRNS_9allocatorIS2_EEE5firstB7v160006Ev, symObjAddr: 0x6580, symBinAddr: 0x10001E26C, symSize: 0x24 }
  - { offsetInCU: 0x124AF, offset: 0x5C4B8, size: 0x8, addend: 0x0, symName: __ZNSt3__121__hash_const_iteratorIPNS_11__hash_nodeINS_17__hash_value_typeIcP4NodeEEPvEEEppB7v160006Ev, symObjAddr: 0x65A4, symBinAddr: 0x10001E290, symSize: 0x20 }
  - { offsetInCU: 0x124D3, offset: 0x5C4DC, size: 0x8, addend: 0x0, symName: __ZNSt3__16vectorIP4NodeNS_9allocatorIS2_EEE11__make_iterB7v160006EPS2_, symObjAddr: 0x65C4, symBinAddr: 0x10001E2B0, symSize: 0x34 }
  - { offsetInCU: 0x12506, offset: 0x5C50F, size: 0x8, addend: 0x0, symName: __ZNSt3__111__wrap_iterIPP4NodeEC1B7v160006EPKvS3_, symObjAddr: 0x65F8, symBinAddr: 0x10001E2E4, symSize: 0x3C }
  - { offsetInCU: 0x1254A, offset: 0x5C553, size: 0x8, addend: 0x0, symName: __ZNSt3__111__wrap_iterIPP4NodeEC2B7v160006EPKvS3_, symObjAddr: 0x6634, symBinAddr: 0x10001E320, symSize: 0x24 }
  - { offsetInCU: 0x1258E, offset: 0x5C597, size: 0x8, addend: 0x0, symName: __ZNKSt3__111__wrap_iterIPP4NodeE4baseB7v160006Ev, symObjAddr: 0x66A0, symBinAddr: 0x10001E38C, symSize: 0x18 }
  - { offsetInCU: 0x125B2, offset: 0x5C5BB, size: 0x8, addend: 0x0, symName: __ZNSt3__16vectorIP4NodeNS_9allocatorIS2_EEED2B7v160006Ev, symObjAddr: 0x66B8, symBinAddr: 0x10001E3A4, symSize: 0x44 }
  - { offsetInCU: 0x125DA, offset: 0x5C5E3, size: 0x8, addend: 0x0, symName: __ZNSt3__16vectorIP4NodeNS_9allocatorIS2_EEE16__destroy_vectorC1ERS5_, symObjAddr: 0x66FC, symBinAddr: 0x10001E3E8, symSize: 0x34 }
  - { offsetInCU: 0x12611, offset: 0x5C61A, size: 0x8, addend: 0x0, symName: __ZNSt3__16vectorIP4NodeNS_9allocatorIS2_EEE16__destroy_vectorclB7v160006Ev, symObjAddr: 0x6730, symBinAddr: 0x10001E41C, symSize: 0x9C }
  - { offsetInCU: 0x12635, offset: 0x5C63E, size: 0x8, addend: 0x0, symName: __ZNSt3__16vectorIP4NodeNS_9allocatorIS2_EEE16__destroy_vectorC2ERS5_, symObjAddr: 0x67CC, symBinAddr: 0x10001E4B8, symSize: 0x20 }
  - { offsetInCU: 0x1266C, offset: 0x5C675, size: 0x8, addend: 0x0, symName: __ZNSt3__16vectorIP4NodeNS_9allocatorIS2_EEE7__clearB7v160006Ev, symObjAddr: 0x67FC, symBinAddr: 0x10001E4E8, symSize: 0x28 }
  - { offsetInCU: 0x12690, offset: 0x5C699, size: 0x8, addend: 0x0, symName: __ZNSt3__16vectorIP4NodeNS_9allocatorIS2_EEE22__base_destruct_at_endB7v160006EPS2_, symObjAddr: 0x6824, symBinAddr: 0x10001E510, symSize: 0x8C }
  - { offsetInCU: 0x126D2, offset: 0x5C6DB, size: 0x8, addend: 0x0, symName: __ZNKSt3__113unordered_mapIcP4NodeNS_4hashIcEENS_8equal_toIcEENS_9allocatorINS_4pairIKcS2_EEEEE5emptyB7v160006Ev, symObjAddr: 0x68EC, symBinAddr: 0x10001E59C, symSize: 0x30 }
  - { offsetInCU: 0x126F6, offset: 0x5C6FF, size: 0x8, addend: 0x0, symName: __ZNKSt3__112__hash_tableINS_17__hash_value_typeIcP4NodeEENS_22__unordered_map_hasherIcS4_NS_4hashIcEENS_8equal_toIcEELb1EEENS_21__unordered_map_equalIcS4_S9_S7_Lb1EEENS_9allocatorIS4_EEE4sizeB7v160006Ev, symObjAddr: 0x691C, symBinAddr: 0x10001E5CC, symSize: 0x2C }
  - { offsetInCU: 0x1271A, offset: 0x5C723, size: 0x8, addend: 0x0, symName: __ZNKSt3__117__compressed_pairImNS_22__unordered_map_hasherIcNS_17__hash_value_typeIcP4NodeEENS_4hashIcEENS_8equal_toIcEELb1EEEE5firstB7v160006Ev, symObjAddr: 0x6948, symBinAddr: 0x10001E5F8, symSize: 0x24 }
  - { offsetInCU: 0x1273E, offset: 0x5C747, size: 0x8, addend: 0x0, symName: __ZNSt3__113unordered_mapIcP4NodeNS_4hashIcEENS_8equal_toIcEENS_9allocatorINS_4pairIKcS2_EEEEE5eraseB7v160006ERS9_, symObjAddr: 0x696C, symBinAddr: 0x10001E61C, symSize: 0x2C }
  - { offsetInCU: 0x12771, offset: 0x5C77A, size: 0x8, addend: 0x0, symName: __ZNSt3__112__hash_tableINS_17__hash_value_typeIcP4NodeEENS_22__unordered_map_hasherIcS4_NS_4hashIcEENS_8equal_toIcEELb1EEENS_21__unordered_map_equalIcS4_S9_S7_Lb1EEENS_9allocatorIS4_EEE14__erase_uniqueIcEEmRKT_, symObjAddr: 0x6998, symBinAddr: 0x10001E648, symSize: 0x98 }
  - { offsetInCU: 0x127BE, offset: 0x5C7C7, size: 0x8, addend: 0x0, symName: __ZNSt3__112__hash_tableINS_17__hash_value_typeIcP4NodeEENS_22__unordered_map_hasherIcS4_NS_4hashIcEENS_8equal_toIcEELb1EEENS_21__unordered_map_equalIcS4_S9_S7_Lb1EEENS_9allocatorIS4_EEE5eraseENS_21__hash_const_iteratorIPNS_11__hash_nodeIS4_PvEEEE, symObjAddr: 0x6A60, symBinAddr: 0x10001E710, symSize: 0x70 }
  - { offsetInCU: 0x12811, offset: 0x5C81A, size: 0x8, addend: 0x0, symName: __ZNSt3__121__hash_const_iteratorIPNS_11__hash_nodeINS_17__hash_value_typeIcP4NodeEEPvEEEC1B7v160006ERKNS_15__hash_iteratorIS8_EE, symObjAddr: 0x6AD0, symBinAddr: 0x10001E780, symSize: 0x34 }
  - { offsetInCU: 0x12848, offset: 0x5C851, size: 0x8, addend: 0x0, symName: __ZNSt3__115__hash_iteratorIPNS_11__hash_nodeINS_17__hash_value_typeIcP4NodeEEPvEEEppB7v160006Ev, symObjAddr: 0x6B04, symBinAddr: 0x10001E7B4, symSize: 0x20 }
  - { offsetInCU: 0x1286C, offset: 0x5C875, size: 0x8, addend: 0x0, symName: __ZNSt3__112__hash_tableINS_17__hash_value_typeIcP4NodeEENS_22__unordered_map_hasherIcS4_NS_4hashIcEENS_8equal_toIcEELb1EEENS_21__unordered_map_equalIcS4_S9_S7_Lb1EEENS_9allocatorIS4_EEE6removeENS_21__hash_const_iteratorIPNS_11__hash_nodeIS4_PvEEEE, symObjAddr: 0x6B24, symBinAddr: 0x10001E7D4, symSize: 0x220 }
  - { offsetInCU: 0x128FC, offset: 0x5C905, size: 0x8, addend: 0x0, symName: __ZNSt3__121__hash_const_iteratorIPNS_11__hash_nodeINS_17__hash_value_typeIcP4NodeEEPvEEEC2B7v160006ERKNS_15__hash_iteratorIS8_EE, symObjAddr: 0x6D44, symBinAddr: 0x10001E9F4, symSize: 0x24 }
  - { offsetInCU: 0x12933, offset: 0x5C93C, size: 0x8, addend: 0x0, symName: __ZN4NodeC2Ec, symObjAddr: 0x6D68, symBinAddr: 0x10001EA18, symSize: 0x40 }
  - { offsetInCU: 0x12969, offset: 0x5C972, size: 0x8, addend: 0x0, symName: __ZNSt3__113unordered_mapIcP4NodeNS_4hashIcEENS_8equal_toIcEENS_9allocatorINS_4pairIKcS2_EEEEEaSEOSC_, symObjAddr: 0x6DA8, symBinAddr: 0x10001EA58, symSize: 0x34 }
  - { offsetInCU: 0x1299E, offset: 0x5C9A7, size: 0x8, addend: 0x0, symName: __ZNSt3__112__hash_tableINS_17__hash_value_typeIcP4NodeEENS_22__unordered_map_hasherIcS4_NS_4hashIcEENS_8equal_toIcEELb1EEENS_21__unordered_map_equalIcS4_S9_S7_Lb1EEENS_9allocatorIS4_EEEaSEOSF_, symObjAddr: 0x6DDC, symBinAddr: 0x10001EA8C, symSize: 0x34 }
  - { offsetInCU: 0x129D3, offset: 0x5C9DC, size: 0x8, addend: 0x0, symName: __ZNSt3__112__hash_tableINS_17__hash_value_typeIcP4NodeEENS_22__unordered_map_hasherIcS4_NS_4hashIcEENS_8equal_toIcEELb1EEENS_21__unordered_map_equalIcS4_S9_S7_Lb1EEENS_9allocatorIS4_EEE13__move_assignERSF_NS_17integral_constantIbLb1EEE, symObjAddr: 0x6E10, symBinAddr: 0x10001EAC0, symSize: 0x1CC }
  - { offsetInCU: 0x12A14, offset: 0x5CA1D, size: 0x8, addend: 0x0, symName: __ZNSt3__112__hash_tableINS_17__hash_value_typeIcP4NodeEENS_22__unordered_map_hasherIcS4_NS_4hashIcEENS_8equal_toIcEELb1EEENS_21__unordered_map_equalIcS4_S9_S7_Lb1EEENS_9allocatorIS4_EEE5clearEv, symObjAddr: 0x6FDC, symBinAddr: 0x10001EC8C, symSize: 0xCC }
  - { offsetInCU: 0x12A76, offset: 0x5CA7F, size: 0x8, addend: 0x0, symName: __ZNSt3__110unique_ptrIA_PNS_16__hash_node_baseIPNS_11__hash_nodeINS_17__hash_value_typeIcP4NodeEEPvEEEENS_25__bucket_list_deallocatorINS_9allocatorISB_EEEEE7releaseB7v160006Ev, symObjAddr: 0x70A8, symBinAddr: 0x10001ED58, symSize: 0x44 }
  - { offsetInCU: 0x12AA9, offset: 0x5CAB2, size: 0x8, addend: 0x0, symName: __ZNSt3__112__hash_tableINS_17__hash_value_typeIcP4NodeEENS_22__unordered_map_hasherIcS4_NS_4hashIcEENS_8equal_toIcEELb1EEENS_21__unordered_map_equalIcS4_S9_S7_Lb1EEENS_9allocatorIS4_EEE19__move_assign_allocB7v160006ERSF_, symObjAddr: 0x70EC, symBinAddr: 0x10001ED9C, symSize: 0x2C }
  - { offsetInCU: 0x12ADC, offset: 0x5CAE5, size: 0x8, addend: 0x0, symName: __ZNSt3__112__hash_tableINS_17__hash_value_typeIcP4NodeEENS_22__unordered_map_hasherIcS4_NS_4hashIcEENS_8equal_toIcEELb1EEENS_21__unordered_map_equalIcS4_S9_S7_Lb1EEENS_9allocatorIS4_EEE19__move_assign_allocB7v160006ERSF_NS_17integral_constantIbLb1EEE, symObjAddr: 0x712C, symBinAddr: 0x10001EDDC, symSize: 0x50 }
  - { offsetInCU: 0x12B1B, offset: 0x5CB24, size: 0x8, addend: 0x0, symName: __ZNSt3__16vectorINS_12basic_stringIcNS_11char_traitsIcEENS_9allocatorIcEEEENS4_IS6_EEE9__end_capB7v160006Ev, symObjAddr: 0x717C, symBinAddr: 0x10001EE2C, symSize: 0x28 }
  - { offsetInCU: 0x12B3F, offset: 0x5CB48, size: 0x8, addend: 0x0, symName: __ZNSt3__16vectorINS_12basic_stringIcNS_11char_traitsIcEENS_9allocatorIcEEEENS4_IS6_EEE22__construct_one_at_endB7v160006IJRKS6_EEEvDpOT_, symObjAddr: 0x71A4, symBinAddr: 0x10001EE54, symSize: 0x90 }
  - { offsetInCU: 0x12B8E, offset: 0x5CB97, size: 0x8, addend: 0x0, symName: __ZNSt3__16vectorINS_12basic_stringIcNS_11char_traitsIcEENS_9allocatorIcEEEENS4_IS6_EEE21__push_back_slow_pathIRKS6_EEvOT_, symObjAddr: 0x7234, symBinAddr: 0x10001EEE4, symSize: 0xD8 }
  - { offsetInCU: 0x12BEA, offset: 0x5CBF3, size: 0x8, addend: 0x0, symName: __ZNSt3__117__compressed_pairIPNS_12basic_stringIcNS_11char_traitsIcEENS_9allocatorIcEEEENS4_IS6_EEE5firstB7v160006Ev, symObjAddr: 0x730C, symBinAddr: 0x10001EFBC, symSize: 0x24 }
  - { offsetInCU: 0x12C27, offset: 0x5CC30, size: 0x8, addend: 0x0, symName: __ZNSt3__16vectorINS_12basic_stringIcNS_11char_traitsIcEENS_9allocatorIcEEEENS4_IS6_EEE21_ConstructTransactionC1B7v160006ERS8_m, symObjAddr: 0x7344, symBinAddr: 0x10001EFE0, symSize: 0x3C }
  - { offsetInCU: 0x12C6D, offset: 0x5CC76, size: 0x8, addend: 0x0, symName: __ZNSt3__16vectorINS_12basic_stringIcNS_11char_traitsIcEENS_9allocatorIcEEEENS4_IS6_EEE7__allocB7v160006Ev, symObjAddr: 0x73B0, symBinAddr: 0x10001F01C, symSize: 0x28 }
  - { offsetInCU: 0x12C91, offset: 0x5CC9A, size: 0x8, addend: 0x0, symName: __ZNSt3__16vectorINS_12basic_stringIcNS_11char_traitsIcEENS_9allocatorIcEEEENS4_IS6_EEE21_ConstructTransactionD1B7v160006Ev, symObjAddr: 0x73EC, symBinAddr: 0x10001F044, symSize: 0x2C }
  - { offsetInCU: 0x12CB9, offset: 0x5CCC2, size: 0x8, addend: 0x0, symName: __ZNSt3__16vectorINS_12basic_stringIcNS_11char_traitsIcEENS_9allocatorIcEEEENS4_IS6_EEE21_ConstructTransactionC2B7v160006ERS8_m, symObjAddr: 0x7418, symBinAddr: 0x10001F070, symSize: 0x4C }
  - { offsetInCU: 0x12CFF, offset: 0x5CD08, size: 0x8, addend: 0x0, symName: __ZNSt3__117__compressed_pairIPNS_12basic_stringIcNS_11char_traitsIcEENS_9allocatorIcEEEENS4_IS6_EEE6secondB7v160006Ev, symObjAddr: 0x74A0, symBinAddr: 0x10001F0BC, symSize: 0x24 }
  - { offsetInCU: 0x12D23, offset: 0x5CD2C, size: 0x8, addend: 0x0, symName: __ZNSt3__16vectorINS_12basic_stringIcNS_11char_traitsIcEENS_9allocatorIcEEEENS4_IS6_EEE21_ConstructTransactionD2B7v160006Ev, symObjAddr: 0x74D8, symBinAddr: 0x10001F0E0, symSize: 0x20 }
  - { offsetInCU: 0x12D4B, offset: 0x5CD54, size: 0x8, addend: 0x0, symName: __ZNKSt3__16vectorINS_12basic_stringIcNS_11char_traitsIcEENS_9allocatorIcEEEENS4_IS6_EEE11__recommendB7v160006Em, symObjAddr: 0x74F8, symBinAddr: 0x10001F100, symSize: 0xB4 }
  - { offsetInCU: 0x12D9E, offset: 0x5CDA7, size: 0x8, addend: 0x0, symName: __ZNSt3__114__split_bufferINS_12basic_stringIcNS_11char_traitsIcEENS_9allocatorIcEEEERNS4_IS6_EEEC1EmmS8_, symObjAddr: 0x75AC, symBinAddr: 0x10001F1B4, symSize: 0x44 }
  - { offsetInCU: 0x12DF3, offset: 0x5CDFC, size: 0x8, addend: 0x0, symName: __ZNSt3__114__split_bufferINS_12basic_stringIcNS_11char_traitsIcEENS_9allocatorIcEEEERNS4_IS6_EEED1Ev, symObjAddr: 0x7708, symBinAddr: 0x10001F310, symSize: 0x2C }
  - { offsetInCU: 0x12E1E, offset: 0x5CE27, size: 0x8, addend: 0x0, symName: __ZNKSt3__16vectorINS_12basic_stringIcNS_11char_traitsIcEENS_9allocatorIcEEEENS4_IS6_EEE8max_sizeEv, symObjAddr: 0x7734, symBinAddr: 0x10001F33C, symSize: 0x60 }
  - { offsetInCU: 0x12E44, offset: 0x5CE4D, size: 0x8, addend: 0x0, symName: __ZNKSt3__16vectorINS_12basic_stringIcNS_11char_traitsIcEENS_9allocatorIcEEEENS4_IS6_EEE20__throw_length_errorB7v160006Ev, symObjAddr: 0x7794, symBinAddr: 0x10001F39C, symSize: 0x1C }
  - { offsetInCU: 0x12E68, offset: 0x5CE71, size: 0x8, addend: 0x0, symName: __ZNKSt3__16vectorINS_12basic_stringIcNS_11char_traitsIcEENS_9allocatorIcEEEENS4_IS6_EEE8capacityB7v160006Ev, symObjAddr: 0x77B0, symBinAddr: 0x10001F3B8, symSize: 0x40 }
  - { offsetInCU: 0x12E96, offset: 0x5CE9F, size: 0x8, addend: 0x0, symName: __ZNKSt3__16vectorINS_12basic_stringIcNS_11char_traitsIcEENS_9allocatorIcEEEENS4_IS6_EEE7__allocB7v160006Ev, symObjAddr: 0x7818, symBinAddr: 0x10001F3F8, symSize: 0x28 }
  - { offsetInCU: 0x12EBA, offset: 0x5CEC3, size: 0x8, addend: 0x0, symName: __ZNKSt3__117__compressed_pairIPNS_12basic_stringIcNS_11char_traitsIcEENS_9allocatorIcEEEENS4_IS6_EEE6secondB7v160006Ev, symObjAddr: 0x7840, symBinAddr: 0x10001F420, symSize: 0x24 }
  - { offsetInCU: 0x12EDE, offset: 0x5CEE7, size: 0x8, addend: 0x0, symName: __ZNKSt3__122__compressed_pair_elemINS_9allocatorINS_12basic_stringIcNS_11char_traitsIcEENS1_IcEEEEEELi1ELb1EE5__getB7v160006Ev, symObjAddr: 0x7864, symBinAddr: 0x10001F444, symSize: 0x14 }
  - { offsetInCU: 0x12F02, offset: 0x5CF0B, size: 0x8, addend: 0x0, symName: __ZNKSt3__16vectorINS_12basic_stringIcNS_11char_traitsIcEENS_9allocatorIcEEEENS4_IS6_EEE9__end_capB7v160006Ev, symObjAddr: 0x7878, symBinAddr: 0x10001F458, symSize: 0x28 }
  - { offsetInCU: 0x12F26, offset: 0x5CF2F, size: 0x8, addend: 0x0, symName: __ZNKSt3__117__compressed_pairIPNS_12basic_stringIcNS_11char_traitsIcEENS_9allocatorIcEEEENS4_IS6_EEE5firstB7v160006Ev, symObjAddr: 0x78A0, symBinAddr: 0x10001F480, symSize: 0x24 }
  - { offsetInCU: 0x12F4A, offset: 0x5CF53, size: 0x8, addend: 0x0, symName: __ZNSt3__114__split_bufferINS_12basic_stringIcNS_11char_traitsIcEENS_9allocatorIcEEEERNS4_IS6_EEEC2EmmS8_, symObjAddr: 0x78D8, symBinAddr: 0x10001F4A4, symSize: 0xE0 }
  - { offsetInCU: 0x12FBD, offset: 0x5CFC6, size: 0x8, addend: 0x0, symName: __ZNSt3__117__compressed_pairIPNS_12basic_stringIcNS_11char_traitsIcEENS_9allocatorIcEEEERNS4_IS6_EEEC1B7v160006IDnS9_EEOT_OT0_, symObjAddr: 0x79B8, symBinAddr: 0x10001F584, symSize: 0x3C }
  - { offsetInCU: 0x13013, offset: 0x5D01C, size: 0x8, addend: 0x0, symName: __ZNSt3__114__split_bufferINS_12basic_stringIcNS_11char_traitsIcEENS_9allocatorIcEEEERNS4_IS6_EEE7__allocB7v160006Ev, symObjAddr: 0x7A34, symBinAddr: 0x10001F600, symSize: 0x28 }
  - { offsetInCU: 0x13037, offset: 0x5D040, size: 0x8, addend: 0x0, symName: __ZNSt3__114__split_bufferINS_12basic_stringIcNS_11char_traitsIcEENS_9allocatorIcEEEERNS4_IS6_EEE9__end_capB7v160006Ev, symObjAddr: 0x7A5C, symBinAddr: 0x10001F628, symSize: 0x28 }
  - { offsetInCU: 0x1305B, offset: 0x5D064, size: 0x8, addend: 0x0, symName: __ZNSt3__117__compressed_pairIPNS_12basic_stringIcNS_11char_traitsIcEENS_9allocatorIcEEEERNS4_IS6_EEEC2B7v160006IDnS9_EEOT_OT0_, symObjAddr: 0x7A84, symBinAddr: 0x10001F650, symSize: 0x48 }
  - { offsetInCU: 0x130B1, offset: 0x5D0BA, size: 0x8, addend: 0x0, symName: __ZNSt3__122__compressed_pair_elemIPNS_12basic_stringIcNS_11char_traitsIcEENS_9allocatorIcEEEELi0ELb0EEC2B7v160006IDnvEEOT_, symObjAddr: 0x7ACC, symBinAddr: 0x10001F698, symSize: 0x1C }
  - { offsetInCU: 0x130F2, offset: 0x5D0FB, size: 0x8, addend: 0x0, symName: __ZNSt3__122__compressed_pair_elemIRNS_9allocatorINS_12basic_stringIcNS_11char_traitsIcEENS1_IcEEEEEELi1ELb0EEC2B7v160006IS8_vEEOT_, symObjAddr: 0x7AE8, symBinAddr: 0x10001F6B4, symSize: 0x20 }
  - { offsetInCU: 0x13133, offset: 0x5D13C, size: 0x8, addend: 0x0, symName: __ZNSt3__117__compressed_pairIPNS_12basic_stringIcNS_11char_traitsIcEENS_9allocatorIcEEEERNS4_IS6_EEE6secondB7v160006Ev, symObjAddr: 0x7B64, symBinAddr: 0x10001F6D4, symSize: 0x28 }
  - { offsetInCU: 0x13157, offset: 0x5D160, size: 0x8, addend: 0x0, symName: __ZNSt3__122__compressed_pair_elemIRNS_9allocatorINS_12basic_stringIcNS_11char_traitsIcEENS1_IcEEEEEELi1ELb0EE5__getB7v160006Ev, symObjAddr: 0x7B8C, symBinAddr: 0x10001F6FC, symSize: 0x18 }
  - { offsetInCU: 0x1317B, offset: 0x5D184, size: 0x8, addend: 0x0, symName: __ZNSt3__117__compressed_pairIPNS_12basic_stringIcNS_11char_traitsIcEENS_9allocatorIcEEEERNS4_IS6_EEE5firstB7v160006Ev, symObjAddr: 0x7BA4, symBinAddr: 0x10001F714, symSize: 0x24 }
  - { offsetInCU: 0x1319F, offset: 0x5D1A8, size: 0x8, addend: 0x0, symName: __ZNKSt3__16vectorINS_12basic_stringIcNS_11char_traitsIcEENS_9allocatorIcEEEENS4_IS6_EEE17__annotate_deleteB7v160006Ev, symObjAddr: 0x7BC8, symBinAddr: 0x10001F738, symSize: 0xD4 }
  - { offsetInCU: 0x131C3, offset: 0x5D1CC, size: 0x8, addend: 0x0, symName: __ZNSt3__116reverse_iteratorIPNS_12basic_stringIcNS_11char_traitsIcEENS_9allocatorIcEEEEEC1B7v160006ES7_, symObjAddr: 0x7DC8, symBinAddr: 0x10001F938, symSize: 0x34 }
  - { offsetInCU: 0x131F9, offset: 0x5D202, size: 0x8, addend: 0x0, symName: __ZNKSt3__116reverse_iteratorIPNS_12basic_stringIcNS_11char_traitsIcEENS_9allocatorIcEEEEE4baseB7v160006Ev, symObjAddr: 0x7DFC, symBinAddr: 0x10001F96C, symSize: 0x18 }
  - { offsetInCU: 0x1321D, offset: 0x5D226, size: 0x8, addend: 0x0, symName: __ZNKSt3__16vectorINS_12basic_stringIcNS_11char_traitsIcEENS_9allocatorIcEEEENS4_IS6_EEE14__annotate_newB7v160006Em, symObjAddr: 0x7E50, symBinAddr: 0x10001F9C0, symSize: 0xC8 }
  - { offsetInCU: 0x13250, offset: 0x5D259, size: 0x8, addend: 0x0, symName: __ZNKSt3__16vectorINS_12basic_stringIcNS_11char_traitsIcEENS_9allocatorIcEEEENS4_IS6_EEE31__annotate_contiguous_containerB7v160006EPKvSA_SA_SA_, symObjAddr: 0x7F28, symBinAddr: 0x10001FA98, symSize: 0x20 }
  - { offsetInCU: 0x132A4, offset: 0x5D2AD, size: 0x8, addend: 0x0, symName: __ZNKSt3__16vectorINS_12basic_stringIcNS_11char_traitsIcEENS_9allocatorIcEEEENS4_IS6_EEE4dataB7v160006Ev, symObjAddr: 0x7F48, symBinAddr: 0x10001FAB8, symSize: 0x28 }
  - { offsetInCU: 0x132C8, offset: 0x5D2D1, size: 0x8, addend: 0x0, symName: __ZNSt3__129_AllocatorDestroyRangeReverseINS_9allocatorINS_12basic_stringIcNS_11char_traitsIcEENS1_IcEEEEEENS_16reverse_iteratorIPS6_EEEC1B7v160006ERS7_RSA_SD_, symObjAddr: 0x7FBC, symBinAddr: 0x10001FB2C, symSize: 0x44 }
  - { offsetInCU: 0x13322, offset: 0x5D32B, size: 0x8, addend: 0x0, symName: __ZNSt3__116allocator_traitsINS_9allocatorINS_12basic_stringIcNS_11char_traitsIcEENS1_IcEEEEEEE9constructB7v160006IS6_JS6_EvvEEvRS7_PT_DpOT0_, symObjAddr: 0x8048, symBinAddr: 0x10001FBB8, symSize: 0x30 }
  - { offsetInCU: 0x1337A, offset: 0x5D383, size: 0x8, addend: 0x0, symName: __ZNKSt3__116reverse_iteratorIPNS_12basic_stringIcNS_11char_traitsIcEENS_9allocatorIcEEEEEdeB7v160006Ev, symObjAddr: 0x809C, symBinAddr: 0x10001FC0C, symSize: 0x28 }
  - { offsetInCU: 0x133AD, offset: 0x5D3B6, size: 0x8, addend: 0x0, symName: __ZNSt3__116reverse_iteratorIPNS_12basic_stringIcNS_11char_traitsIcEENS_9allocatorIcEEEEEppB7v160006Ev, symObjAddr: 0x80C4, symBinAddr: 0x10001FC34, symSize: 0x20 }
  - { offsetInCU: 0x133D1, offset: 0x5D3DA, size: 0x8, addend: 0x0, symName: __ZNSt3__128__exception_guard_exceptionsINS_29_AllocatorDestroyRangeReverseINS_9allocatorINS_12basic_stringIcNS_11char_traitsIcEENS2_IcEEEEEENS_16reverse_iteratorIPS7_EEEEE10__completeB7v160006Ev, symObjAddr: 0x80E4, symBinAddr: 0x10001FC54, symSize: 0x1C }
  - { offsetInCU: 0x133F5, offset: 0x5D3FE, size: 0x8, addend: 0x0, symName: __ZNSt3__128__exception_guard_exceptionsINS_29_AllocatorDestroyRangeReverseINS_9allocatorINS_12basic_stringIcNS_11char_traitsIcEENS2_IcEEEEEENS_16reverse_iteratorIPS7_EEEEED1B7v160006Ev, symObjAddr: 0x8100, symBinAddr: 0x10001FC70, symSize: 0x2C }
  - { offsetInCU: 0x1341D, offset: 0x5D426, size: 0x8, addend: 0x0, symName: __ZNSt3__128__exception_guard_exceptionsINS_29_AllocatorDestroyRangeReverseINS_9allocatorINS_12basic_stringIcNS_11char_traitsIcEENS2_IcEEEEEENS_16reverse_iteratorIPS7_EEEEEC1B7v160006ESC_, symObjAddr: 0x812C, symBinAddr: 0x10001FC9C, symSize: 0x34 }
  - { offsetInCU: 0x13454, offset: 0x5D45D, size: 0x8, addend: 0x0, symName: __ZNSt3__128__exception_guard_exceptionsINS_29_AllocatorDestroyRangeReverseINS_9allocatorINS_12basic_stringIcNS_11char_traitsIcEENS2_IcEEEEEENS_16reverse_iteratorIPS7_EEEEEC2B7v160006ESC_, symObjAddr: 0x8160, symBinAddr: 0x10001FCD0, symSize: 0x30 }
  - { offsetInCU: 0x1348B, offset: 0x5D494, size: 0x8, addend: 0x0, symName: __ZNSt3__129_AllocatorDestroyRangeReverseINS_9allocatorINS_12basic_stringIcNS_11char_traitsIcEENS1_IcEEEEEENS_16reverse_iteratorIPS6_EEEC2B7v160006ERS7_RSA_SD_, symObjAddr: 0x8190, symBinAddr: 0x10001FD00, symSize: 0x38 }
  - { offsetInCU: 0x134E5, offset: 0x5D4EE, size: 0x8, addend: 0x0, symName: __ZNSt3__119__to_address_helperINS_16reverse_iteratorIPNS_12basic_stringIcNS_11char_traitsIcEENS_9allocatorIcEEEEEEvE6__callB7v160006ERKS9_, symObjAddr: 0x835C, symBinAddr: 0x10001FD74, symSize: 0x38 }
  - { offsetInCU: 0x13507, offset: 0x5D510, size: 0x8, addend: 0x0, symName: __ZNKSt3__116reverse_iteratorIPNS_12basic_stringIcNS_11char_traitsIcEENS_9allocatorIcEEEEEptB7v160006Ev, symObjAddr: 0x8394, symBinAddr: 0x10001FDAC, symSize: 0x2C }
  - { offsetInCU: 0x1352B, offset: 0x5D534, size: 0x8, addend: 0x0, symName: __ZNSt3__128__exception_guard_exceptionsINS_29_AllocatorDestroyRangeReverseINS_9allocatorINS_12basic_stringIcNS_11char_traitsIcEENS2_IcEEEEEENS_16reverse_iteratorIPS7_EEEEED2B7v160006Ev, symObjAddr: 0x84A4, symBinAddr: 0x10001FEA8, symSize: 0x50 }
  - { offsetInCU: 0x13553, offset: 0x5D55C, size: 0x8, addend: 0x0, symName: __ZNKSt3__129_AllocatorDestroyRangeReverseINS_9allocatorINS_12basic_stringIcNS_11char_traitsIcEENS1_IcEEEEEENS_16reverse_iteratorIPS6_EEEclB7v160006Ev, symObjAddr: 0x84F4, symBinAddr: 0x10001FEF8, symSize: 0xB4 }
  - { offsetInCU: 0x13578, offset: 0x5D581, size: 0x8, addend: 0x0, symName: __ZNSt3__116reverse_iteratorINS0_IPNS_12basic_stringIcNS_11char_traitsIcEENS_9allocatorIcEEEEEEEC1B7v160006ES8_, symObjAddr: 0x8618, symBinAddr: 0x10002001C, symSize: 0x3C }
  - { offsetInCU: 0x135AE, offset: 0x5D5B7, size: 0x8, addend: 0x0, symName: __ZNSt3__116reverse_iteratorINS0_IPNS_12basic_stringIcNS_11char_traitsIcEENS_9allocatorIcEEEEEEEppB7v160006Ev, symObjAddr: 0x8700, symBinAddr: 0x1000200DC, symSize: 0x30 }
  - { offsetInCU: 0x135D2, offset: 0x5D5DB, size: 0x8, addend: 0x0, symName: __ZNKSt3__116reverse_iteratorINS0_IPNS_12basic_stringIcNS_11char_traitsIcEENS_9allocatorIcEEEEEEE4baseB7v160006Ev, symObjAddr: 0x8730, symBinAddr: 0x10002010C, symSize: 0x24 }
  - { offsetInCU: 0x135FB, offset: 0x5D604, size: 0x8, addend: 0x0, symName: __ZNSt3__119__to_address_helperINS_16reverse_iteratorINS1_IPNS_12basic_stringIcNS_11char_traitsIcEENS_9allocatorIcEEEEEEEEvE6__callB7v160006ERKSA_, symObjAddr: 0x879C, symBinAddr: 0x100020130, symSize: 0x38 }
  - { offsetInCU: 0x1361D, offset: 0x5D626, size: 0x8, addend: 0x0, symName: __ZNKSt3__116reverse_iteratorINS0_IPNS_12basic_stringIcNS_11char_traitsIcEENS_9allocatorIcEEEEEEEptB7v160006Ev, symObjAddr: 0x87D4, symBinAddr: 0x100020168, symSize: 0x4C }
  - { offsetInCU: 0x13641, offset: 0x5D64A, size: 0x8, addend: 0x0, symName: __ZNSt3__116reverse_iteratorIPNS_12basic_stringIcNS_11char_traitsIcEENS_9allocatorIcEEEEEpLB7v160006El, symObjAddr: 0x88FC, symBinAddr: 0x100020290, symSize: 0x30 }
  - { offsetInCU: 0x13673, offset: 0x5D67C, size: 0x8, addend: 0x0, symName: __ZNSt3__116reverse_iteratorIPNS_12basic_stringIcNS_11char_traitsIcEENS_9allocatorIcEEEEEmmB7v160006Ev, symObjAddr: 0x892C, symBinAddr: 0x1000202C0, symSize: 0x20 }
  - { offsetInCU: 0x13697, offset: 0x5D6A0, size: 0x8, addend: 0x0, symName: __ZNSt3__116reverse_iteratorINS0_IPNS_12basic_stringIcNS_11char_traitsIcEENS_9allocatorIcEEEEEEEC2B7v160006ES8_, symObjAddr: 0x894C, symBinAddr: 0x1000202E0, symSize: 0x2C }
  - { offsetInCU: 0x136CD, offset: 0x5D6D6, size: 0x8, addend: 0x0, symName: __ZNSt3__116reverse_iteratorIPNS_12basic_stringIcNS_11char_traitsIcEENS_9allocatorIcEEEEEC2B7v160006ES7_, symObjAddr: 0x8978, symBinAddr: 0x10002030C, symSize: 0x28 }
  - { offsetInCU: 0x13703, offset: 0x5D70C, size: 0x8, addend: 0x0, symName: __ZNSt3__114__split_bufferINS_12basic_stringIcNS_11char_traitsIcEENS_9allocatorIcEEEERNS4_IS6_EEED2Ev, symObjAddr: 0x89A0, symBinAddr: 0x100020334, symSize: 0x8C }
  - { offsetInCU: 0x1372E, offset: 0x5D737, size: 0x8, addend: 0x0, symName: __ZNSt3__114__split_bufferINS_12basic_stringIcNS_11char_traitsIcEENS_9allocatorIcEEEERNS4_IS6_EEE5clearB7v160006Ev, symObjAddr: 0x8A2C, symBinAddr: 0x1000203C0, symSize: 0x28 }
  - { offsetInCU: 0x13752, offset: 0x5D75B, size: 0x8, addend: 0x0, symName: __ZNKSt3__114__split_bufferINS_12basic_stringIcNS_11char_traitsIcEENS_9allocatorIcEEEERNS4_IS6_EEE8capacityB7v160006Ev, symObjAddr: 0x8A88, symBinAddr: 0x1000203E8, symSize: 0x40 }
  - { offsetInCU: 0x13776, offset: 0x5D77F, size: 0x8, addend: 0x0, symName: __ZNSt3__114__split_bufferINS_12basic_stringIcNS_11char_traitsIcEENS_9allocatorIcEEEERNS4_IS6_EEE17__destruct_at_endB7v160006EPS6_, symObjAddr: 0x8AC8, symBinAddr: 0x100020428, symSize: 0x2C }
  - { offsetInCU: 0x137A8, offset: 0x5D7B1, size: 0x8, addend: 0x0, symName: __ZNSt3__114__split_bufferINS_12basic_stringIcNS_11char_traitsIcEENS_9allocatorIcEEEERNS4_IS6_EEE17__destruct_at_endB7v160006EPS6_NS_17integral_constantIbLb0EEE, symObjAddr: 0x8AF4, symBinAddr: 0x100020454, symSize: 0x80 }
  - { offsetInCU: 0x137E6, offset: 0x5D7EF, size: 0x8, addend: 0x0, symName: __ZNKSt3__114__split_bufferINS_12basic_stringIcNS_11char_traitsIcEENS_9allocatorIcEEEERNS4_IS6_EEE9__end_capB7v160006Ev, symObjAddr: 0x8BB8, symBinAddr: 0x1000204D4, symSize: 0x28 }
  - { offsetInCU: 0x1380A, offset: 0x5D813, size: 0x8, addend: 0x0, symName: __ZNKSt3__117__compressed_pairIPNS_12basic_stringIcNS_11char_traitsIcEENS_9allocatorIcEEEERNS4_IS6_EEE5firstB7v160006Ev, symObjAddr: 0x8BE0, symBinAddr: 0x1000204FC, symSize: 0x24 }
  - { offsetInCU: 0x13838, offset: 0x5D841, size: 0x8, addend: 0x0, symName: __ZNSt3__116allocator_traitsINS_9allocatorIcEEE37select_on_container_copy_constructionB7v160006IS2_vvEES2_RKS2_, symObjAddr: 0x8C04, symBinAddr: 0x100020520, symSize: 0x10 }
  - { offsetInCU: 0x13868, offset: 0x5D871, size: 0x8, addend: 0x0, symName: __ZNKSt3__112basic_stringIcNS_11char_traitsIcEENS_9allocatorIcEEE13get_allocatorB7v160006Ev, symObjAddr: 0x8C14, symBinAddr: 0x100020530, symSize: 0x24 }
  - { offsetInCU: 0x1388C, offset: 0x5D895, size: 0x8, addend: 0x0, symName: __ZNSt3__112basic_stringIcNS_11char_traitsIcEENS_9allocatorIcEEEC1B7v160006ENS_24__uninitialized_size_tagEmRKS4_, symObjAddr: 0x8C38, symBinAddr: 0x100020554, symSize: 0x3C }
  - { offsetInCU: 0x138DE, offset: 0x5D8E7, size: 0x8, addend: 0x0, symName: __ZNSt3__111char_traitsIcE4copyEPcPKcm, symObjAddr: 0x8CDC, symBinAddr: 0x100020590, symSize: 0x5C }
  - { offsetInCU: 0x1391C, offset: 0x5D925, size: 0x8, addend: 0x0, symName: __ZNSt3__111char_traitsIcE6assignEPcmc, symObjAddr: 0x8D38, symBinAddr: 0x1000205EC, symSize: 0x44 }
  - { offsetInCU: 0x1395A, offset: 0x5D963, size: 0x8, addend: 0x0, symName: __ZNKSt3__112basic_stringIcNS_11char_traitsIcEENS_9allocatorIcEEE7__allocB7v160006Ev, symObjAddr: 0x8D7C, symBinAddr: 0x100020630, symSize: 0x24 }
  - { offsetInCU: 0x1397E, offset: 0x5D987, size: 0x8, addend: 0x0, symName: __ZNKSt3__117__compressed_pairINS_12basic_stringIcNS_11char_traitsIcEENS_9allocatorIcEEE5__repES5_E6secondB7v160006Ev, symObjAddr: 0x8DA0, symBinAddr: 0x100020654, symSize: 0x24 }
  - { offsetInCU: 0x139A2, offset: 0x5D9AB, size: 0x8, addend: 0x0, symName: __ZNKSt3__122__compressed_pair_elemINS_9allocatorIcEELi1ELb1EE5__getB7v160006Ev, symObjAddr: 0x8DC4, symBinAddr: 0x100020678, symSize: 0x14 }
  - { offsetInCU: 0x139C6, offset: 0x5D9CF, size: 0x8, addend: 0x0, symName: __ZNSt3__112basic_stringIcNS_11char_traitsIcEENS_9allocatorIcEEEC2B7v160006ENS_24__uninitialized_size_tagEmRKS4_, symObjAddr: 0x8DD8, symBinAddr: 0x10002068C, symSize: 0x118 }
  - { offsetInCU: 0x13A45, offset: 0x5DA4E, size: 0x8, addend: 0x0, symName: __ZNSt3__117__compressed_pairINS_12basic_stringIcNS_11char_traitsIcEENS_9allocatorIcEEE5__repES5_EC1B7v160006INS_18__default_init_tagERKS5_EEOT_OT0_, symObjAddr: 0x8EF0, symBinAddr: 0x1000207A4, symSize: 0x3C }
  - { offsetInCU: 0x13A9B, offset: 0x5DAA4, size: 0x8, addend: 0x0, symName: __ZNKSt3__112basic_stringIcNS_11char_traitsIcEENS_9allocatorIcEEE8max_sizeB7v160006Ev, symObjAddr: 0x8F2C, symBinAddr: 0x1000207E0, symSize: 0xAC }
  - { offsetInCU: 0x13AEC, offset: 0x5DAF5, size: 0x8, addend: 0x0, symName: __ZNKSt3__112basic_stringIcNS_11char_traitsIcEENS_9allocatorIcEEE20__throw_length_errorB7v160006Ev, symObjAddr: 0x8FD8, symBinAddr: 0x10002088C, symSize: 0x1C }
  - { offsetInCU: 0x13B10, offset: 0x5DB19, size: 0x8, addend: 0x0, symName: __ZNSt3__112basic_stringIcNS_11char_traitsIcEENS_9allocatorIcEEE13__fits_in_ssoB7v160006Em, symObjAddr: 0x8FF4, symBinAddr: 0x1000208A8, symSize: 0x20 }
  - { offsetInCU: 0x13B33, offset: 0x5DB3C, size: 0x8, addend: 0x0, symName: __ZNSt3__112basic_stringIcNS_11char_traitsIcEENS_9allocatorIcEEE16__set_short_sizeB7v160006Em, symObjAddr: 0x9014, symBinAddr: 0x1000208C8, symSize: 0x78 }
  - { offsetInCU: 0x13B66, offset: 0x5DB6F, size: 0x8, addend: 0x0, symName: __ZNSt3__112basic_stringIcNS_11char_traitsIcEENS_9allocatorIcEEE11__recommendB7v160006Em, symObjAddr: 0x908C, symBinAddr: 0x100020940, symSize: 0x84 }
  - { offsetInCU: 0x13B98, offset: 0x5DBA1, size: 0x8, addend: 0x0, symName: __ZNSt3__116allocator_traitsINS_9allocatorIcEEE8allocateB7v160006ERS2_m, symObjAddr: 0x9110, symBinAddr: 0x1000209C4, symSize: 0x2C }
  - { offsetInCU: 0x13BCA, offset: 0x5DBD3, size: 0x8, addend: 0x0, symName: __ZNSt3__112basic_stringIcNS_11char_traitsIcEENS_9allocatorIcEEE7__allocB7v160006Ev, symObjAddr: 0x913C, symBinAddr: 0x1000209F0, symSize: 0x24 }
  - { offsetInCU: 0x13BEE, offset: 0x5DBF7, size: 0x8, addend: 0x0, symName: __ZNSt3__112basic_stringIcNS_11char_traitsIcEENS_9allocatorIcEEE16__begin_lifetimeB7v160006EPcm, symObjAddr: 0x9160, symBinAddr: 0x100020A14, symSize: 0x14 }
  - { offsetInCU: 0x13C20, offset: 0x5DC29, size: 0x8, addend: 0x0, symName: __ZNSt3__112basic_stringIcNS_11char_traitsIcEENS_9allocatorIcEEE14__set_long_capB7v160006Em, symObjAddr: 0x9174, symBinAddr: 0x100020A28, symSize: 0x70 }
  - { offsetInCU: 0x13C53, offset: 0x5DC5C, size: 0x8, addend: 0x0, symName: __ZNSt3__112basic_stringIcNS_11char_traitsIcEENS_9allocatorIcEEE18__set_long_pointerB7v160006EPc, symObjAddr: 0x91E4, symBinAddr: 0x100020A98, symSize: 0x38 }
  - { offsetInCU: 0x13C86, offset: 0x5DC8F, size: 0x8, addend: 0x0, symName: __ZNSt3__112basic_stringIcNS_11char_traitsIcEENS_9allocatorIcEEE15__set_long_sizeB7v160006Em, symObjAddr: 0x921C, symBinAddr: 0x100020AD0, symSize: 0x38 }
  - { offsetInCU: 0x13CB9, offset: 0x5DCC2, size: 0x8, addend: 0x0, symName: __ZNSt3__117__compressed_pairINS_12basic_stringIcNS_11char_traitsIcEENS_9allocatorIcEEE5__repES5_EC2B7v160006INS_18__default_init_tagERKS5_EEOT_OT0_, symObjAddr: 0x9254, symBinAddr: 0x100020B08, symSize: 0x40 }
  - { offsetInCU: 0x13D0F, offset: 0x5DD18, size: 0x8, addend: 0x0, symName: __ZNSt3__122__compressed_pair_elemINS_9allocatorIcEELi1ELb1EEC2B7v160006IRKS2_vEEOT_, symObjAddr: 0x92A8, symBinAddr: 0x100020B48, symSize: 0x18 }
  - { offsetInCU: 0x13D50, offset: 0x5DD59, size: 0x8, addend: 0x0, symName: __ZNSt3__116allocator_traitsINS_9allocatorIcEEE8max_sizeB7v160006IS2_vvEEmRKS2_, symObjAddr: 0x92C0, symBinAddr: 0x100020B60, symSize: 0x28 }
  - { offsetInCU: 0x13D7D, offset: 0x5DD86, size: 0x8, addend: 0x0, symName: __ZNSt3__112basic_stringIcNS_11char_traitsIcEENS_9allocatorIcEEE10__align_itB7v160006ILm16EEEmm, symObjAddr: 0x92E8, symBinAddr: 0x100020B88, symSize: 0x1C }
  - { offsetInCU: 0x13DAA, offset: 0x5DDB3, size: 0x8, addend: 0x0, symName: __ZNSt3__19allocatorIcE8allocateB7v160006Em, symObjAddr: 0x9304, symBinAddr: 0x100020BA4, symSize: 0x58 }
  - { offsetInCU: 0x13DDC, offset: 0x5DDE5, size: 0x8, addend: 0x0, symName: __ZNSt3__117__compressed_pairINS_12basic_stringIcNS_11char_traitsIcEENS_9allocatorIcEEE5__repES5_E6secondB7v160006Ev, symObjAddr: 0x935C, symBinAddr: 0x100020BFC, symSize: 0x24 }
  - { offsetInCU: 0x13E00, offset: 0x5DE09, size: 0x8, addend: 0x0, symName: __ZNSt3__122__compressed_pair_elemINS_9allocatorIcEELi1ELb1EE5__getB7v160006Ev, symObjAddr: 0x9380, symBinAddr: 0x100020C20, symSize: 0x14 }
  - { offsetInCU: 0x13E47, offset: 0x5DE50, size: 0x8, addend: 0x0, symName: __ZNKSt3__114__copy_trivialclB7v160006IKccLi0EEENS_4pairIPT_PT0_EES5_S5_S7_, symObjAddr: 0x95F4, symBinAddr: 0x100020E30, symSize: 0x48 }
  - { offsetInCU: 0x13EC7, offset: 0x5DED0, size: 0x8, addend: 0x0, symName: __ZNSt3__119__unwrap_range_implIPKcS2_E8__unwrapB7v160006ES2_S2_, symObjAddr: 0x9700, symBinAddr: 0x100020F3C, symSize: 0x58 }
  - { offsetInCU: 0x13EFC, offset: 0x5DF05, size: 0x8, addend: 0x0, symName: __ZNSt3__14pairIPKcS2_EC1B7v160006IS2_S2_LPv0EEEOT_OT0_, symObjAddr: 0x977C, symBinAddr: 0x100020FB8, symSize: 0x3C }
  - { offsetInCU: 0x13F59, offset: 0x5DF62, size: 0x8, addend: 0x0, symName: __ZNSt3__118__unwrap_iter_implIPKcLb1EE8__unwrapB7v160006ES2_, symObjAddr: 0x97B8, symBinAddr: 0x100020FF4, symSize: 0x24 }
  - { offsetInCU: 0x13F7B, offset: 0x5DF84, size: 0x8, addend: 0x0, symName: __ZNSt3__14pairIPKcS2_EC2B7v160006IS2_S2_LPv0EEEOT_OT0_, symObjAddr: 0x97DC, symBinAddr: 0x100021018, symSize: 0x34 }
  - { offsetInCU: 0x13FE2, offset: 0x5DFEB, size: 0x8, addend: 0x0, symName: __ZNSt3__14pairIPKcPcEC1B7v160006IRS2_S3_LPv0EEEOT_OT0_, symObjAddr: 0x98C4, symBinAddr: 0x100021100, symSize: 0x3C }
  - { offsetInCU: 0x1403F, offset: 0x5E048, size: 0x8, addend: 0x0, symName: __ZNSt3__14pairIPKcPcEC2B7v160006IRS2_S3_LPv0EEEOT_OT0_, symObjAddr: 0x9900, symBinAddr: 0x10002113C, symSize: 0x34 }
  - { offsetInCU: 0x1409C, offset: 0x5E0A5, size: 0x8, addend: 0x0, symName: __ZNSt3__118__unwrap_iter_implIPcLb1EE8__unwrapB7v160006ES1_, symObjAddr: 0x9934, symBinAddr: 0x100021170, symSize: 0x24 }
  - { offsetInCU: 0x140BE, offset: 0x5E0C7, size: 0x8, addend: 0x0, symName: __ZNSt3__14pairIPKcPcEC1B7v160006IS2_S3_LPv0EEEOT_OT0_, symObjAddr: 0x9958, symBinAddr: 0x100021194, symSize: 0x3C }
  - { offsetInCU: 0x1411B, offset: 0x5E124, size: 0x8, addend: 0x0, symName: __ZNSt3__14pairIPKcPcEC2B7v160006IS2_S3_LPv0EEEOT_OT0_, symObjAddr: 0x9994, symBinAddr: 0x1000211D0, symSize: 0x34 }
  - { offsetInCU: 0x14178, offset: 0x5E181, size: 0x8, addend: 0x0, symName: __ZNSt3__119__unwrap_range_implIPKcS2_E8__rewrapB7v160006ES2_S2_, symObjAddr: 0x99C8, symBinAddr: 0x100021204, symSize: 0x2C }
  - { offsetInCU: 0x141A8, offset: 0x5E1B1, size: 0x8, addend: 0x0, symName: __ZNSt3__118__unwrap_iter_implIPKcLb1EE8__rewrapB7v160006ES2_S2_, symObjAddr: 0x9A30, symBinAddr: 0x10002126C, symSize: 0x48 }
  - { offsetInCU: 0x141D8, offset: 0x5E1E1, size: 0x8, addend: 0x0, symName: __ZNSt3__118__unwrap_iter_implIPcLb1EE8__rewrapB7v160006ES1_S1_, symObjAddr: 0x9A78, symBinAddr: 0x1000212B4, symSize: 0x48 }
  - { offsetInCU: 0x14208, offset: 0x5E211, size: 0x8, addend: 0x0, symName: __ZNSt3__112basic_stringIcNS_11char_traitsIcEENS_9allocatorIcEEE15__make_iteratorB7v160006EPc, symObjAddr: 0x9B7C, symBinAddr: 0x1000213B8, symSize: 0x34 }
  - { offsetInCU: 0x1423B, offset: 0x5E244, size: 0x8, addend: 0x0, symName: __ZNSt3__111__wrap_iterIPcEC1B7v160006EPKvS1_, symObjAddr: 0x9BB0, symBinAddr: 0x1000213EC, symSize: 0x3C }
  - { offsetInCU: 0x1427F, offset: 0x5E288, size: 0x8, addend: 0x0, symName: __ZNSt3__111__wrap_iterIPcEC2B7v160006EPKvS1_, symObjAddr: 0x9BEC, symBinAddr: 0x100021428, symSize: 0x24 }
  - { offsetInCU: 0x142C3, offset: 0x5E2CC, size: 0x8, addend: 0x0, symName: __ZNKSt3__111__wrap_iterIPcE4baseB7v160006Ev, symObjAddr: 0x9C58, symBinAddr: 0x100021494, symSize: 0x18 }
  - { offsetInCU: 0x142E7, offset: 0x5E2F0, size: 0x8, addend: 0x0, symName: __ZNSt3__16vectorINS_12basic_stringIcNS_11char_traitsIcEENS_9allocatorIcEEEENS4_IS6_EEEC2B7v160006Ev, symObjAddr: 0x9C70, symBinAddr: 0x1000214AC, symSize: 0x58 }
  - { offsetInCU: 0x1430F, offset: 0x5E318, size: 0x8, addend: 0x0, symName: __ZNSt3__117__compressed_pairIPNS_12basic_stringIcNS_11char_traitsIcEENS_9allocatorIcEEEENS4_IS6_EEEC1B7v160006IDnNS_18__default_init_tagEEEOT_OT0_, symObjAddr: 0x9CC8, symBinAddr: 0x100021504, symSize: 0x3C }
  - { offsetInCU: 0x14365, offset: 0x5E36E, size: 0x8, addend: 0x0, symName: __ZNSt3__117__compressed_pairIPNS_12basic_stringIcNS_11char_traitsIcEENS_9allocatorIcEEEENS4_IS6_EEEC2B7v160006IDnNS_18__default_init_tagEEEOT_OT0_, symObjAddr: 0x9D14, symBinAddr: 0x100021550, symSize: 0x40 }
  - { offsetInCU: 0x143BB, offset: 0x5E3C4, size: 0x8, addend: 0x0, symName: __ZNSt3__16vectorINS_12basic_stringIcNS_11char_traitsIcEENS_9allocatorIcEEEENS4_IS6_EEED2B7v160006Ev, symObjAddr: 0x9DC0, symBinAddr: 0x100021590, symSize: 0x44 }
  - { offsetInCU: 0x143E3, offset: 0x5E3EC, size: 0x8, addend: 0x0, symName: __ZNSt3__16vectorINS_12basic_stringIcNS_11char_traitsIcEENS_9allocatorIcEEEENS4_IS6_EEE16__destroy_vectorC1ERS8_, symObjAddr: 0x9E04, symBinAddr: 0x1000215D4, symSize: 0x34 }
  - { offsetInCU: 0x1441A, offset: 0x5E423, size: 0x8, addend: 0x0, symName: __ZNSt3__16vectorINS_12basic_stringIcNS_11char_traitsIcEENS_9allocatorIcEEEENS4_IS6_EEE16__destroy_vectorclB7v160006Ev, symObjAddr: 0x9E38, symBinAddr: 0x100021608, symSize: 0x9C }
  - { offsetInCU: 0x1443E, offset: 0x5E447, size: 0x8, addend: 0x0, symName: __ZNSt3__16vectorINS_12basic_stringIcNS_11char_traitsIcEENS_9allocatorIcEEEENS4_IS6_EEE16__destroy_vectorC2ERS8_, symObjAddr: 0x9ED4, symBinAddr: 0x1000216A4, symSize: 0x20 }
  - { offsetInCU: 0x14475, offset: 0x5E47E, size: 0x8, addend: 0x0, symName: __ZNSt3__16vectorINS_12basic_stringIcNS_11char_traitsIcEENS_9allocatorIcEEEENS4_IS6_EEE7__clearB7v160006Ev, symObjAddr: 0x9F04, symBinAddr: 0x1000216D4, symSize: 0x28 }
  - { offsetInCU: 0x14499, offset: 0x5E4A2, size: 0x8, addend: 0x0, symName: __ZNSt3__16vectorINS_12basic_stringIcNS_11char_traitsIcEENS_9allocatorIcEEEENS4_IS6_EEE22__base_destruct_at_endB7v160006EPS6_, symObjAddr: 0x9F2C, symBinAddr: 0x1000216FC, symSize: 0x8C }
  - { offsetInCU: 0x8994, offset: 0x67075, size: 0x8, addend: 0x0, symName: __ZNSt3__17advanceB7v160006INS_21__tree_const_iteratorIP4EdgePNS_11__tree_nodeIS3_PvEElEEllvEEvRT_T0_, symObjAddr: 0x925C, symBinAddr: 0x100027F60, symSize: 0x50 }
  - { offsetInCU: 0xC32E, offset: 0x6AA0F, size: 0x8, addend: 0x0, symName: __ZNSt3__117__floyd_sift_downB7v160006INS_17_ClassicAlgPolicyERNS_4lessIP9NodeEntryEENS_11__wrap_iterIPS4_EEEET1_SA_OT0_NS_15iterator_traitsISA_E15difference_typeE, symObjAddr: 0x10058, symBinAddr: 0x10002D8F0, symSize: 0x14C }
  - { offsetInCU: 0x11799, offset: 0x6FE7A, size: 0x8, addend: 0x0, symName: __ZNSt3__1neB7v160006ERKNS_19__hash_map_iteratorINS_15__hash_iteratorIPNS_11__hash_nodeINS_17__hash_value_typeINS_12basic_stringIcNS_11char_traitsIcEENS_9allocatorIcEEEENS_3setIP4EdgeNS_4lessISC_EENS7_ISC_EEEEEEPvEEEEEESO_, symObjAddr: 0x28C, symBinAddr: 0x100021A14, symSize: 0x30 }
  - { offsetInCU: 0x117D6, offset: 0x6FEB7, size: 0x8, addend: 0x0, symName: __ZNSt3__1neB7v160006ERKNS_21__tree_const_iteratorIP4EdgePNS_11__tree_nodeIS2_PvEElEES9_, symObjAddr: 0x360, symBinAddr: 0x100021ADC, symSize: 0x34 }
  - { offsetInCU: 0x13AE1, offset: 0x721C2, size: 0x8, addend: 0x0, symName: __ZNSt3__118__debug_db_erase_cB7v160006INS_6vectorIP9NodeEntryNS_9allocatorIS3_EEEEEEvPT_, symObjAddr: 0x3B90, symBinAddr: 0x100023C84, symSize: 0x10 }
  - { offsetInCU: 0x13B12, offset: 0x721F3, size: 0x8, addend: 0x0, symName: __ZNSt3__112__to_addressB7v160006IP9NodeEntryEEPT_S4_, symObjAddr: 0x3CD4, symBinAddr: 0x100023DC8, symSize: 0x14 }
  - { offsetInCU: 0x13B47, offset: 0x72228, size: 0x8, addend: 0x0, symName: __ZNSt3__110destroy_atB7v160006IP9NodeEntryLi0EEEvPT_, symObjAddr: 0x3D9C, symBinAddr: 0x100023E90, symSize: 0x24 }
  - { offsetInCU: 0x13B80, offset: 0x72261, size: 0x8, addend: 0x0, symName: __ZNSt3__112__destroy_atB7v160006IP9NodeEntryLi0EEEvPT_, symObjAddr: 0x3DC0, symBinAddr: 0x100023EB4, symSize: 0x10 }
  - { offsetInCU: 0x13BB8, offset: 0x72299, size: 0x8, addend: 0x0, symName: __ZNSt3__119__debug_db_insert_cB7v160006INS_13unordered_mapINS_12basic_stringIcNS_11char_traitsIcEENS_9allocatorIcEEEENS_3setIP4EdgeNS_4lessISA_EENS5_ISA_EEEENS_4hashIS7_EENS_8equal_toIS7_EENS5_INS_4pairIKS7_SE_EEEEEEEEvPT_, symObjAddr: 0x3FC8, symBinAddr: 0x100024064, symSize: 0x10 }
  - { offsetInCU: 0x13BE9, offset: 0x722CA, size: 0x8, addend: 0x0, symName: __ZNSt3__1neB7v160006ERKNS_15__hash_iteratorIPNS_11__hash_nodeINS_17__hash_value_typeINS_12basic_stringIcNS_11char_traitsIcEENS_9allocatorIcEEEENS_3setIP4EdgeNS_4lessISB_EENS6_ISB_EEEEEEPvEEEESM_, symObjAddr: 0x4728, symBinAddr: 0x10002477C, symSize: 0x34 }
  - { offsetInCU: 0x13C26, offset: 0x72307, size: 0x8, addend: 0x0, symName: __ZNSt3__1eqB7v160006ERKNS_15__hash_iteratorIPNS_11__hash_nodeINS_17__hash_value_typeINS_12basic_stringIcNS_11char_traitsIcEENS_9allocatorIcEEEENS_3setIP4EdgeNS_4lessISB_EENS6_ISB_EEEEEEPvEEEESM_, symObjAddr: 0x475C, symBinAddr: 0x1000247B0, symSize: 0x30 }
  - { offsetInCU: 0x13CCA, offset: 0x723AB, size: 0x8, addend: 0x0, symName: __ZNSt3__17launderB7v160006INS_4pairIKNS_12basic_stringIcNS_11char_traitsIcEENS_9allocatorIcEEEENS_3setIP4EdgeNS_4lessISB_EENS5_ISB_EEEEEEEEPT_SI_, symObjAddr: 0x484C, symBinAddr: 0x1000248A0, symSize: 0x24 }
  - { offsetInCU: 0x13D01, offset: 0x723E2, size: 0x8, addend: 0x0, symName: __ZNSt3__19__launderB7v160006INS_4pairIKNS_12basic_stringIcNS_11char_traitsIcEENS_9allocatorIcEEEENS_3setIP4EdgeNS_4lessISB_EENS5_ISB_EEEEEEEEPT_SI_, symObjAddr: 0x4870, symBinAddr: 0x1000248C4, symSize: 0x14 }
  - { offsetInCU: 0x13D39, offset: 0x7241A, size: 0x8, addend: 0x0, symName: __ZNSt3__1eqB7v160006ERKNS_21__tree_const_iteratorIP4EdgePNS_11__tree_nodeIS2_PvEElEES9_, symObjAddr: 0x4A20, symBinAddr: 0x100024A4C, symSize: 0x30 }
  - { offsetInCU: 0x13D77, offset: 0x72458, size: 0x8, addend: 0x0, symName: __ZNSt3__118__debug_db_erase_cB7v160006INS_12__hash_tableINS_17__hash_value_typeINS_12basic_stringIcNS_11char_traitsIcEENS_9allocatorIcEEEENS_3setIP4EdgeNS_4lessISB_EENS6_ISB_EEEEEENS_22__unordered_map_hasherIS8_SG_NS_4hashIS8_EENS_8equal_toIS8_EELb1EEENS_21__unordered_map_equalIS8_SG_SL_SJ_Lb1EEENS6_ISG_EEEEEEvPT_, symObjAddr: 0x4CD4, symBinAddr: 0x100024BEC, symSize: 0x10 }
  - { offsetInCU: 0x13DA8, offset: 0x72489, size: 0x8, addend: 0x0, symName: __ZNSt3__110destroy_atB7v160006INS_4pairIKNS_12basic_stringIcNS_11char_traitsIcEENS_9allocatorIcEEEENS_3setIP4EdgeNS_4lessISB_EENS5_ISB_EEEEEELi0EEEvPT_, symObjAddr: 0x4DF0, symBinAddr: 0x100024D08, symSize: 0x24 }
  - { offsetInCU: 0x13DE1, offset: 0x724C2, size: 0x8, addend: 0x0, symName: __ZNSt3__112__destroy_atB7v160006INS_4pairIKNS_12basic_stringIcNS_11char_traitsIcEENS_9allocatorIcEEEENS_3setIP4EdgeNS_4lessISB_EENS5_ISB_EEEEEELi0EEEvPT_, symObjAddr: 0x4E14, symBinAddr: 0x100024D2C, symSize: 0x24 }
  - { offsetInCU: 0x13E1A, offset: 0x724FB, size: 0x8, addend: 0x0, symName: __ZNSt3__1neB7v160006ERKNS_21__hash_const_iteratorIPNS_11__hash_nodeINS_17__hash_value_typeINS_12basic_stringIcNS_11char_traitsIcEENS_9allocatorIcEEEENS_3setIP4EdgeNS_4lessISB_EENS6_ISB_EEEEEEPvEEEESM_, symObjAddr: 0x515C, symBinAddr: 0x100025074, symSize: 0x34 }
  - { offsetInCU: 0x13E57, offset: 0x72538, size: 0x8, addend: 0x0, symName: __ZNSt3__1eqB7v160006ERKNS_21__hash_const_iteratorIPNS_11__hash_nodeINS_17__hash_value_typeINS_12basic_stringIcNS_11char_traitsIcEENS_9allocatorIcEEEENS_3setIP4EdgeNS_4lessISB_EENS6_ISB_EEEEEEPvEEEESM_, symObjAddr: 0x537C, symBinAddr: 0x100025294, symSize: 0x30 }
  - { offsetInCU: 0x13E95, offset: 0x72576, size: 0x8, addend: 0x0, symName: __ZNSt3__17launderB7v160006IKNS_4pairIKNS_12basic_stringIcNS_11char_traitsIcEENS_9allocatorIcEEEENS_3setIP4EdgeNS_4lessISB_EENS5_ISB_EEEEEEEEPT_SJ_, symObjAddr: 0x6570, symBinAddr: 0x1000255B0, symSize: 0x24 }
  - { offsetInCU: 0x13ECC, offset: 0x725AD, size: 0x8, addend: 0x0, symName: __ZNSt3__19__launderB7v160006IKNS_4pairIKNS_12basic_stringIcNS_11char_traitsIcEENS_9allocatorIcEEEENS_3setIP4EdgeNS_4lessISB_EENS5_ISB_EEEEEEEEPT_SJ_, symObjAddr: 0x6594, symBinAddr: 0x1000255D4, symSize: 0x14 }
  - { offsetInCU: 0x13F04, offset: 0x725E5, size: 0x8, addend: 0x0, symName: __ZNSt3__110destroy_atB7v160006IP4EdgeLi0EEEvPT_, symObjAddr: 0x6AB4, symBinAddr: 0x100025A84, symSize: 0x24 }
  - { offsetInCU: 0x13F3D, offset: 0x7261E, size: 0x8, addend: 0x0, symName: __ZNSt3__112__destroy_atB7v160006IP4EdgeLi0EEEvPT_, symObjAddr: 0x6AD8, symBinAddr: 0x100025AA8, symSize: 0x10 }
  - { offsetInCU: 0x13FBA, offset: 0x7269B, size: 0x8, addend: 0x0, symName: __ZNSt3__112construct_atB7v160006INS_4pairIKNS_12basic_stringIcNS_11char_traitsIcEENS_9allocatorIcEEEENS_3setIP4EdgeNS_4lessISB_EENS5_ISB_EEEEEEJSG_EPSG_EEPT_SJ_DpOT0_, symObjAddr: 0x78B0, symBinAddr: 0x1000266D8, symSize: 0x3C }
  - { offsetInCU: 0x1402F, offset: 0x72710, size: 0x8, addend: 0x0, symName: __ZNSt3__125__debug_db_invalidate_allB7v160006INS_12__hash_tableINS_17__hash_value_typeINS_12basic_stringIcNS_11char_traitsIcEENS_9allocatorIcEEEENS_3setIP4EdgeNS_4lessISB_EENS6_ISB_EEEEEENS_22__unordered_map_hasherIS8_SG_NS_4hashIS8_EENS_8equal_toIS8_EELb1EEENS_21__unordered_map_equalIS8_SG_SL_SJ_Lb1EEENS6_ISG_EEEEEEvPT_, symObjAddr: 0x8088, symBinAddr: 0x100026E30, symSize: 0x10 }
  - { offsetInCU: 0x14060, offset: 0x72741, size: 0x8, addend: 0x0, symName: __ZNSt3__14nextB7v160006INS_21__tree_const_iteratorIP4EdgePNS_11__tree_nodeIS3_PvEElEEEENS_9enable_ifIXsr25__is_cpp17_input_iteratorIT_EE5valueESA_E4typeESA_NS_15iterator_traitsISA_E15difference_typeE, symObjAddr: 0x91B0, symBinAddr: 0x100027EB4, symSize: 0x50 }
  - { offsetInCU: 0x140A3, offset: 0x72784, size: 0x8, addend: 0x0, symName: __ZNSt3__19__advanceB7v160006INS_21__tree_const_iteratorIP4EdgePNS_11__tree_nodeIS3_PvEElEEEEvRT_NS_15iterator_traitsIS9_E15difference_typeENS_26bidirectional_iterator_tagE, symObjAddr: 0x92C0, symBinAddr: 0x100027FB0, symSize: 0xA4 }
  - { offsetInCU: 0x14132, offset: 0x72813, size: 0x8, addend: 0x0, symName: __ZNSt3__112construct_atB7v160006IP4EdgeJRKS2_EPS2_EEPT_S7_DpOT0_, symObjAddr: 0x9660, symBinAddr: 0x100028350, symSize: 0x2C }
  - { offsetInCU: 0x141DA, offset: 0x728BB, size: 0x8, addend: 0x0, symName: __ZNSt3__112construct_atB7v160006IP4EdgeJS2_EPS2_EEPT_S5_DpOT0_, symObjAddr: 0xA218, symBinAddr: 0x100028AC8, symSize: 0x2C }
  - { offsetInCU: 0x1424F, offset: 0x72930, size: 0x8, addend: 0x0, symName: __ZNSt3__116__tree_prev_iterB7v160006IPNS_16__tree_node_baseIPvEEPNS_15__tree_end_nodeIS4_EEEET_T0_, symObjAddr: 0xA2C8, symBinAddr: 0x100028B78, symSize: 0x88 }
  - { offsetInCU: 0x1429C, offset: 0x7297D, size: 0x8, addend: 0x0, symName: __ZNSt3__110__tree_maxB7v160006IPNS_16__tree_node_baseIPvEEEET_S5_, symObjAddr: 0xA350, symBinAddr: 0x100028C00, symSize: 0x40 }
  - { offsetInCU: 0x142D1, offset: 0x729B2, size: 0x8, addend: 0x0, symName: __ZNSt3__119__debug_db_insert_cB7v160006INS_13unordered_mapINS_12basic_stringIcNS_11char_traitsIcEENS_9allocatorIcEEEEiNS_4hashIS7_EENS_8equal_toIS7_EENS5_INS_4pairIKS7_iEEEEEEEEvPT_, symObjAddr: 0xAD20, symBinAddr: 0x100028CA8, symSize: 0x10 }
  - { offsetInCU: 0x14302, offset: 0x729E3, size: 0x8, addend: 0x0, symName: __ZNSt3__118__debug_db_erase_cB7v160006INS_12__hash_tableINS_17__hash_value_typeINS_12basic_stringIcNS_11char_traitsIcEENS_9allocatorIcEEEEiEENS_22__unordered_map_hasherIS8_S9_NS_4hashIS8_EENS_8equal_toIS8_EELb1EEENS_21__unordered_map_equalIS8_S9_SE_SC_Lb1EEENS6_IS9_EEEEEEvPT_, symObjAddr: 0xB458, symBinAddr: 0x1000293E0, symSize: 0x10 }
  - { offsetInCU: 0x14366, offset: 0x72A47, size: 0x8, addend: 0x0, symName: __ZNSt3__110destroy_atB7v160006INS_4pairIKNS_12basic_stringIcNS_11char_traitsIcEENS_9allocatorIcEEEEiEELi0EEEvPT_, symObjAddr: 0xB5AC, symBinAddr: 0x100029534, symSize: 0x24 }
  - { offsetInCU: 0x1439F, offset: 0x72A80, size: 0x8, addend: 0x0, symName: __ZNSt3__112__destroy_atB7v160006INS_4pairIKNS_12basic_stringIcNS_11char_traitsIcEENS_9allocatorIcEEEEiEELi0EEEvPT_, symObjAddr: 0xB5D0, symBinAddr: 0x100029558, symSize: 0x24 }
  - { offsetInCU: 0x143D8, offset: 0x72AB9, size: 0x8, addend: 0x0, symName: __ZNSt3__17launderB7v160006INS_4pairIKNS_12basic_stringIcNS_11char_traitsIcEENS_9allocatorIcEEEEiEEEEPT_SB_, symObjAddr: 0xB618, symBinAddr: 0x1000295A0, symSize: 0x24 }
  - { offsetInCU: 0x1440F, offset: 0x72AF0, size: 0x8, addend: 0x0, symName: __ZNSt3__19__launderB7v160006INS_4pairIKNS_12basic_stringIcNS_11char_traitsIcEENS_9allocatorIcEEEEiEEEEPT_SB_, symObjAddr: 0xB63C, symBinAddr: 0x1000295C4, symSize: 0x14 }
  - { offsetInCU: 0x14447, offset: 0x72B28, size: 0x8, addend: 0x0, symName: __ZNSt3__119__debug_db_insert_cB7v160006INS_13unordered_mapINS_12basic_stringIcNS_11char_traitsIcEENS_9allocatorIcEEEES7_NS_4hashIS7_EENS_8equal_toIS7_EENS5_INS_4pairIKS7_S7_EEEEEEEEvPT_, symObjAddr: 0xB990, symBinAddr: 0x100029918, symSize: 0x10 }
  - { offsetInCU: 0x14478, offset: 0x72B59, size: 0x8, addend: 0x0, symName: __ZNSt3__118__debug_db_erase_cB7v160006INS_12__hash_tableINS_17__hash_value_typeINS_12basic_stringIcNS_11char_traitsIcEENS_9allocatorIcEEEES8_EENS_22__unordered_map_hasherIS8_S9_NS_4hashIS8_EENS_8equal_toIS8_EELb1EEENS_21__unordered_map_equalIS8_S9_SE_SC_Lb1EEENS6_IS9_EEEEEEvPT_, symObjAddr: 0xC0C8, symBinAddr: 0x10002A050, symSize: 0x10 }
  - { offsetInCU: 0x144DC, offset: 0x72BBD, size: 0x8, addend: 0x0, symName: __ZNSt3__110destroy_atB7v160006INS_4pairIKNS_12basic_stringIcNS_11char_traitsIcEENS_9allocatorIcEEEES7_EELi0EEEvPT_, symObjAddr: 0xC21C, symBinAddr: 0x10002A1A4, symSize: 0x24 }
  - { offsetInCU: 0x14515, offset: 0x72BF6, size: 0x8, addend: 0x0, symName: __ZNSt3__112__destroy_atB7v160006INS_4pairIKNS_12basic_stringIcNS_11char_traitsIcEENS_9allocatorIcEEEES7_EELi0EEEvPT_, symObjAddr: 0xC240, symBinAddr: 0x10002A1C8, symSize: 0x24 }
  - { offsetInCU: 0x1454E, offset: 0x72C2F, size: 0x8, addend: 0x0, symName: __ZNSt3__17launderB7v160006INS_4pairIKNS_12basic_stringIcNS_11char_traitsIcEENS_9allocatorIcEEEES7_EEEEPT_SB_, symObjAddr: 0xC288, symBinAddr: 0x10002A210, symSize: 0x24 }
  - { offsetInCU: 0x14585, offset: 0x72C66, size: 0x8, addend: 0x0, symName: __ZNSt3__19__launderB7v160006INS_4pairIKNS_12basic_stringIcNS_11char_traitsIcEENS_9allocatorIcEEEES7_EEEEPT_SB_, symObjAddr: 0xC2AC, symBinAddr: 0x10002A234, symSize: 0x14 }
  - { offsetInCU: 0x145BD, offset: 0x72C9E, size: 0x8, addend: 0x0, symName: __ZNSt3__17launderB7v160006IKNS_4pairIKNS_12basic_stringIcNS_11char_traitsIcEENS_9allocatorIcEEEEiEEEEPT_SC_, symObjAddr: 0xD098, symBinAddr: 0x10002B020, symSize: 0x24 }
  - { offsetInCU: 0x145F4, offset: 0x72CD5, size: 0x8, addend: 0x0, symName: __ZNSt3__19__launderB7v160006IKNS_4pairIKNS_12basic_stringIcNS_11char_traitsIcEENS_9allocatorIcEEEEiEEEEPT_SC_, symObjAddr: 0xD0BC, symBinAddr: 0x10002B044, symSize: 0x14 }
  - { offsetInCU: 0x14671, offset: 0x72D52, size: 0x8, addend: 0x0, symName: __ZNSt3__112construct_atB7v160006INS_4pairIKNS_12basic_stringIcNS_11char_traitsIcEENS_9allocatorIcEEEEiEEJS9_EPS9_EEPT_SC_DpOT0_, symObjAddr: 0xD3A4, symBinAddr: 0x10002B32C, symSize: 0x3C }
  - { offsetInCU: 0x146E6, offset: 0x72DC7, size: 0x8, addend: 0x0, symName: __ZNSt3__125__debug_db_invalidate_allB7v160006INS_12__hash_tableINS_17__hash_value_typeINS_12basic_stringIcNS_11char_traitsIcEENS_9allocatorIcEEEEiEENS_22__unordered_map_hasherIS8_S9_NS_4hashIS8_EENS_8equal_toIS8_EELb1EEENS_21__unordered_map_equalIS8_S9_SE_SC_Lb1EEENS6_IS9_EEEEEEvPT_, symObjAddr: 0xD910, symBinAddr: 0x10002B898, symSize: 0x10 }
  - { offsetInCU: 0x14717, offset: 0x72DF8, size: 0x8, addend: 0x0, symName: __ZNSt3__119__debug_db_insert_cB7v160006INS_6vectorIP9NodeEntryNS_9allocatorIS3_EEEEEEvPT_, symObjAddr: 0xDE04, symBinAddr: 0x10002BD8C, symSize: 0x10 }
  - { offsetInCU: 0x14748, offset: 0x72E29, size: 0x8, addend: 0x0, symName: __ZNSt3__19push_heapB7v160006INS_11__wrap_iterIPP9NodeEntryEENS_4lessIS3_EEEEvT_S8_T0_, symObjAddr: 0xE4B8, symBinAddr: 0x10002BED0, symSize: 0x40 }
  - { offsetInCU: 0x147C6, offset: 0x72EA7, size: 0x8, addend: 0x0, symName: __ZNSt3__112construct_atB7v160006IP9NodeEntryJS2_EPS2_EEPT_S5_DpOT0_, symObjAddr: 0xE7FC, symBinAddr: 0x10002C214, symSize: 0x2C }
  - { offsetInCU: 0x1483B, offset: 0x72F1C, size: 0x8, addend: 0x0, symName: __ZNSt3__119__allocate_at_leastB7v160006INS_9allocatorIP9NodeEntryEEEENS_19__allocation_resultINS_16allocator_traitsIT_E7pointerEEERS7_m, symObjAddr: 0xEE18, symBinAddr: 0x10002C6B0, symSize: 0x40 }
  - { offsetInCU: 0x1487E, offset: 0x72F5F, size: 0x8, addend: 0x0, symName: __ZNSt3__142__uninitialized_allocator_move_if_noexceptB7v160006INS_9allocatorIP9NodeEntryEENS_16reverse_iteratorIPS3_EES7_S3_vEET1_RT_T0_SB_S8_, symObjAddr: 0xEFCC, symBinAddr: 0x10002C864, symSize: 0x78 }
  - { offsetInCU: 0x148FD, offset: 0x72FDE, size: 0x8, addend: 0x0, symName: __ZNSt3__14swapB7v160006IPP9NodeEntryEENS_9enable_ifIXaasr21is_move_constructibleIT_EE5valuesr18is_move_assignableIS5_EE5valueEvE4typeERS5_S8_, symObjAddr: 0xF090, symBinAddr: 0x10002C928, symSize: 0x3C }
  - { offsetInCU: 0x1494F, offset: 0x73030, size: 0x8, addend: 0x0, symName: __ZNSt3__125__debug_db_invalidate_allB7v160006INS_6vectorIP9NodeEntryNS_9allocatorIS3_EEEEEEvPT_, symObjAddr: 0xF178, symBinAddr: 0x10002CA10, symSize: 0x10 }
  - { offsetInCU: 0x14980, offset: 0x73061, size: 0x8, addend: 0x0, symName: __ZNSt3__14moveB7v160006INS_16reverse_iteratorIPP9NodeEntryEES5_EET0_T_S7_S6_, symObjAddr: 0xF188, symBinAddr: 0x10002CA20, symSize: 0x78 }
  - { offsetInCU: 0x149DA, offset: 0x730BB, size: 0x8, addend: 0x0, symName: __ZNSt3__16__moveB7v160006INS_17_ClassicAlgPolicyENS_16reverse_iteratorIPP9NodeEntryEES6_S6_EENS_4pairIT0_T2_EES8_T1_S9_, symObjAddr: 0xF200, symBinAddr: 0x10002CA98, symSize: 0x64 }
  - { offsetInCU: 0x14A46, offset: 0x73127, size: 0x8, addend: 0x0, symName: __ZNSt3__123__dispatch_copy_or_moveB7v160006INS_17_ClassicAlgPolicyENS_11__move_loopIS1_EENS_14__move_trivialENS_16reverse_iteratorIPP9NodeEntryEES9_S9_EENS_4pairIT2_T4_EESB_T3_SC_, symObjAddr: 0xF264, symBinAddr: 0x10002CAFC, symSize: 0x64 }
  - { offsetInCU: 0x14AC4, offset: 0x731A5, size: 0x8, addend: 0x0, symName: __ZNSt3__121__unwrap_and_dispatchB7v160006INS_10__overloadINS_11__move_loopINS_17_ClassicAlgPolicyEEENS_14__move_trivialEEENS_16reverse_iteratorIPP9NodeEntryEESB_SB_Li0EEENS_4pairIT0_T2_EESD_T1_SE_, symObjAddr: 0xF2C8, symBinAddr: 0x10002CB60, symSize: 0x12C }
  - { offsetInCU: 0x14B57, offset: 0x73238, size: 0x8, addend: 0x0, symName: __ZNSt3__114__unwrap_rangeB7v160006INS_16reverse_iteratorIPP9NodeEntryEES5_EEDaT_T0_, symObjAddr: 0xF3F4, symBinAddr: 0x10002CC8C, symSize: 0x4C }
  - { offsetInCU: 0x14CCA, offset: 0x733AB, size: 0x8, addend: 0x0, symName: __ZNSt3__113__unwrap_iterB7v160006INS_16reverse_iteratorIPP9NodeEntryEENS_18__unwrap_iter_implIS5_Lb0EEELi0EEEDTclsrT0_8__unwrapclsr3stdE7declvalIT_EEEES9_, symObjAddr: 0xF4E0, symBinAddr: 0x10002CD78, symSize: 0x44 }
  - { offsetInCU: 0x14D0F, offset: 0x733F0, size: 0x8, addend: 0x0, symName: __ZNSt3__19make_pairB7v160006INS_16reverse_iteratorIPP9NodeEntryEES5_EENS_4pairINS_18__unwrap_ref_decayIT_E4typeENS7_IT0_E4typeEEEOS8_OSB_, symObjAddr: 0xF524, symBinAddr: 0x10002CDBC, symSize: 0x38 }
  - { offsetInCU: 0x14D5E, offset: 0x7343F, size: 0x8, addend: 0x0, symName: __ZNSt3__114__rewrap_rangeB7v160006INS_16reverse_iteratorIPP9NodeEntryEES5_S5_EET0_S6_T1_, symObjAddr: 0xF55C, symBinAddr: 0x10002CDF4, symSize: 0x5C }
  - { offsetInCU: 0x14DB3, offset: 0x73494, size: 0x8, addend: 0x0, symName: __ZNSt3__113__rewrap_iterB7v160006INS_16reverse_iteratorIPP9NodeEntryEES5_NS_18__unwrap_iter_implIS5_Lb0EEEEET_S8_T0_, symObjAddr: 0xF5B8, symBinAddr: 0x10002CE50, symSize: 0x74 }
  - { offsetInCU: 0x14E58, offset: 0x73539, size: 0x8, addend: 0x0, symName: __ZNSt3__1neB7v160006IPP9NodeEntryS3_EEbRKNS_16reverse_iteratorIT_EERKNS4_IT0_EE, symObjAddr: 0xF720, symBinAddr: 0x10002CFB8, symSize: 0x48 }
  - { offsetInCU: 0x14F8B, offset: 0x7366C, size: 0x8, addend: 0x0, symName: __ZNSt3__111__push_heapB7v160006INS_17_ClassicAlgPolicyENS_11__wrap_iterIPP9NodeEntryEENS_4lessIS4_EEEEvT0_S9_RT1_, symObjAddr: 0xFA9C, symBinAddr: 0x10002D334, symSize: 0x5C }
  - { offsetInCU: 0x14FFA, offset: 0x736DB, size: 0x8, addend: 0x0, symName: __ZNSt3__1miB7v160006IPP9NodeEntryS3_EEDTmicldtfp_4baseEcldtfp0_4baseEERKNS_11__wrap_iterIT_EERKNS5_IT0_EE, symObjAddr: 0xFAF8, symBinAddr: 0x10002D390, symSize: 0x48 }
  - { offsetInCU: 0x15046, offset: 0x73727, size: 0x8, addend: 0x0, symName: __ZNSt3__19__sift_upB7v160006INS_17_ClassicAlgPolicyERNS_4lessIP9NodeEntryEENS_11__wrap_iterIPS4_EEEEvT1_SA_OT0_NS_15iterator_traitsISA_E15difference_typeE, symObjAddr: 0xFB40, symBinAddr: 0x10002D3D8, symSize: 0x168 }
  - { offsetInCU: 0x150FB, offset: 0x737DC, size: 0x8, addend: 0x0, symName: __ZNSt3__18pop_heapB7v160006INS_11__wrap_iterIPP9NodeEntryEENS_4lessIS3_EEEEvT_S8_T0_, symObjAddr: 0xFE90, symBinAddr: 0x10002D728, symSize: 0x58 }
  - { offsetInCU: 0x15161, offset: 0x73842, size: 0x8, addend: 0x0, symName: __ZNSt3__110__pop_heapB7v160006INS_17_ClassicAlgPolicyENS_4lessIP9NodeEntryEENS_11__wrap_iterIPS4_EEEEvT1_S9_RT0_NS_15iterator_traitsIS9_E15difference_typeE, symObjAddr: 0xFF14, symBinAddr: 0x10002D7AC, symSize: 0x144 }
  - { offsetInCU: 0x15216, offset: 0x738F7, size: 0x8, addend: 0x0, symName: __ZNSt3__1eqB7v160006IPP9NodeEntryEEbRKNS_11__wrap_iterIT_EES8_, symObjAddr: 0x101A4, symBinAddr: 0x10002DA3C, symSize: 0x48 }
  - { offsetInCU: 0x152BF, offset: 0x739A0, size: 0x8, addend: 0x0, symName: __ZNSt3__17launderB7v160006IKNS_4pairIKNS_12basic_stringIcNS_11char_traitsIcEENS_9allocatorIcEEEES7_EEEEPT_SC_, symObjAddr: 0x124AC, symBinAddr: 0x10002E90C, symSize: 0x24 }
  - { offsetInCU: 0x152F6, offset: 0x739D7, size: 0x8, addend: 0x0, symName: __ZNSt3__19__launderB7v160006IKNS_4pairIKNS_12basic_stringIcNS_11char_traitsIcEENS_9allocatorIcEEEES7_EEEEPT_SC_, symObjAddr: 0x124D0, symBinAddr: 0x10002E930, symSize: 0x14 }
  - { offsetInCU: 0x15373, offset: 0x73A54, size: 0x8, addend: 0x0, symName: __ZNSt3__112construct_atB7v160006INS_4pairIKNS_12basic_stringIcNS_11char_traitsIcEENS_9allocatorIcEEEES7_EEJS9_EPS9_EEPT_SC_DpOT0_, symObjAddr: 0x127B4, symBinAddr: 0x10002EC14, symSize: 0x3C }
  - { offsetInCU: 0x153E8, offset: 0x73AC9, size: 0x8, addend: 0x0, symName: __ZNSt3__125__debug_db_invalidate_allB7v160006INS_12__hash_tableINS_17__hash_value_typeINS_12basic_stringIcNS_11char_traitsIcEENS_9allocatorIcEEEES8_EENS_22__unordered_map_hasherIS8_S9_NS_4hashIS8_EENS_8equal_toIS8_EELb1EEENS_21__unordered_map_equalIS8_S9_SE_SC_Lb1EEENS6_IS9_EEEEEEvPT_, symObjAddr: 0x12DF0, symBinAddr: 0x10002F188, symSize: 0x10 }
  - { offsetInCU: 0x1547F, offset: 0x73B60, size: 0x8, addend: 0x0, symName: __ZNSt3__1neB7v160006ERKNS_21__hash_const_iteratorIPNS_11__hash_nodeINS_17__hash_value_typeINS_12basic_stringIcNS_11char_traitsIcEENS_9allocatorIcEEEES8_EEPvEEEESF_, symObjAddr: 0x15F40, symBinAddr: 0x10002F830, symSize: 0x34 }
  - { offsetInCU: 0x154BC, offset: 0x73B9D, size: 0x8, addend: 0x0, symName: __ZNSt3__1eqB7v160006ERKNS_21__hash_const_iteratorIPNS_11__hash_nodeINS_17__hash_value_typeINS_12basic_stringIcNS_11char_traitsIcEENS_9allocatorIcEEEES8_EEPvEEEESF_, symObjAddr: 0x16160, symBinAddr: 0x10002FA50, symSize: 0x30 }
  - { offsetInCU: 0x1694B, offset: 0x7502C, size: 0x8, addend: 0x0, symName: __ZNSt3__16vectorIP9NodeEntryNS_9allocatorIS2_EEE26__swap_out_circular_bufferERNS_14__split_bufferIS2_RS4_EE, symObjAddr: 0xE940, symBinAddr: 0x10002C358, symSize: 0x118 }
  - { offsetInCU: 0x18E5B, offset: 0x7753C, size: 0x8, addend: 0x0, symName: __ZN13WeightedGraphC2Ev, symObjAddr: 0x0, symBinAddr: 0x100021788, symSize: 0x40 }
  - { offsetInCU: 0x18E85, offset: 0x77566, size: 0x8, addend: 0x0, symName: __ZNSt3__113unordered_mapINS_12basic_stringIcNS_11char_traitsIcEENS_9allocatorIcEEEENS_3setIP4EdgeNS_4lessIS9_EENS4_IS9_EEEENS_4hashIS6_EENS_8equal_toIS6_EENS4_INS_4pairIKS6_SD_EEEEEC1B7v160006Ev, symObjAddr: 0x40, symBinAddr: 0x1000217C8, symSize: 0x2C }
  - { offsetInCU: 0x18EAD, offset: 0x7758E, size: 0x8, addend: 0x0, symName: __ZN13WeightedGraphC1Ev, symObjAddr: 0x6C, symBinAddr: 0x1000217F4, symSize: 0x2C }
  - { offsetInCU: 0x18ED7, offset: 0x775B8, size: 0x8, addend: 0x0, symName: __ZN13WeightedGraphD2Ev, symObjAddr: 0x98, symBinAddr: 0x100021820, symSize: 0x184 }
  - { offsetInCU: 0x18FA2, offset: 0x77683, size: 0x8, addend: 0x0, symName: __ZNSt3__113unordered_mapINS_12basic_stringIcNS_11char_traitsIcEENS_9allocatorIcEEEENS_3setIP4EdgeNS_4lessIS9_EENS4_IS9_EEEENS_4hashIS6_EENS_8equal_toIS6_EENS4_INS_4pairIKS6_SD_EEEEE5beginB7v160006Ev, symObjAddr: 0x21C, symBinAddr: 0x1000219A4, symSize: 0x38 }
  - { offsetInCU: 0x18FC6, offset: 0x776A7, size: 0x8, addend: 0x0, symName: __ZNSt3__113unordered_mapINS_12basic_stringIcNS_11char_traitsIcEENS_9allocatorIcEEEENS_3setIP4EdgeNS_4lessIS9_EENS4_IS9_EEEENS_4hashIS6_EENS_8equal_toIS6_EENS4_INS_4pairIKS6_SD_EEEEE3endB7v160006Ev, symObjAddr: 0x254, symBinAddr: 0x1000219DC, symSize: 0x38 }
  - { offsetInCU: 0x18FEA, offset: 0x776CB, size: 0x8, addend: 0x0, symName: __ZNKSt3__119__hash_map_iteratorINS_15__hash_iteratorIPNS_11__hash_nodeINS_17__hash_value_typeINS_12basic_stringIcNS_11char_traitsIcEENS_9allocatorIcEEEENS_3setIP4EdgeNS_4lessISC_EENS7_ISC_EEEEEEPvEEEEEdeB7v160006Ev, symObjAddr: 0x2C8, symBinAddr: 0x100021A44, symSize: 0x28 }
  - { offsetInCU: 0x1900E, offset: 0x776EF, size: 0x8, addend: 0x0, symName: __ZNSt3__13setIP4EdgeNS_4lessIS2_EENS_9allocatorIS2_EEE5beginB7v160006Ev, symObjAddr: 0x2F0, symBinAddr: 0x100021A6C, symSize: 0x38 }
  - { offsetInCU: 0x19032, offset: 0x77713, size: 0x8, addend: 0x0, symName: __ZNSt3__13setIP4EdgeNS_4lessIS2_EENS_9allocatorIS2_EEE3endB7v160006Ev, symObjAddr: 0x328, symBinAddr: 0x100021AA4, symSize: 0x38 }
  - { offsetInCU: 0x19056, offset: 0x77737, size: 0x8, addend: 0x0, symName: __ZNKSt3__121__tree_const_iteratorIP4EdgePNS_11__tree_nodeIS2_PvEElEdeB7v160006Ev, symObjAddr: 0x394, symBinAddr: 0x100021B10, symSize: 0x28 }
  - { offsetInCU: 0x1907A, offset: 0x7775B, size: 0x8, addend: 0x0, symName: __ZN4EdgeD1Ev, symObjAddr: 0x3BC, symBinAddr: 0x100021B38, symSize: 0x2C }
  - { offsetInCU: 0x190A4, offset: 0x77785, size: 0x8, addend: 0x0, symName: __ZNSt3__121__tree_const_iteratorIP4EdgePNS_11__tree_nodeIS2_PvEElEppB7v160006Ev, symObjAddr: 0x3E8, symBinAddr: 0x100021B64, symSize: 0x38 }
  - { offsetInCU: 0x190C8, offset: 0x777A9, size: 0x8, addend: 0x0, symName: __ZNSt3__119__hash_map_iteratorINS_15__hash_iteratorIPNS_11__hash_nodeINS_17__hash_value_typeINS_12basic_stringIcNS_11char_traitsIcEENS_9allocatorIcEEEENS_3setIP4EdgeNS_4lessISC_EENS7_ISC_EEEEEEPvEEEEEppB7v160006Ev, symObjAddr: 0x420, symBinAddr: 0x100021B9C, symSize: 0x2C }
  - { offsetInCU: 0x190EC, offset: 0x777CD, size: 0x8, addend: 0x0, symName: __ZNSt3__113unordered_mapINS_12basic_stringIcNS_11char_traitsIcEENS_9allocatorIcEEEENS_3setIP4EdgeNS_4lessIS9_EENS4_IS9_EEEENS_4hashIS6_EENS_8equal_toIS6_EENS4_INS_4pairIKS6_SD_EEEEED1B7v160006Ev, symObjAddr: 0x44C, symBinAddr: 0x100021BC8, symSize: 0x2C }
  - { offsetInCU: 0x19114, offset: 0x777F5, size: 0x8, addend: 0x0, symName: __ZN13WeightedGraphD1Ev, symObjAddr: 0x478, symBinAddr: 0x100021BF4, symSize: 0x2C }
  - { offsetInCU: 0x1913E, offset: 0x7781F, size: 0x8, addend: 0x0, symName: __ZNK13WeightedGraph7hasNodeENSt3__112basic_stringIcNS0_11char_traitsIcEENS0_9allocatorIcEEEE, symObjAddr: 0x4A4, symBinAddr: 0x100021C20, symSize: 0x3C }
  - { offsetInCU: 0x19173, offset: 0x77854, size: 0x8, addend: 0x0, symName: __ZNKSt3__113unordered_mapINS_12basic_stringIcNS_11char_traitsIcEENS_9allocatorIcEEEENS_3setIP4EdgeNS_4lessIS9_EENS4_IS9_EEEENS_4hashIS6_EENS_8equal_toIS6_EENS4_INS_4pairIKS6_SD_EEEEE5countB7v160006ERSJ_, symObjAddr: 0x4E0, symBinAddr: 0x100021C5C, symSize: 0x2C }
  - { offsetInCU: 0x191A6, offset: 0x77887, size: 0x8, addend: 0x0, symName: __ZN13WeightedGraph7addNodeENSt3__112basic_stringIcNS0_11char_traitsIcEENS0_9allocatorIcEEEE, symObjAddr: 0x50C, symBinAddr: 0x100021C88, symSize: 0xCC }
  - { offsetInCU: 0x191EA, offset: 0x778CB, size: 0x8, addend: 0x0, symName: __ZNSt3__13setIP4EdgeNS_4lessIS2_EENS_9allocatorIS2_EEEC1B7v160006Ev, symObjAddr: 0x5D8, symBinAddr: 0x100021D54, symSize: 0x2C }
  - { offsetInCU: 0x19212, offset: 0x778F3, size: 0x8, addend: 0x0, symName: __ZNSt3__113unordered_mapINS_12basic_stringIcNS_11char_traitsIcEENS_9allocatorIcEEEENS_3setIP4EdgeNS_4lessIS9_EENS4_IS9_EEEENS_4hashIS6_EENS_8equal_toIS6_EENS4_INS_4pairIKS6_SD_EEEEE6insertB7v160006EOSK_, symObjAddr: 0x604, symBinAddr: 0x100021D80, symSize: 0x4C }
  - { offsetInCU: 0x19245, offset: 0x77926, size: 0x8, addend: 0x0, symName: __ZNSt3__14pairIKNS_12basic_stringIcNS_11char_traitsIcEENS_9allocatorIcEEEENS_3setIP4EdgeNS_4lessISA_EENS4_ISA_EEEEEC1B7v160006IRS7_RSE_LPv0EEEOT_OT0_, symObjAddr: 0x650, symBinAddr: 0x100021DCC, symSize: 0x3C }
  - { offsetInCU: 0x192A2, offset: 0x77983, size: 0x8, addend: 0x0, symName: __ZNSt3__14pairIKNS_12basic_stringIcNS_11char_traitsIcEENS_9allocatorIcEEEENS_3setIP4EdgeNS_4lessISA_EENS4_ISA_EEEEED1Ev, symObjAddr: 0x68C, symBinAddr: 0x100021E08, symSize: 0x2C }
  - { offsetInCU: 0x192CC, offset: 0x779AD, size: 0x8, addend: 0x0, symName: __ZNSt3__13setIP4EdgeNS_4lessIS2_EENS_9allocatorIS2_EEED1B7v160006Ev, symObjAddr: 0x6B8, symBinAddr: 0x100021E34, symSize: 0x2C }
  - { offsetInCU: 0x192F4, offset: 0x779D5, size: 0x8, addend: 0x0, symName: __ZN13WeightedGraph7addEdgeEiNSt3__112basic_stringIcNS0_11char_traitsIcEENS0_9allocatorIcEEEES6_, symObjAddr: 0x6E4, symBinAddr: 0x100021E60, symSize: 0x3D4 }
  - { offsetInCU: 0x19366, offset: 0x77A47, size: 0x8, addend: 0x0, symName: __ZNSt3__113unordered_mapINS_12basic_stringIcNS_11char_traitsIcEENS_9allocatorIcEEEENS_3setIP4EdgeNS_4lessIS9_EENS4_IS9_EEEENS_4hashIS6_EENS_8equal_toIS6_EENS4_INS_4pairIKS6_SD_EEEEE4findB7v160006ERSJ_, symObjAddr: 0xAB8, symBinAddr: 0x100022234, symSize: 0x40 }
  - { offsetInCU: 0x19399, offset: 0x77A7A, size: 0x8, addend: 0x0, symName: __ZNKSt3__119__hash_map_iteratorINS_15__hash_iteratorIPNS_11__hash_nodeINS_17__hash_value_typeINS_12basic_stringIcNS_11char_traitsIcEENS_9allocatorIcEEEENS_3setIP4EdgeNS_4lessISC_EENS7_ISC_EEEEEEPvEEEEEptB7v160006Ev, symObjAddr: 0xAF8, symBinAddr: 0x100022274, symSize: 0x2C }
  - { offsetInCU: 0x193BD, offset: 0x77A9E, size: 0x8, addend: 0x0, symName: __ZNSt3__13setIP4EdgeNS_4lessIS2_EENS_9allocatorIS2_EEE6insertB7v160006EOS2_, symObjAddr: 0xB24, symBinAddr: 0x1000222A0, symSize: 0x4C }
  - { offsetInCU: 0x193F0, offset: 0x77AD1, size: 0x8, addend: 0x0, symName: __ZN4EdgeC1EiNSt3__112basic_stringIcNS0_11char_traitsIcEENS0_9allocatorIcEEEES6_, symObjAddr: 0xB70, symBinAddr: 0x1000222EC, symSize: 0x44 }
  - { offsetInCU: 0x19443, offset: 0x77B24, size: 0x8, addend: 0x0, symName: __Z6isLastPK4EdgeNSt3__13setIPS_NS2_4lessIS4_EENS2_9allocatorIS4_EEEE, symObjAddr: 0xBB4, symBinAddr: 0x100022330, symSize: 0x60 }
  - { offsetInCU: 0x1947F, offset: 0x77B60, size: 0x8, addend: 0x0, symName: __ZNKSt3__13setIP4EdgeNS_4lessIS2_EENS_9allocatorIS2_EEE3endB7v160006Ev, symObjAddr: 0xC14, symBinAddr: 0x100022390, symSize: 0x2C }
  - { offsetInCU: 0x194A3, offset: 0x77B84, size: 0x8, addend: 0x0, symName: __ZNSt3__121__tree_const_iteratorIP4EdgePNS_11__tree_nodeIS2_PvEElEmmB7v160006Ev, symObjAddr: 0xC40, symBinAddr: 0x1000223BC, symSize: 0x38 }
  - { offsetInCU: 0x194C7, offset: 0x77BA8, size: 0x8, addend: 0x0, symName: __ZNK13WeightedGraph8traverseEv, symObjAddr: 0xC78, symBinAddr: 0x1000223F4, symSize: 0x1E0 }
  - { offsetInCU: 0x19572, offset: 0x77C53, size: 0x8, addend: 0x0, symName: __ZN4Edge8toStringEv, symObjAddr: 0xEEC, symBinAddr: 0x1000225D4, symSize: 0x10C }
  - { offsetInCU: 0x195A6, offset: 0x77C87, size: 0x8, addend: 0x0, symName: __ZNSt3__13setIP4EdgeNS_4lessIS2_EENS_9allocatorIS2_EEEC1B7v160006ERKS7_, symObjAddr: 0xFF8, symBinAddr: 0x1000226E0, symSize: 0x34 }
  - { offsetInCU: 0x195DD, offset: 0x77CBE, size: 0x8, addend: 0x0, symName: __ZNK13WeightedGraph12shortestPathENSt3__112basic_stringIcNS0_11char_traitsIcEENS0_9allocatorIcEEEES6_, symObjAddr: 0x10E4, symBinAddr: 0x100022714, symSize: 0x7DC }
  - { offsetInCU: 0x198D5, offset: 0x77FB6, size: 0x8, addend: 0x0, symName: __ZNSt3__113unordered_mapINS_12basic_stringIcNS_11char_traitsIcEENS_9allocatorIcEEEEiNS_4hashIS6_EENS_8equal_toIS6_EENS4_INS_4pairIKS6_iEEEEEC1B7v160006Ev, symObjAddr: 0x18C0, symBinAddr: 0x100022EF0, symSize: 0x2C }
  - { offsetInCU: 0x19A6A, offset: 0x7814B, size: 0x8, addend: 0x0, symName: __ZNSt3__113unordered_mapINS_12basic_stringIcNS_11char_traitsIcEENS_9allocatorIcEEEES6_NS_4hashIS6_EENS_8equal_toIS6_EENS4_INS_4pairIKS6_S6_EEEEEC1B7v160006Ev, symObjAddr: 0x18EC, symBinAddr: 0x100022F1C, symSize: 0x2C }
  - { offsetInCU: 0x19A92, offset: 0x78173, size: 0x8, addend: 0x0, symName: __ZNSt3__113unordered_mapINS_12basic_stringIcNS_11char_traitsIcEENS_9allocatorIcEEEEiNS_4hashIS6_EENS_8equal_toIS6_EENS4_INS_4pairIKS6_iEEEEE6insertB7v160006EOSD_, symObjAddr: 0x1A60, symBinAddr: 0x100022F48, symSize: 0x4C }
  - { offsetInCU: 0x19ACA, offset: 0x781AB, size: 0x8, addend: 0x0, symName: __ZNSt3__14pairIKNS_12basic_stringIcNS_11char_traitsIcEENS_9allocatorIcEEEEiEC1B7v160006IRS7_RiLPv0EEEOT_OT0_, symObjAddr: 0x1AAC, symBinAddr: 0x100022F94, symSize: 0x3C }
  - { offsetInCU: 0x19B27, offset: 0x78208, size: 0x8, addend: 0x0, symName: __ZNSt3__14pairIKNS_12basic_stringIcNS_11char_traitsIcEENS_9allocatorIcEEEEiED1Ev, symObjAddr: 0x1AE8, symBinAddr: 0x100022FD0, symSize: 0x2C }
  - { offsetInCU: 0x19BA6, offset: 0x78287, size: 0x8, addend: 0x0, symName: __ZNSt3__114priority_queueIP9NodeEntryNS_6vectorIS2_NS_9allocatorIS2_EEEENS_4lessIS2_EEEC1B7v160006Ev, symObjAddr: 0x1B14, symBinAddr: 0x100022FFC, symSize: 0x2C }
  - { offsetInCU: 0x19BCE, offset: 0x782AF, size: 0x8, addend: 0x0, symName: __ZNSt3__114priority_queueIP9NodeEntryNS_6vectorIS2_NS_9allocatorIS2_EEEENS_4lessIS2_EEE4pushEOS2_, symObjAddr: 0x1B6C, symBinAddr: 0x100023028, symSize: 0x58 }
  - { offsetInCU: 0x19C03, offset: 0x782E4, size: 0x8, addend: 0x0, symName: __ZN9NodeEntryC1ENSt3__112basic_stringIcNS0_11char_traitsIcEENS0_9allocatorIcEEEEi, symObjAddr: 0x1BC4, symBinAddr: 0x100023080, symSize: 0x3C }
  - { offsetInCU: 0x19C48, offset: 0x78329, size: 0x8, addend: 0x0, symName: __ZNKSt3__114priority_queueIP9NodeEntryNS_6vectorIS2_NS_9allocatorIS2_EEEENS_4lessIS2_EEE5emptyB7v160006Ev, symObjAddr: 0x1C00, symBinAddr: 0x1000230BC, symSize: 0x28 }
  - { offsetInCU: 0x19C6C, offset: 0x7834D, size: 0x8, addend: 0x0, symName: __ZNKSt3__114priority_queueIP9NodeEntryNS_6vectorIS2_NS_9allocatorIS2_EEEENS_4lessIS2_EEE3topB7v160006Ev, symObjAddr: 0x1C28, symBinAddr: 0x1000230E4, symSize: 0x24 }
  - { offsetInCU: 0x19C90, offset: 0x78371, size: 0x8, addend: 0x0, symName: __ZNSt3__114priority_queueIP9NodeEntryNS_6vectorIS2_NS_9allocatorIS2_EEEENS_4lessIS2_EEE3popEv, symObjAddr: 0x1C4C, symBinAddr: 0x100023108, symSize: 0x50 }
  - { offsetInCU: 0x19CB6, offset: 0x78397, size: 0x8, addend: 0x0, symName: __ZNSt3__113unordered_mapINS_12basic_stringIcNS_11char_traitsIcEENS_9allocatorIcEEEEiNS_4hashIS6_EENS_8equal_toIS6_EENS4_INS_4pairIKS6_iEEEEE4findB7v160006ERSC_, symObjAddr: 0x1D48, symBinAddr: 0x100023158, symSize: 0x40 }
  - { offsetInCU: 0x19CE9, offset: 0x783CA, size: 0x8, addend: 0x0, symName: __ZNKSt3__119__hash_map_iteratorINS_15__hash_iteratorIPNS_11__hash_nodeINS_17__hash_value_typeINS_12basic_stringIcNS_11char_traitsIcEENS_9allocatorIcEEEEiEEPvEEEEEptB7v160006Ev, symObjAddr: 0x1D88, symBinAddr: 0x100023198, symSize: 0x2C }
  - { offsetInCU: 0x19D0D, offset: 0x783EE, size: 0x8, addend: 0x0, symName: __ZNSt3__113unordered_mapINS_12basic_stringIcNS_11char_traitsIcEENS_9allocatorIcEEEES6_NS_4hashIS6_EENS_8equal_toIS6_EENS4_INS_4pairIKS6_S6_EEEEE6insertB7v160006EOSD_, symObjAddr: 0x1DB4, symBinAddr: 0x1000231C4, symSize: 0x4C }
  - { offsetInCU: 0x19D40, offset: 0x78421, size: 0x8, addend: 0x0, symName: __ZNSt3__14pairIKNS_12basic_stringIcNS_11char_traitsIcEENS_9allocatorIcEEEES6_EC1B7v160006IRS7_RS6_LPv0EEEOT_OT0_, symObjAddr: 0x1E00, symBinAddr: 0x100023210, symSize: 0x3C }
  - { offsetInCU: 0x19D9D, offset: 0x7847E, size: 0x8, addend: 0x0, symName: __ZNSt3__14pairIKNS_12basic_stringIcNS_11char_traitsIcEENS_9allocatorIcEEEES6_ED1Ev, symObjAddr: 0x1E3C, symBinAddr: 0x10002324C, symSize: 0x2C }
  - { offsetInCU: 0x19DC7, offset: 0x784A8, size: 0x8, addend: 0x0, symName: __ZNSt3__113unordered_mapINS_12basic_stringIcNS_11char_traitsIcEENS_9allocatorIcEEEES6_NS_4hashIS6_EENS_8equal_toIS6_EENS4_INS_4pairIKS6_S6_EEEEE4findB7v160006ERSC_, symObjAddr: 0x1EC0, symBinAddr: 0x100023278, symSize: 0x40 }
  - { offsetInCU: 0x19DFA, offset: 0x784DB, size: 0x8, addend: 0x0, symName: __ZNKSt3__119__hash_map_iteratorINS_15__hash_iteratorIPNS_11__hash_nodeINS_17__hash_value_typeINS_12basic_stringIcNS_11char_traitsIcEENS_9allocatorIcEEEES9_EEPvEEEEEptB7v160006Ev, symObjAddr: 0x1F00, symBinAddr: 0x1000232B8, symSize: 0x2C }
  - { offsetInCU: 0x19E1E, offset: 0x784FF, size: 0x8, addend: 0x0, symName: __ZNKSt3__113unordered_mapINS_12basic_stringIcNS_11char_traitsIcEENS_9allocatorIcEEEES6_NS_4hashIS6_EENS_8equal_toIS6_EENS4_INS_4pairIKS6_S6_EEEEE5countB7v160006ERSC_, symObjAddr: 0x1F50, symBinAddr: 0x1000232E4, symSize: 0x2C }
  - { offsetInCU: 0x19E51, offset: 0x78532, size: 0x8, addend: 0x0, symName: __ZNSt3__112basic_stringIcNS_11char_traitsIcEENS_9allocatorIcEEEaSB7v160006EPKc, symObjAddr: 0x1F7C, symBinAddr: 0x100023310, symSize: 0x2C }
  - { offsetInCU: 0x19E84, offset: 0x78565, size: 0x8, addend: 0x0, symName: __ZNSt3__114priority_queueIP9NodeEntryNS_6vectorIS2_NS_9allocatorIS2_EEEENS_4lessIS2_EEED1Ev, symObjAddr: 0x2070, symBinAddr: 0x10002333C, symSize: 0x2C }
  - { offsetInCU: 0x19EB0, offset: 0x78591, size: 0x8, addend: 0x0, symName: __ZNSt3__113unordered_mapINS_12basic_stringIcNS_11char_traitsIcEENS_9allocatorIcEEEES6_NS_4hashIS6_EENS_8equal_toIS6_EENS4_INS_4pairIKS6_S6_EEEEED1B7v160006Ev, symObjAddr: 0x209C, symBinAddr: 0x100023368, symSize: 0x2C }
  - { offsetInCU: 0x19ED8, offset: 0x785B9, size: 0x8, addend: 0x0, symName: __ZNSt3__113unordered_mapINS_12basic_stringIcNS_11char_traitsIcEENS_9allocatorIcEEEEiNS_4hashIS6_EENS_8equal_toIS6_EENS4_INS_4pairIKS6_iEEEEED1B7v160006Ev, symObjAddr: 0x20C8, symBinAddr: 0x100023394, symSize: 0x2C }
  - { offsetInCU: 0x19F00, offset: 0x785E1, size: 0x8, addend: 0x0, symName: __ZNK13WeightedGraph13cycleTraverseENSt3__112basic_stringIcNS0_11char_traitsIcEENS0_9allocatorIcEEEES6_RbRNS0_3setIS6_NS0_4lessIS6_EENS4_IS6_EEEE, symObjAddr: 0x20F4, symBinAddr: 0x1000233C0, symSize: 0x198 }
  - { offsetInCU: 0x19FA5, offset: 0x78686, size: 0x8, addend: 0x0, symName: __ZNK13WeightedGraph8hasCycleEv, symObjAddr: 0x228C, symBinAddr: 0x100023558, symSize: 0x140 }
  - { offsetInCU: 0x19FE9, offset: 0x786CA, size: 0x8, addend: 0x0, symName: __ZNKSt3__113unordered_mapINS_12basic_stringIcNS_11char_traitsIcEENS_9allocatorIcEEEENS_3setIP4EdgeNS_4lessIS9_EENS4_IS9_EEEENS_4hashIS6_EENS_8equal_toIS6_EENS4_INS_4pairIKS6_SD_EEEEE5emptyB7v160006Ev, symObjAddr: 0x23CC, symBinAddr: 0x100023698, symSize: 0x30 }
  - { offsetInCU: 0x1A012, offset: 0x786F3, size: 0x8, addend: 0x0, symName: __ZNSt3__112basic_stringIcNS_11char_traitsIcEENS_9allocatorIcEEEC1B7v160006IDnEEPKc, symObjAddr: 0x23FC, symBinAddr: 0x1000236C8, symSize: 0x34 }
  - { offsetInCU: 0x1A04F, offset: 0x78730, size: 0x8, addend: 0x0, symName: __ZN4EdgeD2Ev, symObjAddr: 0x2430, symBinAddr: 0x1000236FC, symSize: 0x3C }
  - { offsetInCU: 0x1A079, offset: 0x7875A, size: 0x8, addend: 0x0, symName: __ZNSt3__14pairIKNS_12basic_stringIcNS_11char_traitsIcEENS_9allocatorIcEEEENS_3setIP4EdgeNS_4lessISA_EENS4_ISA_EEEEEC2B7v160006IRS7_RSE_LPv0EEEOT_OT0_, symObjAddr: 0x246C, symBinAddr: 0x100023738, symSize: 0x70 }
  - { offsetInCU: 0x1A0D6, offset: 0x787B7, size: 0x8, addend: 0x0, symName: __ZNSt3__14pairIKNS_12basic_stringIcNS_11char_traitsIcEENS_9allocatorIcEEEENS_3setIP4EdgeNS_4lessISA_EENS4_ISA_EEEEED2Ev, symObjAddr: 0x24DC, symBinAddr: 0x1000237A8, symSize: 0x38 }
  - { offsetInCU: 0x1A100, offset: 0x787E1, size: 0x8, addend: 0x0, symName: __ZN4EdgeC2EiNSt3__112basic_stringIcNS0_11char_traitsIcEENS0_9allocatorIcEEEES6_, symObjAddr: 0x2514, symBinAddr: 0x1000237E0, symSize: 0x90 }
  - { offsetInCU: 0x1A154, offset: 0x78835, size: 0x8, addend: 0x0, symName: __ZNSt3__112basic_stringIcNS_11char_traitsIcEENS_9allocatorIcEEEpLB7v160006ERKS5_, symObjAddr: 0x25D0, symBinAddr: 0x100023870, symSize: 0x2C }
  - { offsetInCU: 0x1A18C, offset: 0x7886D, size: 0x8, addend: 0x0, symName: __ZNSt3__112basic_stringIcNS_11char_traitsIcEENS_9allocatorIcEEE6appendB7v160006ERKS5_, symObjAddr: 0x27D0, symBinAddr: 0x10002389C, symSize: 0x4C }
  - { offsetInCU: 0x1A1BF, offset: 0x788A0, size: 0x8, addend: 0x0, symName: __ZNSt3__14pairIKNS_12basic_stringIcNS_11char_traitsIcEENS_9allocatorIcEEEEiEC2B7v160006IRS7_RiLPv0EEEOT_OT0_, symObjAddr: 0x2AD0, symBinAddr: 0x1000238E8, symSize: 0x44 }
  - { offsetInCU: 0x1A21C, offset: 0x788FD, size: 0x8, addend: 0x0, symName: __ZNSt3__14pairIKNS_12basic_stringIcNS_11char_traitsIcEENS_9allocatorIcEEEEiED2Ev, symObjAddr: 0x2B14, symBinAddr: 0x10002392C, symSize: 0x2C }
  - { offsetInCU: 0x1A246, offset: 0x78927, size: 0x8, addend: 0x0, symName: __ZN9NodeEntryC2ENSt3__112basic_stringIcNS0_11char_traitsIcEENS0_9allocatorIcEEEEi, symObjAddr: 0x2B40, symBinAddr: 0x100023958, symSize: 0x40 }
  - { offsetInCU: 0x1A28B, offset: 0x7896C, size: 0x8, addend: 0x0, symName: __ZNSt3__14pairIKNS_12basic_stringIcNS_11char_traitsIcEENS_9allocatorIcEEEES6_EC2B7v160006IRS7_RS6_LPv0EEEOT_OT0_, symObjAddr: 0x2B80, symBinAddr: 0x100023998, symSize: 0x70 }
  - { offsetInCU: 0x1A2E8, offset: 0x789C9, size: 0x8, addend: 0x0, symName: __ZNSt3__14pairIKNS_12basic_stringIcNS_11char_traitsIcEENS_9allocatorIcEEEES6_ED2Ev, symObjAddr: 0x2BF0, symBinAddr: 0x100023A08, symSize: 0x38 }
  - { offsetInCU: 0x1A317, offset: 0x789F8, size: 0x8, addend: 0x0, symName: __ZNSt3__114priority_queueIP9NodeEntryNS_6vectorIS2_NS_9allocatorIS2_EEEENS_4lessIS2_EEED2Ev, symObjAddr: 0x394C, symBinAddr: 0x100023A40, symSize: 0x2C }
  - { offsetInCU: 0x1A343, offset: 0x78A24, size: 0x8, addend: 0x0, symName: __ZNSt3__16vectorIP9NodeEntryNS_9allocatorIS2_EEED1B7v160006Ev, symObjAddr: 0x3978, symBinAddr: 0x100023A6C, symSize: 0x2C }
  - { offsetInCU: 0x1A36B, offset: 0x78A4C, size: 0x8, addend: 0x0, symName: __ZNSt3__16vectorIP9NodeEntryNS_9allocatorIS2_EEED2B7v160006Ev, symObjAddr: 0x39A4, symBinAddr: 0x100023A98, symSize: 0x44 }
  - { offsetInCU: 0x1A393, offset: 0x78A74, size: 0x8, addend: 0x0, symName: __ZNSt3__16vectorIP9NodeEntryNS_9allocatorIS2_EEE16__destroy_vectorC1ERS5_, symObjAddr: 0x39E8, symBinAddr: 0x100023ADC, symSize: 0x34 }
  - { offsetInCU: 0x1A3CA, offset: 0x78AAB, size: 0x8, addend: 0x0, symName: __ZNSt3__16vectorIP9NodeEntryNS_9allocatorIS2_EEE16__destroy_vectorclB7v160006Ev, symObjAddr: 0x3A1C, symBinAddr: 0x100023B10, symSize: 0x9C }
  - { offsetInCU: 0x1A3EE, offset: 0x78ACF, size: 0x8, addend: 0x0, symName: __ZNSt3__16vectorIP9NodeEntryNS_9allocatorIS2_EEE16__destroy_vectorC2ERS5_, symObjAddr: 0x3AB8, symBinAddr: 0x100023BAC, symSize: 0x20 }
  - { offsetInCU: 0x1A425, offset: 0x78B06, size: 0x8, addend: 0x0, symName: __ZNKSt3__16vectorIP9NodeEntryNS_9allocatorIS2_EEE17__annotate_deleteB7v160006Ev, symObjAddr: 0x3AD8, symBinAddr: 0x100023BCC, symSize: 0xB8 }
  - { offsetInCU: 0x1A449, offset: 0x78B2A, size: 0x8, addend: 0x0, symName: __ZNSt3__16vectorIP9NodeEntryNS_9allocatorIS2_EEE7__clearB7v160006Ev, symObjAddr: 0x3BA0, symBinAddr: 0x100023C94, symSize: 0x28 }
  - { offsetInCU: 0x1A46D, offset: 0x78B4E, size: 0x8, addend: 0x0, symName: __ZNSt3__116allocator_traitsINS_9allocatorIP9NodeEntryEEE10deallocateB7v160006ERS4_PS3_m, symObjAddr: 0x3BC8, symBinAddr: 0x100023CBC, symSize: 0x34 }
  - { offsetInCU: 0x1A4AE, offset: 0x78B8F, size: 0x8, addend: 0x0, symName: __ZNSt3__16vectorIP9NodeEntryNS_9allocatorIS2_EEE7__allocB7v160006Ev, symObjAddr: 0x3BFC, symBinAddr: 0x100023CF0, symSize: 0x28 }
  - { offsetInCU: 0x1A4D2, offset: 0x78BB3, size: 0x8, addend: 0x0, symName: __ZNKSt3__16vectorIP9NodeEntryNS_9allocatorIS2_EEE8capacityB7v160006Ev, symObjAddr: 0x3C24, symBinAddr: 0x100023D18, symSize: 0x40 }
  - { offsetInCU: 0x1A4F6, offset: 0x78BD7, size: 0x8, addend: 0x0, symName: __ZNKSt3__16vectorIP9NodeEntryNS_9allocatorIS2_EEE31__annotate_contiguous_containerB7v160006EPKvS7_S7_S7_, symObjAddr: 0x3C64, symBinAddr: 0x100023D58, symSize: 0x20 }
  - { offsetInCU: 0x1A54A, offset: 0x78C2B, size: 0x8, addend: 0x0, symName: __ZNKSt3__16vectorIP9NodeEntryNS_9allocatorIS2_EEE4dataB7v160006Ev, symObjAddr: 0x3C84, symBinAddr: 0x100023D78, symSize: 0x28 }
  - { offsetInCU: 0x1A56E, offset: 0x78C4F, size: 0x8, addend: 0x0, symName: __ZNKSt3__16vectorIP9NodeEntryNS_9allocatorIS2_EEE4sizeB7v160006Ev, symObjAddr: 0x3CAC, symBinAddr: 0x100023DA0, symSize: 0x28 }
  - { offsetInCU: 0x1A592, offset: 0x78C73, size: 0x8, addend: 0x0, symName: __ZNSt3__16vectorIP9NodeEntryNS_9allocatorIS2_EEE22__base_destruct_at_endB7v160006EPS2_, symObjAddr: 0x3CE8, symBinAddr: 0x100023DDC, symSize: 0x8C }
  - { offsetInCU: 0x1A5D4, offset: 0x78CB5, size: 0x8, addend: 0x0, symName: __ZNSt3__116allocator_traitsINS_9allocatorIP9NodeEntryEEE7destroyB7v160006IS3_vvEEvRS4_PT_, symObjAddr: 0x3D74, symBinAddr: 0x100023E68, symSize: 0x28 }
  - { offsetInCU: 0x1A610, offset: 0x78CF1, size: 0x8, addend: 0x0, symName: __ZNSt3__19allocatorIP9NodeEntryE10deallocateB7v160006EPS2_m, symObjAddr: 0x3DD0, symBinAddr: 0x100023EC4, symSize: 0x40 }
  - { offsetInCU: 0x1A650, offset: 0x78D31, size: 0x8, addend: 0x0, symName: __ZNSt3__117__compressed_pairIPP9NodeEntryNS_9allocatorIS2_EEE6secondB7v160006Ev, symObjAddr: 0x3E10, symBinAddr: 0x100023F04, symSize: 0x24 }
  - { offsetInCU: 0x1A674, offset: 0x78D55, size: 0x8, addend: 0x0, symName: __ZNSt3__122__compressed_pair_elemINS_9allocatorIP9NodeEntryEELi1ELb1EE5__getB7v160006Ev, symObjAddr: 0x3E34, symBinAddr: 0x100023F28, symSize: 0x14 }
  - { offsetInCU: 0x1A698, offset: 0x78D79, size: 0x8, addend: 0x0, symName: __ZNKSt3__16vectorIP9NodeEntryNS_9allocatorIS2_EEE9__end_capB7v160006Ev, symObjAddr: 0x3E48, symBinAddr: 0x100023F3C, symSize: 0x28 }
  - { offsetInCU: 0x1A6BC, offset: 0x78D9D, size: 0x8, addend: 0x0, symName: __ZNKSt3__117__compressed_pairIPP9NodeEntryNS_9allocatorIS2_EEE5firstB7v160006Ev, symObjAddr: 0x3E70, symBinAddr: 0x100023F64, symSize: 0x24 }
  - { offsetInCU: 0x1A6E0, offset: 0x78DC1, size: 0x8, addend: 0x0, symName: __ZNKSt3__122__compressed_pair_elemIPP9NodeEntryLi0ELb0EE5__getB7v160006Ev, symObjAddr: 0x3E94, symBinAddr: 0x100023F88, symSize: 0x14 }
  - { offsetInCU: 0x1A704, offset: 0x78DE5, size: 0x8, addend: 0x0, symName: __ZNSt3__112basic_stringIcNS_11char_traitsIcEENS_9allocatorIcEEEC2B7v160006IDnEEPKc, symObjAddr: 0x3EA8, symBinAddr: 0x100023F9C, symSize: 0x60 }
  - { offsetInCU: 0x1A741, offset: 0x78E22, size: 0x8, addend: 0x0, symName: __ZNSt3__113unordered_mapINS_12basic_stringIcNS_11char_traitsIcEENS_9allocatorIcEEEENS_3setIP4EdgeNS_4lessIS9_EENS4_IS9_EEEENS_4hashIS6_EENS_8equal_toIS6_EENS4_INS_4pairIKS6_SD_EEEEEC2B7v160006Ev, symObjAddr: 0x3F60, symBinAddr: 0x100023FFC, symSize: 0x3C }
  - { offsetInCU: 0x1A769, offset: 0x78E4A, size: 0x8, addend: 0x0, symName: __ZNSt3__112__hash_tableINS_17__hash_value_typeINS_12basic_stringIcNS_11char_traitsIcEENS_9allocatorIcEEEENS_3setIP4EdgeNS_4lessISA_EENS5_ISA_EEEEEENS_22__unordered_map_hasherIS7_SF_NS_4hashIS7_EENS_8equal_toIS7_EELb1EEENS_21__unordered_map_equalIS7_SF_SK_SI_Lb1EEENS5_ISF_EEEC1Ev, symObjAddr: 0x3F9C, symBinAddr: 0x100024038, symSize: 0x2C }
  - { offsetInCU: 0x1A794, offset: 0x78E75, size: 0x8, addend: 0x0, symName: __ZNSt3__112__hash_tableINS_17__hash_value_typeINS_12basic_stringIcNS_11char_traitsIcEENS_9allocatorIcEEEENS_3setIP4EdgeNS_4lessISA_EENS5_ISA_EEEEEENS_22__unordered_map_hasherIS7_SF_NS_4hashIS7_EENS_8equal_toIS7_EELb1EEENS_21__unordered_map_equalIS7_SF_SK_SI_Lb1EEENS5_ISF_EEEC2Ev, symObjAddr: 0x3FD8, symBinAddr: 0x100024074, symSize: 0x7C }
  - { offsetInCU: 0x1A7BF, offset: 0x78EA0, size: 0x8, addend: 0x0, symName: __ZNSt3__110unique_ptrIA_PNS_16__hash_node_baseIPNS_11__hash_nodeINS_17__hash_value_typeINS_12basic_stringIcNS_11char_traitsIcEENS_9allocatorIcEEEENS_3setIP4EdgeNS_4lessISC_EENS7_ISC_EEEEEEPvEEEENS_25__bucket_list_deallocatorINS7_ISM_EEEEEC1B7v160006ILb1EvEEv, symObjAddr: 0x4054, symBinAddr: 0x1000240F0, symSize: 0x2C }
  - { offsetInCU: 0x1A7F3, offset: 0x78ED4, size: 0x8, addend: 0x0, symName: __ZNSt3__117__compressed_pairINS_16__hash_node_baseIPNS_11__hash_nodeINS_17__hash_value_typeINS_12basic_stringIcNS_11char_traitsIcEENS_9allocatorIcEEEENS_3setIP4EdgeNS_4lessISC_EENS7_ISC_EEEEEEPvEEEENS7_ISJ_EEEC1B7v160006ILb1EvEEv, symObjAddr: 0x4080, symBinAddr: 0x10002411C, symSize: 0x2C }
  - { offsetInCU: 0x1A82C, offset: 0x78F0D, size: 0x8, addend: 0x0, symName: __ZNSt3__117__compressed_pairImNS_22__unordered_map_hasherINS_12basic_stringIcNS_11char_traitsIcEENS_9allocatorIcEEEENS_17__hash_value_typeIS7_NS_3setIP4EdgeNS_4lessISB_EENS5_ISB_EEEEEENS_4hashIS7_EENS_8equal_toIS7_EELb1EEEEC1B7v160006IiNS_18__default_init_tagEEEOT_OT0_, symObjAddr: 0x40AC, symBinAddr: 0x100024148, symSize: 0x3C }
  - { offsetInCU: 0x1A887, offset: 0x78F68, size: 0x8, addend: 0x0, symName: __ZNSt3__117__compressed_pairIfNS_21__unordered_map_equalINS_12basic_stringIcNS_11char_traitsIcEENS_9allocatorIcEEEENS_17__hash_value_typeIS7_NS_3setIP4EdgeNS_4lessISB_EENS5_ISB_EEEEEENS_8equal_toIS7_EENS_4hashIS7_EELb1EEEEC1B7v160006IfNS_18__default_init_tagEEEOT_OT0_, symObjAddr: 0x40E8, symBinAddr: 0x100024184, symSize: 0x3C }
  - { offsetInCU: 0x1A8DD, offset: 0x78FBE, size: 0x8, addend: 0x0, symName: __ZNSt3__110unique_ptrIA_PNS_16__hash_node_baseIPNS_11__hash_nodeINS_17__hash_value_typeINS_12basic_stringIcNS_11char_traitsIcEENS_9allocatorIcEEEENS_3setIP4EdgeNS_4lessISC_EENS7_ISC_EEEEEEPvEEEENS_25__bucket_list_deallocatorINS7_ISM_EEEEEC2B7v160006ILb1EvEEv, symObjAddr: 0x4124, symBinAddr: 0x1000241C0, symSize: 0x3C }
  - { offsetInCU: 0x1A916, offset: 0x78FF7, size: 0x8, addend: 0x0, symName: __ZNSt3__117__compressed_pairIPPNS_16__hash_node_baseIPNS_11__hash_nodeINS_17__hash_value_typeINS_12basic_stringIcNS_11char_traitsIcEENS_9allocatorIcEEEENS_3setIP4EdgeNS_4lessISC_EENS7_ISC_EEEEEEPvEEEENS_25__bucket_list_deallocatorINS7_ISM_EEEEEC1B7v160006INS_16__value_init_tagEST_EEOT_OT0_, symObjAddr: 0x4160, symBinAddr: 0x1000241FC, symSize: 0x3C }
  - { offsetInCU: 0x1A96C, offset: 0x7904D, size: 0x8, addend: 0x0, symName: __ZNSt3__117__compressed_pairIPPNS_16__hash_node_baseIPNS_11__hash_nodeINS_17__hash_value_typeINS_12basic_stringIcNS_11char_traitsIcEENS_9allocatorIcEEEENS_3setIP4EdgeNS_4lessISC_EENS7_ISC_EEEEEEPvEEEENS_25__bucket_list_deallocatorINS7_ISM_EEEEEC2B7v160006INS_16__value_init_tagEST_EEOT_OT0_, symObjAddr: 0x419C, symBinAddr: 0x100024238, symSize: 0x40 }
  - { offsetInCU: 0x1A9C2, offset: 0x790A3, size: 0x8, addend: 0x0, symName: __ZNSt3__122__compressed_pair_elemIPPNS_16__hash_node_baseIPNS_11__hash_nodeINS_17__hash_value_typeINS_12basic_stringIcNS_11char_traitsIcEENS_9allocatorIcEEEENS_3setIP4EdgeNS_4lessISC_EENS7_ISC_EEEEEEPvEEEELi0ELb0EEC2B7v160006ENS_16__value_init_tagE, symObjAddr: 0x41DC, symBinAddr: 0x100024278, symSize: 0x18 }
  - { offsetInCU: 0x1A9F4, offset: 0x790D5, size: 0x8, addend: 0x0, symName: __ZNSt3__122__compressed_pair_elemINS_25__bucket_list_deallocatorINS_9allocatorIPNS_16__hash_node_baseIPNS_11__hash_nodeINS_17__hash_value_typeINS_12basic_stringIcNS_11char_traitsIcEENS2_IcEEEENS_3setIP4EdgeNS_4lessISD_EENS2_ISD_EEEEEEPvEEEEEEEELi1ELb0EEC2B7v160006ENS_16__value_init_tagE, symObjAddr: 0x41F4, symBinAddr: 0x100024290, symSize: 0x2C }
  - { offsetInCU: 0x1AA26, offset: 0x79107, size: 0x8, addend: 0x0, symName: __ZNSt3__125__bucket_list_deallocatorINS_9allocatorIPNS_16__hash_node_baseIPNS_11__hash_nodeINS_17__hash_value_typeINS_12basic_stringIcNS_11char_traitsIcEENS1_IcEEEENS_3setIP4EdgeNS_4lessISC_EENS1_ISC_EEEEEEPvEEEEEEEC1B7v160006Ev, symObjAddr: 0x4220, symBinAddr: 0x1000242BC, symSize: 0x2C }
  - { offsetInCU: 0x1AA4E, offset: 0x7912F, size: 0x8, addend: 0x0, symName: __ZNSt3__125__bucket_list_deallocatorINS_9allocatorIPNS_16__hash_node_baseIPNS_11__hash_nodeINS_17__hash_value_typeINS_12basic_stringIcNS_11char_traitsIcEENS1_IcEEEENS_3setIP4EdgeNS_4lessISC_EENS1_ISC_EEEEEEPvEEEEEEEC2B7v160006Ev, symObjAddr: 0x424C, symBinAddr: 0x1000242E8, symSize: 0x40 }
  - { offsetInCU: 0x1AA76, offset: 0x79157, size: 0x8, addend: 0x0, symName: __ZNSt3__117__compressed_pairImNS_9allocatorIPNS_16__hash_node_baseIPNS_11__hash_nodeINS_17__hash_value_typeINS_12basic_stringIcNS_11char_traitsIcEENS1_IcEEEENS_3setIP4EdgeNS_4lessISC_EENS1_ISC_EEEEEEPvEEEEEEEC1B7v160006IiNS_18__default_init_tagEEEOT_OT0_, symObjAddr: 0x428C, symBinAddr: 0x100024328, symSize: 0x3C }
  - { offsetInCU: 0x1AACC, offset: 0x791AD, size: 0x8, addend: 0x0, symName: __ZNSt3__117__compressed_pairImNS_9allocatorIPNS_16__hash_node_baseIPNS_11__hash_nodeINS_17__hash_value_typeINS_12basic_stringIcNS_11char_traitsIcEENS1_IcEEEENS_3setIP4EdgeNS_4lessISC_EENS1_ISC_EEEEEEPvEEEEEEEC2B7v160006IiNS_18__default_init_tagEEEOT_OT0_, symObjAddr: 0x42C8, symBinAddr: 0x100024364, symSize: 0x40 }
  - { offsetInCU: 0x1AB22, offset: 0x79203, size: 0x8, addend: 0x0, symName: __ZNSt3__122__compressed_pair_elemINS_9allocatorIPNS_16__hash_node_baseIPNS_11__hash_nodeINS_17__hash_value_typeINS_12basic_stringIcNS_11char_traitsIcEENS1_IcEEEENS_3setIP4EdgeNS_4lessISC_EENS1_ISC_EEEEEEPvEEEEEELi1ELb1EEC2B7v160006ENS_18__default_init_tagE, symObjAddr: 0x432C, symBinAddr: 0x1000243A4, symSize: 0x2C }
  - { offsetInCU: 0x1AB54, offset: 0x79235, size: 0x8, addend: 0x0, symName: __ZNSt3__19allocatorIPNS_16__hash_node_baseIPNS_11__hash_nodeINS_17__hash_value_typeINS_12basic_stringIcNS_11char_traitsIcEENS0_IcEEEENS_3setIP4EdgeNS_4lessISB_EENS0_ISB_EEEEEEPvEEEEEC2B7v160006Ev, symObjAddr: 0x4358, symBinAddr: 0x1000243D0, symSize: 0x2C }
  - { offsetInCU: 0x1AB7C, offset: 0x7925D, size: 0x8, addend: 0x0, symName: __ZNSt3__116__non_trivial_ifILb1ENS_9allocatorIPNS_16__hash_node_baseIPNS_11__hash_nodeINS_17__hash_value_typeINS_12basic_stringIcNS_11char_traitsIcEENS1_IcEEEENS_3setIP4EdgeNS_4lessISC_EENS1_ISC_EEEEEEPvEEEEEEEC2B7v160006Ev, symObjAddr: 0x4384, symBinAddr: 0x1000243FC, symSize: 0x14 }
  - { offsetInCU: 0x1ABA4, offset: 0x79285, size: 0x8, addend: 0x0, symName: __ZNSt3__117__compressed_pairINS_16__hash_node_baseIPNS_11__hash_nodeINS_17__hash_value_typeINS_12basic_stringIcNS_11char_traitsIcEENS_9allocatorIcEEEENS_3setIP4EdgeNS_4lessISC_EENS7_ISC_EEEEEEPvEEEENS7_ISJ_EEEC2B7v160006ILb1EvEEv, symObjAddr: 0x4398, symBinAddr: 0x100024410, symSize: 0x34 }
  - { offsetInCU: 0x1ABD8, offset: 0x792B9, size: 0x8, addend: 0x0, symName: __ZNSt3__122__compressed_pair_elemINS_16__hash_node_baseIPNS_11__hash_nodeINS_17__hash_value_typeINS_12basic_stringIcNS_11char_traitsIcEENS_9allocatorIcEEEENS_3setIP4EdgeNS_4lessISC_EENS7_ISC_EEEEEEPvEEEELi0ELb0EEC2B7v160006ENS_16__value_init_tagE, symObjAddr: 0x43CC, symBinAddr: 0x100024444, symSize: 0x2C }
  - { offsetInCU: 0x1AC0A, offset: 0x792EB, size: 0x8, addend: 0x0, symName: __ZNSt3__122__compressed_pair_elemINS_9allocatorINS_11__hash_nodeINS_17__hash_value_typeINS_12basic_stringIcNS_11char_traitsIcEENS1_IcEEEENS_3setIP4EdgeNS_4lessISB_EENS1_ISB_EEEEEEPvEEEELi1ELb1EEC2B7v160006ENS_16__value_init_tagE, symObjAddr: 0x43F8, symBinAddr: 0x100024470, symSize: 0x2C }
  - { offsetInCU: 0x1AC3C, offset: 0x7931D, size: 0x8, addend: 0x0, symName: __ZNSt3__116__hash_node_baseIPNS_11__hash_nodeINS_17__hash_value_typeINS_12basic_stringIcNS_11char_traitsIcEENS_9allocatorIcEEEENS_3setIP4EdgeNS_4lessISB_EENS6_ISB_EEEEEEPvEEEC1B7v160006Ev, symObjAddr: 0x4424, symBinAddr: 0x10002449C, symSize: 0x2C }
  - { offsetInCU: 0x1AC64, offset: 0x79345, size: 0x8, addend: 0x0, symName: __ZNSt3__116__hash_node_baseIPNS_11__hash_nodeINS_17__hash_value_typeINS_12basic_stringIcNS_11char_traitsIcEENS_9allocatorIcEEEENS_3setIP4EdgeNS_4lessISB_EENS6_ISB_EEEEEEPvEEEC2B7v160006Ev, symObjAddr: 0x4450, symBinAddr: 0x1000244C8, symSize: 0x18 }
  - { offsetInCU: 0x1AC8C, offset: 0x7936D, size: 0x8, addend: 0x0, symName: __ZNSt3__19allocatorINS_11__hash_nodeINS_17__hash_value_typeINS_12basic_stringIcNS_11char_traitsIcEENS0_IcEEEENS_3setIP4EdgeNS_4lessISA_EENS0_ISA_EEEEEEPvEEEC2B7v160006Ev, symObjAddr: 0x4468, symBinAddr: 0x1000244E0, symSize: 0x2C }
  - { offsetInCU: 0x1ACB4, offset: 0x79395, size: 0x8, addend: 0x0, symName: __ZNSt3__116__non_trivial_ifILb1ENS_9allocatorINS_11__hash_nodeINS_17__hash_value_typeINS_12basic_stringIcNS_11char_traitsIcEENS1_IcEEEENS_3setIP4EdgeNS_4lessISB_EENS1_ISB_EEEEEEPvEEEEEC2B7v160006Ev, symObjAddr: 0x4494, symBinAddr: 0x10002450C, symSize: 0x14 }
  - { offsetInCU: 0x1ACDC, offset: 0x793BD, size: 0x8, addend: 0x0, symName: __ZNSt3__117__compressed_pairImNS_22__unordered_map_hasherINS_12basic_stringIcNS_11char_traitsIcEENS_9allocatorIcEEEENS_17__hash_value_typeIS7_NS_3setIP4EdgeNS_4lessISB_EENS5_ISB_EEEEEENS_4hashIS7_EENS_8equal_toIS7_EELb1EEEEC2B7v160006IiNS_18__default_init_tagEEEOT_OT0_, symObjAddr: 0x44A8, symBinAddr: 0x100024520, symSize: 0x40 }
  - { offsetInCU: 0x1AD32, offset: 0x79413, size: 0x8, addend: 0x0, symName: __ZNSt3__122__compressed_pair_elemINS_22__unordered_map_hasherINS_12basic_stringIcNS_11char_traitsIcEENS_9allocatorIcEEEENS_17__hash_value_typeIS7_NS_3setIP4EdgeNS_4lessISB_EENS5_ISB_EEEEEENS_4hashIS7_EENS_8equal_toIS7_EELb1EEELi1ELb1EEC2B7v160006ENS_18__default_init_tagE, symObjAddr: 0x44E8, symBinAddr: 0x100024560, symSize: 0x2C }
  - { offsetInCU: 0x1AD64, offset: 0x79445, size: 0x8, addend: 0x0, symName: __ZNSt3__122__unordered_map_hasherINS_12basic_stringIcNS_11char_traitsIcEENS_9allocatorIcEEEENS_17__hash_value_typeIS6_NS_3setIP4EdgeNS_4lessISA_EENS4_ISA_EEEEEENS_4hashIS6_EENS_8equal_toIS6_EELb1EEC2B7v160006Ev, symObjAddr: 0x4514, symBinAddr: 0x10002458C, symSize: 0x14 }
  - { offsetInCU: 0x1AD8C, offset: 0x7946D, size: 0x8, addend: 0x0, symName: __ZNSt3__117__compressed_pairIfNS_21__unordered_map_equalINS_12basic_stringIcNS_11char_traitsIcEENS_9allocatorIcEEEENS_17__hash_value_typeIS7_NS_3setIP4EdgeNS_4lessISB_EENS5_ISB_EEEEEENS_8equal_toIS7_EENS_4hashIS7_EELb1EEEEC2B7v160006IfNS_18__default_init_tagEEEOT_OT0_, symObjAddr: 0x4528, symBinAddr: 0x1000245A0, symSize: 0x40 }
  - { offsetInCU: 0x1ADE2, offset: 0x794C3, size: 0x8, addend: 0x0, symName: __ZNSt3__122__compressed_pair_elemINS_21__unordered_map_equalINS_12basic_stringIcNS_11char_traitsIcEENS_9allocatorIcEEEENS_17__hash_value_typeIS7_NS_3setIP4EdgeNS_4lessISB_EENS5_ISB_EEEEEENS_8equal_toIS7_EENS_4hashIS7_EELb1EEELi1ELb1EEC2B7v160006ENS_18__default_init_tagE, symObjAddr: 0x458C, symBinAddr: 0x1000245E0, symSize: 0x2C }
  - { offsetInCU: 0x1AE14, offset: 0x794F5, size: 0x8, addend: 0x0, symName: __ZNSt3__121__unordered_map_equalINS_12basic_stringIcNS_11char_traitsIcEENS_9allocatorIcEEEENS_17__hash_value_typeIS6_NS_3setIP4EdgeNS_4lessISA_EENS4_ISA_EEEEEENS_8equal_toIS6_EENS_4hashIS6_EELb1EEC2B7v160006Ev, symObjAddr: 0x45B8, symBinAddr: 0x10002460C, symSize: 0x14 }
  - { offsetInCU: 0x1AE3C, offset: 0x7951D, size: 0x8, addend: 0x0, symName: __ZNSt3__112__hash_tableINS_17__hash_value_typeINS_12basic_stringIcNS_11char_traitsIcEENS_9allocatorIcEEEENS_3setIP4EdgeNS_4lessISA_EENS5_ISA_EEEEEENS_22__unordered_map_hasherIS7_SF_NS_4hashIS7_EENS_8equal_toIS7_EELb1EEENS_21__unordered_map_equalIS7_SF_SK_SI_Lb1EEENS5_ISF_EEE5beginEv, symObjAddr: 0x45CC, symBinAddr: 0x100024620, symSize: 0x40 }
  - { offsetInCU: 0x1AE62, offset: 0x79543, size: 0x8, addend: 0x0, symName: __ZNSt3__119__hash_map_iteratorINS_15__hash_iteratorIPNS_11__hash_nodeINS_17__hash_value_typeINS_12basic_stringIcNS_11char_traitsIcEENS_9allocatorIcEEEENS_3setIP4EdgeNS_4lessISC_EENS7_ISC_EEEEEEPvEEEEEC1B7v160006ESL_, symObjAddr: 0x460C, symBinAddr: 0x100024660, symSize: 0x34 }
  - { offsetInCU: 0x1AE99, offset: 0x7957A, size: 0x8, addend: 0x0, symName: __ZNSt3__117__compressed_pairINS_16__hash_node_baseIPNS_11__hash_nodeINS_17__hash_value_typeINS_12basic_stringIcNS_11char_traitsIcEENS_9allocatorIcEEEENS_3setIP4EdgeNS_4lessISC_EENS7_ISC_EEEEEEPvEEEENS7_ISJ_EEE5firstB7v160006Ev, symObjAddr: 0x4640, symBinAddr: 0x100024694, symSize: 0x24 }
  - { offsetInCU: 0x1AEBD, offset: 0x7959E, size: 0x8, addend: 0x0, symName: __ZNSt3__115__hash_iteratorIPNS_11__hash_nodeINS_17__hash_value_typeINS_12basic_stringIcNS_11char_traitsIcEENS_9allocatorIcEEEENS_3setIP4EdgeNS_4lessISB_EENS6_ISB_EEEEEEPvEEEC1B7v160006EPNS_16__hash_node_baseISJ_EEPKv, symObjAddr: 0x4664, symBinAddr: 0x1000246B8, symSize: 0x3C }
  - { offsetInCU: 0x1AF03, offset: 0x795E4, size: 0x8, addend: 0x0, symName: __ZNSt3__122__compressed_pair_elemINS_16__hash_node_baseIPNS_11__hash_nodeINS_17__hash_value_typeINS_12basic_stringIcNS_11char_traitsIcEENS_9allocatorIcEEEENS_3setIP4EdgeNS_4lessISC_EENS7_ISC_EEEEEEPvEEEELi0ELb0EE5__getB7v160006Ev, symObjAddr: 0x46A0, symBinAddr: 0x1000246F4, symSize: 0x14 }
  - { offsetInCU: 0x1AF27, offset: 0x79608, size: 0x8, addend: 0x0, symName: __ZNSt3__115__hash_iteratorIPNS_11__hash_nodeINS_17__hash_value_typeINS_12basic_stringIcNS_11char_traitsIcEENS_9allocatorIcEEEENS_3setIP4EdgeNS_4lessISB_EENS6_ISB_EEEEEEPvEEEC2B7v160006EPNS_16__hash_node_baseISJ_EEPKv, symObjAddr: 0x46B4, symBinAddr: 0x100024708, symSize: 0x24 }
  - { offsetInCU: 0x1AF6D, offset: 0x7964E, size: 0x8, addend: 0x0, symName: __ZNSt3__119__hash_map_iteratorINS_15__hash_iteratorIPNS_11__hash_nodeINS_17__hash_value_typeINS_12basic_stringIcNS_11char_traitsIcEENS_9allocatorIcEEEENS_3setIP4EdgeNS_4lessISC_EENS7_ISC_EEEEEEPvEEEEEC2B7v160006ESL_, symObjAddr: 0x46D8, symBinAddr: 0x10002472C, symSize: 0x20 }
  - { offsetInCU: 0x1AFA4, offset: 0x79685, size: 0x8, addend: 0x0, symName: __ZNSt3__112__hash_tableINS_17__hash_value_typeINS_12basic_stringIcNS_11char_traitsIcEENS_9allocatorIcEEEENS_3setIP4EdgeNS_4lessISA_EENS5_ISA_EEEEEENS_22__unordered_map_hasherIS7_SF_NS_4hashIS7_EENS_8equal_toIS7_EELb1EEENS_21__unordered_map_equalIS7_SF_SK_SI_Lb1EEENS5_ISF_EEE3endEv, symObjAddr: 0x46F8, symBinAddr: 0x10002474C, symSize: 0x30 }
  - { offsetInCU: 0x1AFCA, offset: 0x796AB, size: 0x8, addend: 0x0, symName: __ZNSt3__115__hash_iteratorIPNS_11__hash_nodeINS_17__hash_value_typeINS_12basic_stringIcNS_11char_traitsIcEENS_9allocatorIcEEEENS_3setIP4EdgeNS_4lessISB_EENS6_ISB_EEEEEEPvEEEppB7v160006Ev, symObjAddr: 0x478C, symBinAddr: 0x1000247E0, symSize: 0x20 }
  - { offsetInCU: 0x1AFEE, offset: 0x796CF, size: 0x8, addend: 0x0, symName: __ZNKSt3__115__hash_iteratorIPNS_11__hash_nodeINS_17__hash_value_typeINS_12basic_stringIcNS_11char_traitsIcEENS_9allocatorIcEEEENS_3setIP4EdgeNS_4lessISB_EENS6_ISB_EEEEEEPvEEEptB7v160006Ev, symObjAddr: 0x47AC, symBinAddr: 0x100024800, symSize: 0x30 }
  - { offsetInCU: 0x1B012, offset: 0x796F3, size: 0x8, addend: 0x0, symName: __ZNSt3__117__hash_value_typeINS_12basic_stringIcNS_11char_traitsIcEENS_9allocatorIcEEEENS_3setIP4EdgeNS_4lessIS9_EENS4_IS9_EEEEE11__get_valueB7v160006Ev, symObjAddr: 0x47DC, symBinAddr: 0x100024830, symSize: 0x24 }
  - { offsetInCU: 0x1B036, offset: 0x79717, size: 0x8, addend: 0x0, symName: __ZNSt3__114pointer_traitsIPNS_17__hash_value_typeINS_12basic_stringIcNS_11char_traitsIcEENS_9allocatorIcEEEENS_3setIP4EdgeNS_4lessISA_EENS5_ISA_EEEEEEE10pointer_toB7v160006ERSF_, symObjAddr: 0x4800, symBinAddr: 0x100024854, symSize: 0x14 }
  - { offsetInCU: 0x1B058, offset: 0x79739, size: 0x8, addend: 0x0, symName: __ZNSt3__116__hash_node_baseIPNS_11__hash_nodeINS_17__hash_value_typeINS_12basic_stringIcNS_11char_traitsIcEENS_9allocatorIcEEEENS_3setIP4EdgeNS_4lessISB_EENS6_ISB_EEEEEEPvEEE8__upcastB7v160006Ev, symObjAddr: 0x4814, symBinAddr: 0x100024868, symSize: 0x24 }
  - { offsetInCU: 0x1B07C, offset: 0x7975D, size: 0x8, addend: 0x0, symName: __ZNSt3__114pointer_traitsIPNS_16__hash_node_baseIPNS_11__hash_nodeINS_17__hash_value_typeINS_12basic_stringIcNS_11char_traitsIcEENS_9allocatorIcEEEENS_3setIP4EdgeNS_4lessISC_EENS7_ISC_EEEEEEPvEEEEE10pointer_toB7v160006ERSL_, symObjAddr: 0x4838, symBinAddr: 0x10002488C, symSize: 0x14 }
  - { offsetInCU: 0x1B09E, offset: 0x7977F, size: 0x8, addend: 0x0, symName: __ZNSt3__16__treeIP4EdgeNS_4lessIS2_EENS_9allocatorIS2_EEE5beginB7v160006Ev, symObjAddr: 0x4884, symBinAddr: 0x1000248D8, symSize: 0x34 }
  - { offsetInCU: 0x1B0C2, offset: 0x797A3, size: 0x8, addend: 0x0, symName: __ZNSt3__121__tree_const_iteratorIP4EdgePNS_11__tree_nodeIS2_PvEElEC1B7v160006ENS_15__tree_iteratorIS2_S6_lEE, symObjAddr: 0x48B8, symBinAddr: 0x10002490C, symSize: 0x34 }
  - { offsetInCU: 0x1B0F9, offset: 0x797DA, size: 0x8, addend: 0x0, symName: __ZNSt3__16__treeIP4EdgeNS_4lessIS2_EENS_9allocatorIS2_EEE12__begin_nodeB7v160006Ev, symObjAddr: 0x48EC, symBinAddr: 0x100024940, symSize: 0x14 }
  - { offsetInCU: 0x1B11D, offset: 0x797FE, size: 0x8, addend: 0x0, symName: __ZNSt3__115__tree_iteratorIP4EdgePNS_11__tree_nodeIS2_PvEElEC1B7v160006EPNS_15__tree_end_nodeIPNS_16__tree_node_baseIS4_EEEE, symObjAddr: 0x4900, symBinAddr: 0x100024954, symSize: 0x34 }
  - { offsetInCU: 0x1B154, offset: 0x79835, size: 0x8, addend: 0x0, symName: __ZNSt3__115__tree_iteratorIP4EdgePNS_11__tree_nodeIS2_PvEElEC2B7v160006EPNS_15__tree_end_nodeIPNS_16__tree_node_baseIS4_EEEE, symObjAddr: 0x4934, symBinAddr: 0x100024988, symSize: 0x20 }
  - { offsetInCU: 0x1B18B, offset: 0x7986C, size: 0x8, addend: 0x0, symName: __ZNSt3__121__tree_const_iteratorIP4EdgePNS_11__tree_nodeIS2_PvEElEC2B7v160006ENS_15__tree_iteratorIS2_S6_lEE, symObjAddr: 0x4954, symBinAddr: 0x1000249A8, symSize: 0x20 }
  - { offsetInCU: 0x1B1C2, offset: 0x798A3, size: 0x8, addend: 0x0, symName: __ZNSt3__16__treeIP4EdgeNS_4lessIS2_EENS_9allocatorIS2_EEE3endB7v160006Ev, symObjAddr: 0x4974, symBinAddr: 0x1000249C8, symSize: 0x34 }
  - { offsetInCU: 0x1B1E6, offset: 0x798C7, size: 0x8, addend: 0x0, symName: __ZNSt3__16__treeIP4EdgeNS_4lessIS2_EENS_9allocatorIS2_EEE10__end_nodeB7v160006Ev, symObjAddr: 0x49A8, symBinAddr: 0x1000249FC, symSize: 0x2C }
  - { offsetInCU: 0x1B20A, offset: 0x798EB, size: 0x8, addend: 0x0, symName: __ZNSt3__117__compressed_pairINS_15__tree_end_nodeIPNS_16__tree_node_baseIPvEEEENS_9allocatorINS_11__tree_nodeIP4EdgeS3_EEEEE5firstB7v160006Ev, symObjAddr: 0x49E8, symBinAddr: 0x100024A28, symSize: 0x24 }
  - { offsetInCU: 0x1B22E, offset: 0x7990F, size: 0x8, addend: 0x0, symName: __ZNKSt3__121__tree_const_iteratorIP4EdgePNS_11__tree_nodeIS2_PvEElE8__get_npB7v160006Ev, symObjAddr: 0x4B64, symBinAddr: 0x100024A7C, symSize: 0x18 }
  - { offsetInCU: 0x1B252, offset: 0x79933, size: 0x8, addend: 0x0, symName: __ZNSt3__113unordered_mapINS_12basic_stringIcNS_11char_traitsIcEENS_9allocatorIcEEEENS_3setIP4EdgeNS_4lessIS9_EENS4_IS9_EEEENS_4hashIS6_EENS_8equal_toIS6_EENS4_INS_4pairIKS6_SD_EEEEED2B7v160006Ev, symObjAddr: 0x4B7C, symBinAddr: 0x100024A94, symSize: 0x2C }
  - { offsetInCU: 0x1B27A, offset: 0x7995B, size: 0x8, addend: 0x0, symName: __ZNSt3__112__hash_tableINS_17__hash_value_typeINS_12basic_stringIcNS_11char_traitsIcEENS_9allocatorIcEEEENS_3setIP4EdgeNS_4lessISA_EENS5_ISA_EEEEEENS_22__unordered_map_hasherIS7_SF_NS_4hashIS7_EENS_8equal_toIS7_EELb1EEENS_21__unordered_map_equalIS7_SF_SK_SI_Lb1EEENS5_ISF_EEED1Ev, symObjAddr: 0x4BA8, symBinAddr: 0x100024AC0, symSize: 0x2C }
  - { offsetInCU: 0x1B2A5, offset: 0x79986, size: 0x8, addend: 0x0, symName: __ZNSt3__112__hash_tableINS_17__hash_value_typeINS_12basic_stringIcNS_11char_traitsIcEENS_9allocatorIcEEEENS_3setIP4EdgeNS_4lessISA_EENS5_ISA_EEEEEENS_22__unordered_map_hasherIS7_SF_NS_4hashIS7_EENS_8equal_toIS7_EELb1EEENS_21__unordered_map_equalIS7_SF_SK_SI_Lb1EEENS5_ISF_EEED2Ev, symObjAddr: 0x4BD4, symBinAddr: 0x100024AEC, symSize: 0x58 }
  - { offsetInCU: 0x1B2D0, offset: 0x799B1, size: 0x8, addend: 0x0, symName: __ZNSt3__112__hash_tableINS_17__hash_value_typeINS_12basic_stringIcNS_11char_traitsIcEENS_9allocatorIcEEEENS_3setIP4EdgeNS_4lessISA_EENS5_ISA_EEEEEENS_22__unordered_map_hasherIS7_SF_NS_4hashIS7_EENS_8equal_toIS7_EELb1EEENS_21__unordered_map_equalIS7_SF_SK_SI_Lb1EEENS5_ISF_EEE17__deallocate_nodeEPNS_16__hash_node_baseIPNS_11__hash_nodeISF_PvEEEE, symObjAddr: 0x4C2C, symBinAddr: 0x100024B44, symSize: 0xA8 }
  - { offsetInCU: 0x1B338, offset: 0x79A19, size: 0x8, addend: 0x0, symName: __ZNSt3__110unique_ptrIA_PNS_16__hash_node_baseIPNS_11__hash_nodeINS_17__hash_value_typeINS_12basic_stringIcNS_11char_traitsIcEENS_9allocatorIcEEEENS_3setIP4EdgeNS_4lessISC_EENS7_ISC_EEEEEEPvEEEENS_25__bucket_list_deallocatorINS7_ISM_EEEEED1B7v160006Ev, symObjAddr: 0x4CE4, symBinAddr: 0x100024BFC, symSize: 0x2C }
  - { offsetInCU: 0x1B360, offset: 0x79A41, size: 0x8, addend: 0x0, symName: __ZNSt3__112__hash_tableINS_17__hash_value_typeINS_12basic_stringIcNS_11char_traitsIcEENS_9allocatorIcEEEENS_3setIP4EdgeNS_4lessISA_EENS5_ISA_EEEEEENS_22__unordered_map_hasherIS7_SF_NS_4hashIS7_EENS_8equal_toIS7_EELb1EEENS_21__unordered_map_equalIS7_SF_SK_SI_Lb1EEENS5_ISF_EEE12__node_allocB7v160006Ev, symObjAddr: 0x4D10, symBinAddr: 0x100024C28, symSize: 0x28 }
  - { offsetInCU: 0x1B384, offset: 0x79A65, size: 0x8, addend: 0x0, symName: __ZNSt3__116allocator_traitsINS_9allocatorINS_11__hash_nodeINS_17__hash_value_typeINS_12basic_stringIcNS_11char_traitsIcEENS1_IcEEEENS_3setIP4EdgeNS_4lessISB_EENS1_ISB_EEEEEEPvEEEEE7destroyB7v160006INS_4pairIKS8_SF_EEvvEEvRSJ_PT_, symObjAddr: 0x4D38, symBinAddr: 0x100024C50, symSize: 0x28 }
  - { offsetInCU: 0x1B3C0, offset: 0x79AA1, size: 0x8, addend: 0x0, symName: __ZNSt3__122__hash_key_value_typesINS_17__hash_value_typeINS_12basic_stringIcNS_11char_traitsIcEENS_9allocatorIcEEEENS_3setIP4EdgeNS_4lessISA_EENS5_ISA_EEEEEEE9__get_ptrB7v160006ERSF_, symObjAddr: 0x4D60, symBinAddr: 0x100024C78, symSize: 0x24 }
  - { offsetInCU: 0x1B3E2, offset: 0x79AC3, size: 0x8, addend: 0x0, symName: __ZNSt3__116allocator_traitsINS_9allocatorINS_11__hash_nodeINS_17__hash_value_typeINS_12basic_stringIcNS_11char_traitsIcEENS1_IcEEEENS_3setIP4EdgeNS_4lessISB_EENS1_ISB_EEEEEEPvEEEEE10deallocateB7v160006ERSJ_PSI_m, symObjAddr: 0x4D84, symBinAddr: 0x100024C9C, symSize: 0x34 }
  - { offsetInCU: 0x1B423, offset: 0x79B04, size: 0x8, addend: 0x0, symName: __ZNSt3__117__compressed_pairINS_16__hash_node_baseIPNS_11__hash_nodeINS_17__hash_value_typeINS_12basic_stringIcNS_11char_traitsIcEENS_9allocatorIcEEEENS_3setIP4EdgeNS_4lessISC_EENS7_ISC_EEEEEEPvEEEENS7_ISJ_EEE6secondB7v160006Ev, symObjAddr: 0x4DB8, symBinAddr: 0x100024CD0, symSize: 0x24 }
  - { offsetInCU: 0x1B447, offset: 0x79B28, size: 0x8, addend: 0x0, symName: __ZNSt3__122__compressed_pair_elemINS_9allocatorINS_11__hash_nodeINS_17__hash_value_typeINS_12basic_stringIcNS_11char_traitsIcEENS1_IcEEEENS_3setIP4EdgeNS_4lessISB_EENS1_ISB_EEEEEEPvEEEELi1ELb1EE5__getB7v160006Ev, symObjAddr: 0x4DDC, symBinAddr: 0x100024CF4, symSize: 0x14 }
  - { offsetInCU: 0x1B46B, offset: 0x79B4C, size: 0x8, addend: 0x0, symName: __ZNSt3__19allocatorINS_11__hash_nodeINS_17__hash_value_typeINS_12basic_stringIcNS_11char_traitsIcEENS0_IcEEEENS_3setIP4EdgeNS_4lessISA_EENS0_ISA_EEEEEEPvEEE10deallocateB7v160006EPSH_m, symObjAddr: 0x4E38, symBinAddr: 0x100024D50, symSize: 0x40 }
  - { offsetInCU: 0x1B4AB, offset: 0x79B8C, size: 0x8, addend: 0x0, symName: __ZNSt3__110unique_ptrIA_PNS_16__hash_node_baseIPNS_11__hash_nodeINS_17__hash_value_typeINS_12basic_stringIcNS_11char_traitsIcEENS_9allocatorIcEEEENS_3setIP4EdgeNS_4lessISC_EENS7_ISC_EEEEEEPvEEEENS_25__bucket_list_deallocatorINS7_ISM_EEEEED2B7v160006Ev, symObjAddr: 0x4E78, symBinAddr: 0x100024D90, symSize: 0x30 }
  - { offsetInCU: 0x1B4D3, offset: 0x79BB4, size: 0x8, addend: 0x0, symName: __ZNSt3__110unique_ptrIA_PNS_16__hash_node_baseIPNS_11__hash_nodeINS_17__hash_value_typeINS_12basic_stringIcNS_11char_traitsIcEENS_9allocatorIcEEEENS_3setIP4EdgeNS_4lessISC_EENS7_ISC_EEEEEEPvEEEENS_25__bucket_list_deallocatorINS7_ISM_EEEEE5resetB7v160006EDn, symObjAddr: 0x4EA8, symBinAddr: 0x100024DC0, symSize: 0x6C }
  - { offsetInCU: 0x1B512, offset: 0x79BF3, size: 0x8, addend: 0x0, symName: __ZNSt3__117__compressed_pairIPPNS_16__hash_node_baseIPNS_11__hash_nodeINS_17__hash_value_typeINS_12basic_stringIcNS_11char_traitsIcEENS_9allocatorIcEEEENS_3setIP4EdgeNS_4lessISC_EENS7_ISC_EEEEEEPvEEEENS_25__bucket_list_deallocatorINS7_ISM_EEEEE5firstB7v160006Ev, symObjAddr: 0x4F14, symBinAddr: 0x100024E2C, symSize: 0x24 }
